ARM GAS  C:\Users\JustE\AppData\Local\Temp\ccpkykRb.s 			page 1


   1              		.cpu cortex-m4
   2              		.arch armv7e-m
   3              		.fpu fpv4-sp-d16
   4              		.eabi_attribute 27, 1
   5              		.eabi_attribute 28, 1
   6              		.eabi_attribute 20, 1
   7              		.eabi_attribute 21, 1
   8              		.eabi_attribute 23, 3
   9              		.eabi_attribute 24, 1
  10              		.eabi_attribute 25, 1
  11              		.eabi_attribute 26, 1
  12              		.eabi_attribute 30, 1
  13              		.eabi_attribute 34, 1
  14              		.eabi_attribute 18, 4
  15              		.file	"ComplexMathFunctions.c"
  16              		.text
  17              	.Ltext0:
  18              		.cfi_sections	.debug_frame
  19              		.file 1 "Drivers/CMSIS/DSP/Source/ComplexMathFunctions/ComplexMathFunctions.c"
  20              		.section	.text.arm_cmplx_conj_f32,"ax",%progbits
  21              		.align	1
  22              		.global	arm_cmplx_conj_f32
  23              		.syntax unified
  24              		.thumb
  25              		.thumb_func
  27              	arm_cmplx_conj_f32:
  28              	.LVL0:
  29              	.LFB145:
  30              		.file 2 "Drivers/CMSIS/DSP/Source/ComplexMathFunctions/arm_cmplx_conj_f32.c"
   1:Drivers/CMSIS/DSP/Source/ComplexMathFunctions/arm_cmplx_conj_f32.c **** /* ----------------------------------------------------------------------
   2:Drivers/CMSIS/DSP/Source/ComplexMathFunctions/arm_cmplx_conj_f32.c ****  * Project:      CMSIS DSP Library
   3:Drivers/CMSIS/DSP/Source/ComplexMathFunctions/arm_cmplx_conj_f32.c ****  * Title:        arm_cmplx_conj_f32.c
   4:Drivers/CMSIS/DSP/Source/ComplexMathFunctions/arm_cmplx_conj_f32.c ****  * Description:  Floating-point complex conjugate
   5:Drivers/CMSIS/DSP/Source/ComplexMathFunctions/arm_cmplx_conj_f32.c ****  *
   6:Drivers/CMSIS/DSP/Source/ComplexMathFunctions/arm_cmplx_conj_f32.c ****  * $Date:        18. March 2019
   7:Drivers/CMSIS/DSP/Source/ComplexMathFunctions/arm_cmplx_conj_f32.c ****  * $Revision:    V1.6.0
   8:Drivers/CMSIS/DSP/Source/ComplexMathFunctions/arm_cmplx_conj_f32.c ****  *
   9:Drivers/CMSIS/DSP/Source/ComplexMathFunctions/arm_cmplx_conj_f32.c ****  * Target Processor: Cortex-M cores
  10:Drivers/CMSIS/DSP/Source/ComplexMathFunctions/arm_cmplx_conj_f32.c ****  * -------------------------------------------------------------------- */
  11:Drivers/CMSIS/DSP/Source/ComplexMathFunctions/arm_cmplx_conj_f32.c **** /*
  12:Drivers/CMSIS/DSP/Source/ComplexMathFunctions/arm_cmplx_conj_f32.c ****  * Copyright (C) 2010-2019 ARM Limited or its affiliates. All rights reserved.
  13:Drivers/CMSIS/DSP/Source/ComplexMathFunctions/arm_cmplx_conj_f32.c ****  *
  14:Drivers/CMSIS/DSP/Source/ComplexMathFunctions/arm_cmplx_conj_f32.c ****  * SPDX-License-Identifier: Apache-2.0
  15:Drivers/CMSIS/DSP/Source/ComplexMathFunctions/arm_cmplx_conj_f32.c ****  *
  16:Drivers/CMSIS/DSP/Source/ComplexMathFunctions/arm_cmplx_conj_f32.c ****  * Licensed under the Apache License, Version 2.0 (the License); you may
  17:Drivers/CMSIS/DSP/Source/ComplexMathFunctions/arm_cmplx_conj_f32.c ****  * not use this file except in compliance with the License.
  18:Drivers/CMSIS/DSP/Source/ComplexMathFunctions/arm_cmplx_conj_f32.c ****  * You may obtain a copy of the License at
  19:Drivers/CMSIS/DSP/Source/ComplexMathFunctions/arm_cmplx_conj_f32.c ****  *
  20:Drivers/CMSIS/DSP/Source/ComplexMathFunctions/arm_cmplx_conj_f32.c ****  * www.apache.org/licenses/LICENSE-2.0
  21:Drivers/CMSIS/DSP/Source/ComplexMathFunctions/arm_cmplx_conj_f32.c ****  *
  22:Drivers/CMSIS/DSP/Source/ComplexMathFunctions/arm_cmplx_conj_f32.c ****  * Unless required by applicable law or agreed to in writing, software
  23:Drivers/CMSIS/DSP/Source/ComplexMathFunctions/arm_cmplx_conj_f32.c ****  * distributed under the License is distributed on an AS IS BASIS, WITHOUT
  24:Drivers/CMSIS/DSP/Source/ComplexMathFunctions/arm_cmplx_conj_f32.c ****  * WARRANTIES OR CONDITIONS OF ANY KIND, either express or implied.
  25:Drivers/CMSIS/DSP/Source/ComplexMathFunctions/arm_cmplx_conj_f32.c ****  * See the License for the specific language governing permissions and
  26:Drivers/CMSIS/DSP/Source/ComplexMathFunctions/arm_cmplx_conj_f32.c ****  * limitations under the License.
  27:Drivers/CMSIS/DSP/Source/ComplexMathFunctions/arm_cmplx_conj_f32.c ****  */
  28:Drivers/CMSIS/DSP/Source/ComplexMathFunctions/arm_cmplx_conj_f32.c **** 
ARM GAS  C:\Users\JustE\AppData\Local\Temp\ccpkykRb.s 			page 2


  29:Drivers/CMSIS/DSP/Source/ComplexMathFunctions/arm_cmplx_conj_f32.c **** #include "arm_math.h"
  30:Drivers/CMSIS/DSP/Source/ComplexMathFunctions/arm_cmplx_conj_f32.c **** 
  31:Drivers/CMSIS/DSP/Source/ComplexMathFunctions/arm_cmplx_conj_f32.c **** /**
  32:Drivers/CMSIS/DSP/Source/ComplexMathFunctions/arm_cmplx_conj_f32.c ****   @ingroup groupCmplxMath
  33:Drivers/CMSIS/DSP/Source/ComplexMathFunctions/arm_cmplx_conj_f32.c ****  */
  34:Drivers/CMSIS/DSP/Source/ComplexMathFunctions/arm_cmplx_conj_f32.c **** 
  35:Drivers/CMSIS/DSP/Source/ComplexMathFunctions/arm_cmplx_conj_f32.c **** /**
  36:Drivers/CMSIS/DSP/Source/ComplexMathFunctions/arm_cmplx_conj_f32.c ****   @defgroup cmplx_conj Complex Conjugate
  37:Drivers/CMSIS/DSP/Source/ComplexMathFunctions/arm_cmplx_conj_f32.c **** 
  38:Drivers/CMSIS/DSP/Source/ComplexMathFunctions/arm_cmplx_conj_f32.c ****   Conjugates the elements of a complex data vector.
  39:Drivers/CMSIS/DSP/Source/ComplexMathFunctions/arm_cmplx_conj_f32.c **** 
  40:Drivers/CMSIS/DSP/Source/ComplexMathFunctions/arm_cmplx_conj_f32.c ****   The <code>pSrc</code> points to the source data and
  41:Drivers/CMSIS/DSP/Source/ComplexMathFunctions/arm_cmplx_conj_f32.c ****   <code>pDst</code> points to the destination data where the result should be written.
  42:Drivers/CMSIS/DSP/Source/ComplexMathFunctions/arm_cmplx_conj_f32.c ****   <code>numSamples</code> specifies the number of complex samples
  43:Drivers/CMSIS/DSP/Source/ComplexMathFunctions/arm_cmplx_conj_f32.c ****   and the data in each array is stored in an interleaved fashion
  44:Drivers/CMSIS/DSP/Source/ComplexMathFunctions/arm_cmplx_conj_f32.c ****   (real, imag, real, imag, ...).
  45:Drivers/CMSIS/DSP/Source/ComplexMathFunctions/arm_cmplx_conj_f32.c ****   Each array has a total of <code>2*numSamples</code> values.
  46:Drivers/CMSIS/DSP/Source/ComplexMathFunctions/arm_cmplx_conj_f32.c **** 
  47:Drivers/CMSIS/DSP/Source/ComplexMathFunctions/arm_cmplx_conj_f32.c ****   The underlying algorithm is used:
  48:Drivers/CMSIS/DSP/Source/ComplexMathFunctions/arm_cmplx_conj_f32.c ****   <pre>
  49:Drivers/CMSIS/DSP/Source/ComplexMathFunctions/arm_cmplx_conj_f32.c ****   for (n = 0; n < numSamples; n++) {
  50:Drivers/CMSIS/DSP/Source/ComplexMathFunctions/arm_cmplx_conj_f32.c ****       pDst[(2*n)  ] =  pSrc[(2*n)  ];    // real part
  51:Drivers/CMSIS/DSP/Source/ComplexMathFunctions/arm_cmplx_conj_f32.c ****       pDst[(2*n)+1] = -pSrc[(2*n)+1];    // imag part
  52:Drivers/CMSIS/DSP/Source/ComplexMathFunctions/arm_cmplx_conj_f32.c ****   }
  53:Drivers/CMSIS/DSP/Source/ComplexMathFunctions/arm_cmplx_conj_f32.c ****   </pre>
  54:Drivers/CMSIS/DSP/Source/ComplexMathFunctions/arm_cmplx_conj_f32.c **** 
  55:Drivers/CMSIS/DSP/Source/ComplexMathFunctions/arm_cmplx_conj_f32.c ****   There are separate functions for floating-point, Q15, and Q31 data types.
  56:Drivers/CMSIS/DSP/Source/ComplexMathFunctions/arm_cmplx_conj_f32.c ****  */
  57:Drivers/CMSIS/DSP/Source/ComplexMathFunctions/arm_cmplx_conj_f32.c **** 
  58:Drivers/CMSIS/DSP/Source/ComplexMathFunctions/arm_cmplx_conj_f32.c **** /**
  59:Drivers/CMSIS/DSP/Source/ComplexMathFunctions/arm_cmplx_conj_f32.c ****   @addtogroup cmplx_conj
  60:Drivers/CMSIS/DSP/Source/ComplexMathFunctions/arm_cmplx_conj_f32.c ****   @{
  61:Drivers/CMSIS/DSP/Source/ComplexMathFunctions/arm_cmplx_conj_f32.c ****  */
  62:Drivers/CMSIS/DSP/Source/ComplexMathFunctions/arm_cmplx_conj_f32.c **** 
  63:Drivers/CMSIS/DSP/Source/ComplexMathFunctions/arm_cmplx_conj_f32.c **** /**
  64:Drivers/CMSIS/DSP/Source/ComplexMathFunctions/arm_cmplx_conj_f32.c ****   @brief         Floating-point complex conjugate.
  65:Drivers/CMSIS/DSP/Source/ComplexMathFunctions/arm_cmplx_conj_f32.c ****   @param[in]     pSrc        points to the input vector
  66:Drivers/CMSIS/DSP/Source/ComplexMathFunctions/arm_cmplx_conj_f32.c ****   @param[out]    pDst        points to the output vector
  67:Drivers/CMSIS/DSP/Source/ComplexMathFunctions/arm_cmplx_conj_f32.c ****   @param[in]     numSamples  number of samples in each vector
  68:Drivers/CMSIS/DSP/Source/ComplexMathFunctions/arm_cmplx_conj_f32.c ****   @return        none
  69:Drivers/CMSIS/DSP/Source/ComplexMathFunctions/arm_cmplx_conj_f32.c ****  */
  70:Drivers/CMSIS/DSP/Source/ComplexMathFunctions/arm_cmplx_conj_f32.c **** 
  71:Drivers/CMSIS/DSP/Source/ComplexMathFunctions/arm_cmplx_conj_f32.c **** 
  72:Drivers/CMSIS/DSP/Source/ComplexMathFunctions/arm_cmplx_conj_f32.c **** void arm_cmplx_conj_f32(
  73:Drivers/CMSIS/DSP/Source/ComplexMathFunctions/arm_cmplx_conj_f32.c ****   const float32_t * pSrc,
  74:Drivers/CMSIS/DSP/Source/ComplexMathFunctions/arm_cmplx_conj_f32.c ****         float32_t * pDst,
  75:Drivers/CMSIS/DSP/Source/ComplexMathFunctions/arm_cmplx_conj_f32.c ****         uint32_t numSamples)
  76:Drivers/CMSIS/DSP/Source/ComplexMathFunctions/arm_cmplx_conj_f32.c **** {
  31              		.loc 2 76 1 view -0
  32              		.cfi_startproc
  33              		@ args = 0, pretend = 0, frame = 0
  34              		@ frame_needed = 0, uses_anonymous_args = 0
  77:Drivers/CMSIS/DSP/Source/ComplexMathFunctions/arm_cmplx_conj_f32.c ****         uint32_t blkCnt;                               /* Loop counter */
  35              		.loc 2 77 9 view .LVU1
  78:Drivers/CMSIS/DSP/Source/ComplexMathFunctions/arm_cmplx_conj_f32.c **** 
  79:Drivers/CMSIS/DSP/Source/ComplexMathFunctions/arm_cmplx_conj_f32.c **** #if defined(ARM_MATH_NEON)
  80:Drivers/CMSIS/DSP/Source/ComplexMathFunctions/arm_cmplx_conj_f32.c ****    float32x4_t zero;
ARM GAS  C:\Users\JustE\AppData\Local\Temp\ccpkykRb.s 			page 3


  81:Drivers/CMSIS/DSP/Source/ComplexMathFunctions/arm_cmplx_conj_f32.c ****    float32x4x2_t vec;
  82:Drivers/CMSIS/DSP/Source/ComplexMathFunctions/arm_cmplx_conj_f32.c **** 
  83:Drivers/CMSIS/DSP/Source/ComplexMathFunctions/arm_cmplx_conj_f32.c ****    zero = vdupq_n_f32(0.0);
  84:Drivers/CMSIS/DSP/Source/ComplexMathFunctions/arm_cmplx_conj_f32.c **** 
  85:Drivers/CMSIS/DSP/Source/ComplexMathFunctions/arm_cmplx_conj_f32.c ****    /* Compute 4 outputs at a time */
  86:Drivers/CMSIS/DSP/Source/ComplexMathFunctions/arm_cmplx_conj_f32.c ****    blkCnt = numSamples >> 2U;
  87:Drivers/CMSIS/DSP/Source/ComplexMathFunctions/arm_cmplx_conj_f32.c **** 
  88:Drivers/CMSIS/DSP/Source/ComplexMathFunctions/arm_cmplx_conj_f32.c ****    while (blkCnt > 0U)
  89:Drivers/CMSIS/DSP/Source/ComplexMathFunctions/arm_cmplx_conj_f32.c ****    {
  90:Drivers/CMSIS/DSP/Source/ComplexMathFunctions/arm_cmplx_conj_f32.c ****      /* C[0]+jC[1] = A[0]+(-1)*jA[1] */
  91:Drivers/CMSIS/DSP/Source/ComplexMathFunctions/arm_cmplx_conj_f32.c ****      /* Calculate Complex Conjugate and then store the results in the destination buffer. */
  92:Drivers/CMSIS/DSP/Source/ComplexMathFunctions/arm_cmplx_conj_f32.c ****      vec = vld2q_f32(pSrc);
  93:Drivers/CMSIS/DSP/Source/ComplexMathFunctions/arm_cmplx_conj_f32.c ****      vec.val[1] = vsubq_f32(zero,vec.val[1]);
  94:Drivers/CMSIS/DSP/Source/ComplexMathFunctions/arm_cmplx_conj_f32.c ****      vst2q_f32(pDst,vec);
  95:Drivers/CMSIS/DSP/Source/ComplexMathFunctions/arm_cmplx_conj_f32.c **** 
  96:Drivers/CMSIS/DSP/Source/ComplexMathFunctions/arm_cmplx_conj_f32.c ****      /* Increment pointers */
  97:Drivers/CMSIS/DSP/Source/ComplexMathFunctions/arm_cmplx_conj_f32.c ****      pSrc += 8;
  98:Drivers/CMSIS/DSP/Source/ComplexMathFunctions/arm_cmplx_conj_f32.c ****      pDst += 8;
  99:Drivers/CMSIS/DSP/Source/ComplexMathFunctions/arm_cmplx_conj_f32.c ****         
 100:Drivers/CMSIS/DSP/Source/ComplexMathFunctions/arm_cmplx_conj_f32.c ****      /* Decrement the loop counter */
 101:Drivers/CMSIS/DSP/Source/ComplexMathFunctions/arm_cmplx_conj_f32.c ****      blkCnt--;
 102:Drivers/CMSIS/DSP/Source/ComplexMathFunctions/arm_cmplx_conj_f32.c ****    }
 103:Drivers/CMSIS/DSP/Source/ComplexMathFunctions/arm_cmplx_conj_f32.c **** 
 104:Drivers/CMSIS/DSP/Source/ComplexMathFunctions/arm_cmplx_conj_f32.c ****    /* Tail */
 105:Drivers/CMSIS/DSP/Source/ComplexMathFunctions/arm_cmplx_conj_f32.c ****    blkCnt = numSamples & 0x3;
 106:Drivers/CMSIS/DSP/Source/ComplexMathFunctions/arm_cmplx_conj_f32.c **** 
 107:Drivers/CMSIS/DSP/Source/ComplexMathFunctions/arm_cmplx_conj_f32.c **** #else
 108:Drivers/CMSIS/DSP/Source/ComplexMathFunctions/arm_cmplx_conj_f32.c **** #if defined (ARM_MATH_LOOPUNROLL)
 109:Drivers/CMSIS/DSP/Source/ComplexMathFunctions/arm_cmplx_conj_f32.c **** 
 110:Drivers/CMSIS/DSP/Source/ComplexMathFunctions/arm_cmplx_conj_f32.c ****   /* Loop unrolling: Compute 4 outputs at a time */
 111:Drivers/CMSIS/DSP/Source/ComplexMathFunctions/arm_cmplx_conj_f32.c ****   blkCnt = numSamples >> 2U;
 112:Drivers/CMSIS/DSP/Source/ComplexMathFunctions/arm_cmplx_conj_f32.c **** 
 113:Drivers/CMSIS/DSP/Source/ComplexMathFunctions/arm_cmplx_conj_f32.c ****   while (blkCnt > 0U)
 114:Drivers/CMSIS/DSP/Source/ComplexMathFunctions/arm_cmplx_conj_f32.c ****   {
 115:Drivers/CMSIS/DSP/Source/ComplexMathFunctions/arm_cmplx_conj_f32.c ****     /* C[0] + jC[1] = A[0]+ j(-1)A[1] */
 116:Drivers/CMSIS/DSP/Source/ComplexMathFunctions/arm_cmplx_conj_f32.c **** 
 117:Drivers/CMSIS/DSP/Source/ComplexMathFunctions/arm_cmplx_conj_f32.c ****     /* Calculate Complex Conjugate and store result in destination buffer. */
 118:Drivers/CMSIS/DSP/Source/ComplexMathFunctions/arm_cmplx_conj_f32.c ****     *pDst++ =  *pSrc++;
 119:Drivers/CMSIS/DSP/Source/ComplexMathFunctions/arm_cmplx_conj_f32.c ****     *pDst++ = -*pSrc++;
 120:Drivers/CMSIS/DSP/Source/ComplexMathFunctions/arm_cmplx_conj_f32.c **** 
 121:Drivers/CMSIS/DSP/Source/ComplexMathFunctions/arm_cmplx_conj_f32.c ****     *pDst++ =  *pSrc++;
 122:Drivers/CMSIS/DSP/Source/ComplexMathFunctions/arm_cmplx_conj_f32.c ****     *pDst++ = -*pSrc++;
 123:Drivers/CMSIS/DSP/Source/ComplexMathFunctions/arm_cmplx_conj_f32.c **** 
 124:Drivers/CMSIS/DSP/Source/ComplexMathFunctions/arm_cmplx_conj_f32.c ****     *pDst++ =  *pSrc++;
 125:Drivers/CMSIS/DSP/Source/ComplexMathFunctions/arm_cmplx_conj_f32.c ****     *pDst++ = -*pSrc++;
 126:Drivers/CMSIS/DSP/Source/ComplexMathFunctions/arm_cmplx_conj_f32.c **** 
 127:Drivers/CMSIS/DSP/Source/ComplexMathFunctions/arm_cmplx_conj_f32.c ****     *pDst++ =  *pSrc++;
 128:Drivers/CMSIS/DSP/Source/ComplexMathFunctions/arm_cmplx_conj_f32.c ****     *pDst++ = -*pSrc++;
 129:Drivers/CMSIS/DSP/Source/ComplexMathFunctions/arm_cmplx_conj_f32.c **** 
 130:Drivers/CMSIS/DSP/Source/ComplexMathFunctions/arm_cmplx_conj_f32.c ****     /* Decrement loop counter */
 131:Drivers/CMSIS/DSP/Source/ComplexMathFunctions/arm_cmplx_conj_f32.c ****     blkCnt--;
 132:Drivers/CMSIS/DSP/Source/ComplexMathFunctions/arm_cmplx_conj_f32.c ****   }
 133:Drivers/CMSIS/DSP/Source/ComplexMathFunctions/arm_cmplx_conj_f32.c **** 
 134:Drivers/CMSIS/DSP/Source/ComplexMathFunctions/arm_cmplx_conj_f32.c ****   /* Loop unrolling: Compute remaining outputs */
 135:Drivers/CMSIS/DSP/Source/ComplexMathFunctions/arm_cmplx_conj_f32.c ****   blkCnt = numSamples % 0x4U;
 136:Drivers/CMSIS/DSP/Source/ComplexMathFunctions/arm_cmplx_conj_f32.c **** 
 137:Drivers/CMSIS/DSP/Source/ComplexMathFunctions/arm_cmplx_conj_f32.c **** #else
ARM GAS  C:\Users\JustE\AppData\Local\Temp\ccpkykRb.s 			page 4


 138:Drivers/CMSIS/DSP/Source/ComplexMathFunctions/arm_cmplx_conj_f32.c **** 
 139:Drivers/CMSIS/DSP/Source/ComplexMathFunctions/arm_cmplx_conj_f32.c ****   /* Initialize blkCnt with number of samples */
 140:Drivers/CMSIS/DSP/Source/ComplexMathFunctions/arm_cmplx_conj_f32.c ****   blkCnt = numSamples;
  36              		.loc 2 140 3 view .LVU2
 141:Drivers/CMSIS/DSP/Source/ComplexMathFunctions/arm_cmplx_conj_f32.c **** 
 142:Drivers/CMSIS/DSP/Source/ComplexMathFunctions/arm_cmplx_conj_f32.c **** #endif /* #if defined (ARM_MATH_LOOPUNROLL) */
 143:Drivers/CMSIS/DSP/Source/ComplexMathFunctions/arm_cmplx_conj_f32.c **** #endif /* #if defined (ARM_MATH_NEON) */
 144:Drivers/CMSIS/DSP/Source/ComplexMathFunctions/arm_cmplx_conj_f32.c **** 
 145:Drivers/CMSIS/DSP/Source/ComplexMathFunctions/arm_cmplx_conj_f32.c ****   while (blkCnt > 0U)
  37              		.loc 2 145 3 view .LVU3
  38              		.loc 2 145 17 view .LVU4
  39 0000 9AB1     		cbz	r2, .L7
  76:Drivers/CMSIS/DSP/Source/ComplexMathFunctions/arm_cmplx_conj_f32.c ****         uint32_t blkCnt;                               /* Loop counter */
  40              		.loc 2 76 1 is_stmt 0 view .LVU5
  41 0002 00B5     		push	{lr}
  42              	.LCFI0:
  43              		.cfi_def_cfa_offset 4
  44              		.cfi_offset 14, -4
  45              	.LVL1:
  46              	.L3:
 146:Drivers/CMSIS/DSP/Source/ComplexMathFunctions/arm_cmplx_conj_f32.c ****   {
 147:Drivers/CMSIS/DSP/Source/ComplexMathFunctions/arm_cmplx_conj_f32.c ****     /* C[0] + jC[1] = A[0]+ j(-1)A[1] */
 148:Drivers/CMSIS/DSP/Source/ComplexMathFunctions/arm_cmplx_conj_f32.c **** 
 149:Drivers/CMSIS/DSP/Source/ComplexMathFunctions/arm_cmplx_conj_f32.c ****     /* Calculate Complex Conjugate and store result in destination buffer. */
 150:Drivers/CMSIS/DSP/Source/ComplexMathFunctions/arm_cmplx_conj_f32.c ****     *pDst++ =  *pSrc++;
  47              		.loc 2 150 5 is_stmt 1 view .LVU6
  48              		.loc 2 150 16 is_stmt 0 view .LVU7
  49 0004 0346     		mov	r3, r0
  50 0006 53F808EB 		ldr	lr, [r3], #8	@ float
  51              		.loc 2 150 13 view .LVU8
  52 000a 8C46     		mov	ip, r1
  53 000c 4CF808EB 		str	lr, [ip], #8	@ float
 151:Drivers/CMSIS/DSP/Source/ComplexMathFunctions/arm_cmplx_conj_f32.c ****     *pDst++ = -*pSrc++;
  54              		.loc 2 151 5 is_stmt 1 view .LVU9
  55              	.LVL2:
  56              		.loc 2 151 16 is_stmt 0 view .LVU10
  57 0010 D0ED017A 		vldr.32	s15, [r0, #4]
  58              	.LVL3:
  59              		.loc 2 151 15 view .LVU11
  60 0014 F1EE677A 		vneg.f32	s15, s15
  61              		.loc 2 151 13 view .LVU12
  62 0018 C1ED017A 		vstr.32	s15, [r1, #4]
 152:Drivers/CMSIS/DSP/Source/ComplexMathFunctions/arm_cmplx_conj_f32.c **** 
 153:Drivers/CMSIS/DSP/Source/ComplexMathFunctions/arm_cmplx_conj_f32.c ****     /* Decrement loop counter */
 154:Drivers/CMSIS/DSP/Source/ComplexMathFunctions/arm_cmplx_conj_f32.c ****     blkCnt--;
  63              		.loc 2 154 5 is_stmt 1 view .LVU13
  64              		.loc 2 154 11 is_stmt 0 view .LVU14
  65 001c 013A     		subs	r2, r2, #1
  66              	.LVL4:
 151:Drivers/CMSIS/DSP/Source/ComplexMathFunctions/arm_cmplx_conj_f32.c ****     *pDst++ = -*pSrc++;
  67              		.loc 2 151 10 view .LVU15
  68 001e 6146     		mov	r1, ip
 151:Drivers/CMSIS/DSP/Source/ComplexMathFunctions/arm_cmplx_conj_f32.c ****     *pDst++ = -*pSrc++;
  69              		.loc 2 151 21 view .LVU16
  70 0020 1846     		mov	r0, r3
 145:Drivers/CMSIS/DSP/Source/ComplexMathFunctions/arm_cmplx_conj_f32.c ****   {
  71              		.loc 2 145 17 is_stmt 1 view .LVU17
ARM GAS  C:\Users\JustE\AppData\Local\Temp\ccpkykRb.s 			page 5


  72 0022 002A     		cmp	r2, #0
  73 0024 EED1     		bne	.L3
 155:Drivers/CMSIS/DSP/Source/ComplexMathFunctions/arm_cmplx_conj_f32.c ****   }
 156:Drivers/CMSIS/DSP/Source/ComplexMathFunctions/arm_cmplx_conj_f32.c **** 
 157:Drivers/CMSIS/DSP/Source/ComplexMathFunctions/arm_cmplx_conj_f32.c **** }
  74              		.loc 2 157 1 is_stmt 0 view .LVU18
  75 0026 5DF804FB 		ldr	pc, [sp], #4
  76              	.LVL5:
  77              	.L7:
  78              	.LCFI1:
  79              		.cfi_def_cfa_offset 0
  80              		.cfi_restore 14
  81              		.loc 2 157 1 view .LVU19
  82 002a 7047     		bx	lr
  83              		.cfi_endproc
  84              	.LFE145:
  86              		.section	.text.arm_cmplx_conj_q15,"ax",%progbits
  87              		.align	1
  88              		.global	arm_cmplx_conj_q15
  89              		.syntax unified
  90              		.thumb
  91              		.thumb_func
  93              	arm_cmplx_conj_q15:
  94              	.LVL6:
  95              	.LFB146:
  96              		.file 3 "Drivers/CMSIS/DSP/Source/ComplexMathFunctions/arm_cmplx_conj_q15.c"
   1:Drivers/CMSIS/DSP/Source/ComplexMathFunctions/arm_cmplx_conj_q15.c **** /* ----------------------------------------------------------------------
   2:Drivers/CMSIS/DSP/Source/ComplexMathFunctions/arm_cmplx_conj_q15.c ****  * Project:      CMSIS DSP Library
   3:Drivers/CMSIS/DSP/Source/ComplexMathFunctions/arm_cmplx_conj_q15.c ****  * Title:        arm_cmplx_conj_q15.c
   4:Drivers/CMSIS/DSP/Source/ComplexMathFunctions/arm_cmplx_conj_q15.c ****  * Description:  Q15 complex conjugate
   5:Drivers/CMSIS/DSP/Source/ComplexMathFunctions/arm_cmplx_conj_q15.c ****  *
   6:Drivers/CMSIS/DSP/Source/ComplexMathFunctions/arm_cmplx_conj_q15.c ****  * $Date:        18. March 2019
   7:Drivers/CMSIS/DSP/Source/ComplexMathFunctions/arm_cmplx_conj_q15.c ****  * $Revision:    V1.6.0
   8:Drivers/CMSIS/DSP/Source/ComplexMathFunctions/arm_cmplx_conj_q15.c ****  *
   9:Drivers/CMSIS/DSP/Source/ComplexMathFunctions/arm_cmplx_conj_q15.c ****  * Target Processor: Cortex-M cores
  10:Drivers/CMSIS/DSP/Source/ComplexMathFunctions/arm_cmplx_conj_q15.c ****  * -------------------------------------------------------------------- */
  11:Drivers/CMSIS/DSP/Source/ComplexMathFunctions/arm_cmplx_conj_q15.c **** /*
  12:Drivers/CMSIS/DSP/Source/ComplexMathFunctions/arm_cmplx_conj_q15.c ****  * Copyright (C) 2010-2019 ARM Limited or its affiliates. All rights reserved.
  13:Drivers/CMSIS/DSP/Source/ComplexMathFunctions/arm_cmplx_conj_q15.c ****  *
  14:Drivers/CMSIS/DSP/Source/ComplexMathFunctions/arm_cmplx_conj_q15.c ****  * SPDX-License-Identifier: Apache-2.0
  15:Drivers/CMSIS/DSP/Source/ComplexMathFunctions/arm_cmplx_conj_q15.c ****  *
  16:Drivers/CMSIS/DSP/Source/ComplexMathFunctions/arm_cmplx_conj_q15.c ****  * Licensed under the Apache License, Version 2.0 (the License); you may
  17:Drivers/CMSIS/DSP/Source/ComplexMathFunctions/arm_cmplx_conj_q15.c ****  * not use this file except in compliance with the License.
  18:Drivers/CMSIS/DSP/Source/ComplexMathFunctions/arm_cmplx_conj_q15.c ****  * You may obtain a copy of the License at
  19:Drivers/CMSIS/DSP/Source/ComplexMathFunctions/arm_cmplx_conj_q15.c ****  *
  20:Drivers/CMSIS/DSP/Source/ComplexMathFunctions/arm_cmplx_conj_q15.c ****  * www.apache.org/licenses/LICENSE-2.0
  21:Drivers/CMSIS/DSP/Source/ComplexMathFunctions/arm_cmplx_conj_q15.c ****  *
  22:Drivers/CMSIS/DSP/Source/ComplexMathFunctions/arm_cmplx_conj_q15.c ****  * Unless required by applicable law or agreed to in writing, software
  23:Drivers/CMSIS/DSP/Source/ComplexMathFunctions/arm_cmplx_conj_q15.c ****  * distributed under the License is distributed on an AS IS BASIS, WITHOUT
  24:Drivers/CMSIS/DSP/Source/ComplexMathFunctions/arm_cmplx_conj_q15.c ****  * WARRANTIES OR CONDITIONS OF ANY KIND, either express or implied.
  25:Drivers/CMSIS/DSP/Source/ComplexMathFunctions/arm_cmplx_conj_q15.c ****  * See the License for the specific language governing permissions and
  26:Drivers/CMSIS/DSP/Source/ComplexMathFunctions/arm_cmplx_conj_q15.c ****  * limitations under the License.
  27:Drivers/CMSIS/DSP/Source/ComplexMathFunctions/arm_cmplx_conj_q15.c ****  */
  28:Drivers/CMSIS/DSP/Source/ComplexMathFunctions/arm_cmplx_conj_q15.c **** 
  29:Drivers/CMSIS/DSP/Source/ComplexMathFunctions/arm_cmplx_conj_q15.c **** #include "arm_math.h"
  30:Drivers/CMSIS/DSP/Source/ComplexMathFunctions/arm_cmplx_conj_q15.c **** 
  31:Drivers/CMSIS/DSP/Source/ComplexMathFunctions/arm_cmplx_conj_q15.c **** /**
ARM GAS  C:\Users\JustE\AppData\Local\Temp\ccpkykRb.s 			page 6


  32:Drivers/CMSIS/DSP/Source/ComplexMathFunctions/arm_cmplx_conj_q15.c ****   @ingroup groupCmplxMath
  33:Drivers/CMSIS/DSP/Source/ComplexMathFunctions/arm_cmplx_conj_q15.c ****  */
  34:Drivers/CMSIS/DSP/Source/ComplexMathFunctions/arm_cmplx_conj_q15.c **** 
  35:Drivers/CMSIS/DSP/Source/ComplexMathFunctions/arm_cmplx_conj_q15.c **** /**
  36:Drivers/CMSIS/DSP/Source/ComplexMathFunctions/arm_cmplx_conj_q15.c ****   @addtogroup cmplx_conj
  37:Drivers/CMSIS/DSP/Source/ComplexMathFunctions/arm_cmplx_conj_q15.c ****   @{
  38:Drivers/CMSIS/DSP/Source/ComplexMathFunctions/arm_cmplx_conj_q15.c ****  */
  39:Drivers/CMSIS/DSP/Source/ComplexMathFunctions/arm_cmplx_conj_q15.c **** 
  40:Drivers/CMSIS/DSP/Source/ComplexMathFunctions/arm_cmplx_conj_q15.c **** /**
  41:Drivers/CMSIS/DSP/Source/ComplexMathFunctions/arm_cmplx_conj_q15.c ****   @brief         Q15 complex conjugate.
  42:Drivers/CMSIS/DSP/Source/ComplexMathFunctions/arm_cmplx_conj_q15.c ****   @param[in]     pSrc        points to the input vector
  43:Drivers/CMSIS/DSP/Source/ComplexMathFunctions/arm_cmplx_conj_q15.c ****   @param[out]    pDst        points to the output vector
  44:Drivers/CMSIS/DSP/Source/ComplexMathFunctions/arm_cmplx_conj_q15.c ****   @param[in]     numSamples  number of samples in each vector
  45:Drivers/CMSIS/DSP/Source/ComplexMathFunctions/arm_cmplx_conj_q15.c ****   @return        none
  46:Drivers/CMSIS/DSP/Source/ComplexMathFunctions/arm_cmplx_conj_q15.c **** 
  47:Drivers/CMSIS/DSP/Source/ComplexMathFunctions/arm_cmplx_conj_q15.c ****   @par           Scaling and Overflow Behavior
  48:Drivers/CMSIS/DSP/Source/ComplexMathFunctions/arm_cmplx_conj_q15.c ****                    The function uses saturating arithmetic.
  49:Drivers/CMSIS/DSP/Source/ComplexMathFunctions/arm_cmplx_conj_q15.c ****                    The Q15 value -1 (0x8000) is saturated to the maximum allowable positive value 0
  50:Drivers/CMSIS/DSP/Source/ComplexMathFunctions/arm_cmplx_conj_q15.c ****  */
  51:Drivers/CMSIS/DSP/Source/ComplexMathFunctions/arm_cmplx_conj_q15.c **** 
  52:Drivers/CMSIS/DSP/Source/ComplexMathFunctions/arm_cmplx_conj_q15.c **** void arm_cmplx_conj_q15(
  53:Drivers/CMSIS/DSP/Source/ComplexMathFunctions/arm_cmplx_conj_q15.c ****   const q15_t * pSrc,
  54:Drivers/CMSIS/DSP/Source/ComplexMathFunctions/arm_cmplx_conj_q15.c ****         q15_t * pDst,
  55:Drivers/CMSIS/DSP/Source/ComplexMathFunctions/arm_cmplx_conj_q15.c ****         uint32_t numSamples)
  56:Drivers/CMSIS/DSP/Source/ComplexMathFunctions/arm_cmplx_conj_q15.c **** {
  97              		.loc 3 56 1 is_stmt 1 view -0
  98              		.cfi_startproc
  99              		@ args = 0, pretend = 0, frame = 0
 100              		@ frame_needed = 0, uses_anonymous_args = 0
  57:Drivers/CMSIS/DSP/Source/ComplexMathFunctions/arm_cmplx_conj_q15.c ****         uint32_t blkCnt;                               /* Loop counter */
 101              		.loc 3 57 9 view .LVU21
  58:Drivers/CMSIS/DSP/Source/ComplexMathFunctions/arm_cmplx_conj_q15.c ****         q31_t in1;                                     /* Temporary input variable */
 102              		.loc 3 58 9 view .LVU22
  59:Drivers/CMSIS/DSP/Source/ComplexMathFunctions/arm_cmplx_conj_q15.c **** 
  60:Drivers/CMSIS/DSP/Source/ComplexMathFunctions/arm_cmplx_conj_q15.c **** #if defined (ARM_MATH_LOOPUNROLL) && defined (ARM_MATH_DSP)
  61:Drivers/CMSIS/DSP/Source/ComplexMathFunctions/arm_cmplx_conj_q15.c ****         q31_t in2, in3, in4;                           /* Temporary input variables */
  62:Drivers/CMSIS/DSP/Source/ComplexMathFunctions/arm_cmplx_conj_q15.c **** #endif
  63:Drivers/CMSIS/DSP/Source/ComplexMathFunctions/arm_cmplx_conj_q15.c **** 
  64:Drivers/CMSIS/DSP/Source/ComplexMathFunctions/arm_cmplx_conj_q15.c **** 
  65:Drivers/CMSIS/DSP/Source/ComplexMathFunctions/arm_cmplx_conj_q15.c **** #if defined (ARM_MATH_LOOPUNROLL)
  66:Drivers/CMSIS/DSP/Source/ComplexMathFunctions/arm_cmplx_conj_q15.c **** 
  67:Drivers/CMSIS/DSP/Source/ComplexMathFunctions/arm_cmplx_conj_q15.c ****   /* Loop unrolling: Compute 4 outputs at a time */
  68:Drivers/CMSIS/DSP/Source/ComplexMathFunctions/arm_cmplx_conj_q15.c ****   blkCnt = numSamples >> 2U;
  69:Drivers/CMSIS/DSP/Source/ComplexMathFunctions/arm_cmplx_conj_q15.c **** 
  70:Drivers/CMSIS/DSP/Source/ComplexMathFunctions/arm_cmplx_conj_q15.c ****   while (blkCnt > 0U)
  71:Drivers/CMSIS/DSP/Source/ComplexMathFunctions/arm_cmplx_conj_q15.c ****   {
  72:Drivers/CMSIS/DSP/Source/ComplexMathFunctions/arm_cmplx_conj_q15.c ****     /* C[0] + jC[1] = A[0]+ j(-1)A[1] */
  73:Drivers/CMSIS/DSP/Source/ComplexMathFunctions/arm_cmplx_conj_q15.c **** 
  74:Drivers/CMSIS/DSP/Source/ComplexMathFunctions/arm_cmplx_conj_q15.c ****     /* Calculate Complex Conjugate and store result in destination buffer. */
  75:Drivers/CMSIS/DSP/Source/ComplexMathFunctions/arm_cmplx_conj_q15.c **** 
  76:Drivers/CMSIS/DSP/Source/ComplexMathFunctions/arm_cmplx_conj_q15.c ****     #if defined (ARM_MATH_DSP)
  77:Drivers/CMSIS/DSP/Source/ComplexMathFunctions/arm_cmplx_conj_q15.c ****     in1 = read_q15x2_ia ((q15_t **) &pSrc);
  78:Drivers/CMSIS/DSP/Source/ComplexMathFunctions/arm_cmplx_conj_q15.c ****     in2 = read_q15x2_ia ((q15_t **) &pSrc);
  79:Drivers/CMSIS/DSP/Source/ComplexMathFunctions/arm_cmplx_conj_q15.c ****     in3 = read_q15x2_ia ((q15_t **) &pSrc);
  80:Drivers/CMSIS/DSP/Source/ComplexMathFunctions/arm_cmplx_conj_q15.c ****     in4 = read_q15x2_ia ((q15_t **) &pSrc);
  81:Drivers/CMSIS/DSP/Source/ComplexMathFunctions/arm_cmplx_conj_q15.c **** 
  82:Drivers/CMSIS/DSP/Source/ComplexMathFunctions/arm_cmplx_conj_q15.c **** #ifndef ARM_MATH_BIG_ENDIAN
ARM GAS  C:\Users\JustE\AppData\Local\Temp\ccpkykRb.s 			page 7


  83:Drivers/CMSIS/DSP/Source/ComplexMathFunctions/arm_cmplx_conj_q15.c ****     in1 = __QASX(0, in1);
  84:Drivers/CMSIS/DSP/Source/ComplexMathFunctions/arm_cmplx_conj_q15.c ****     in2 = __QASX(0, in2);
  85:Drivers/CMSIS/DSP/Source/ComplexMathFunctions/arm_cmplx_conj_q15.c ****     in3 = __QASX(0, in3);
  86:Drivers/CMSIS/DSP/Source/ComplexMathFunctions/arm_cmplx_conj_q15.c ****     in4 = __QASX(0, in4);
  87:Drivers/CMSIS/DSP/Source/ComplexMathFunctions/arm_cmplx_conj_q15.c **** #else
  88:Drivers/CMSIS/DSP/Source/ComplexMathFunctions/arm_cmplx_conj_q15.c ****     in1 = __QSAX(0, in1);
  89:Drivers/CMSIS/DSP/Source/ComplexMathFunctions/arm_cmplx_conj_q15.c ****     in2 = __QSAX(0, in2);
  90:Drivers/CMSIS/DSP/Source/ComplexMathFunctions/arm_cmplx_conj_q15.c ****     in3 = __QSAX(0, in3);
  91:Drivers/CMSIS/DSP/Source/ComplexMathFunctions/arm_cmplx_conj_q15.c ****     in4 = __QSAX(0, in4);
  92:Drivers/CMSIS/DSP/Source/ComplexMathFunctions/arm_cmplx_conj_q15.c **** #endif /* #ifndef ARM_MATH_BIG_ENDIAN */
  93:Drivers/CMSIS/DSP/Source/ComplexMathFunctions/arm_cmplx_conj_q15.c **** 
  94:Drivers/CMSIS/DSP/Source/ComplexMathFunctions/arm_cmplx_conj_q15.c ****     in1 = ((uint32_t) in1 >> 16) | ((uint32_t) in1 << 16);
  95:Drivers/CMSIS/DSP/Source/ComplexMathFunctions/arm_cmplx_conj_q15.c ****     in2 = ((uint32_t) in2 >> 16) | ((uint32_t) in2 << 16);
  96:Drivers/CMSIS/DSP/Source/ComplexMathFunctions/arm_cmplx_conj_q15.c ****     in3 = ((uint32_t) in3 >> 16) | ((uint32_t) in3 << 16);
  97:Drivers/CMSIS/DSP/Source/ComplexMathFunctions/arm_cmplx_conj_q15.c ****     in4 = ((uint32_t) in4 >> 16) | ((uint32_t) in4 << 16);
  98:Drivers/CMSIS/DSP/Source/ComplexMathFunctions/arm_cmplx_conj_q15.c **** 
  99:Drivers/CMSIS/DSP/Source/ComplexMathFunctions/arm_cmplx_conj_q15.c ****     write_q15x2_ia (&pDst, in1);
 100:Drivers/CMSIS/DSP/Source/ComplexMathFunctions/arm_cmplx_conj_q15.c ****     write_q15x2_ia (&pDst, in2);
 101:Drivers/CMSIS/DSP/Source/ComplexMathFunctions/arm_cmplx_conj_q15.c ****     write_q15x2_ia (&pDst, in3);
 102:Drivers/CMSIS/DSP/Source/ComplexMathFunctions/arm_cmplx_conj_q15.c ****     write_q15x2_ia (&pDst, in4);
 103:Drivers/CMSIS/DSP/Source/ComplexMathFunctions/arm_cmplx_conj_q15.c **** #else
 104:Drivers/CMSIS/DSP/Source/ComplexMathFunctions/arm_cmplx_conj_q15.c ****     *pDst++ =  *pSrc++;
 105:Drivers/CMSIS/DSP/Source/ComplexMathFunctions/arm_cmplx_conj_q15.c ****     in1 = *pSrc++;
 106:Drivers/CMSIS/DSP/Source/ComplexMathFunctions/arm_cmplx_conj_q15.c ****     *pDst++ = (in1 == (q15_t) 0x8000) ? (q15_t) 0x7fff : -in1;
 107:Drivers/CMSIS/DSP/Source/ComplexMathFunctions/arm_cmplx_conj_q15.c **** 
 108:Drivers/CMSIS/DSP/Source/ComplexMathFunctions/arm_cmplx_conj_q15.c ****     *pDst++ =  *pSrc++;
 109:Drivers/CMSIS/DSP/Source/ComplexMathFunctions/arm_cmplx_conj_q15.c ****     in1 = *pSrc++;
 110:Drivers/CMSIS/DSP/Source/ComplexMathFunctions/arm_cmplx_conj_q15.c ****     *pDst++ = (in1 == (q15_t) 0x8000) ? (q15_t) 0x7fff : -in1;
 111:Drivers/CMSIS/DSP/Source/ComplexMathFunctions/arm_cmplx_conj_q15.c **** 
 112:Drivers/CMSIS/DSP/Source/ComplexMathFunctions/arm_cmplx_conj_q15.c ****     *pDst++ =  *pSrc++;
 113:Drivers/CMSIS/DSP/Source/ComplexMathFunctions/arm_cmplx_conj_q15.c ****     in1 = *pSrc++;
 114:Drivers/CMSIS/DSP/Source/ComplexMathFunctions/arm_cmplx_conj_q15.c ****     *pDst++ = (in1 == (q15_t) 0x8000) ? (q15_t) 0x7fff : -in1;
 115:Drivers/CMSIS/DSP/Source/ComplexMathFunctions/arm_cmplx_conj_q15.c **** 
 116:Drivers/CMSIS/DSP/Source/ComplexMathFunctions/arm_cmplx_conj_q15.c ****     *pDst++ =  *pSrc++;
 117:Drivers/CMSIS/DSP/Source/ComplexMathFunctions/arm_cmplx_conj_q15.c ****     in1 = *pSrc++;
 118:Drivers/CMSIS/DSP/Source/ComplexMathFunctions/arm_cmplx_conj_q15.c ****     *pDst++ = (in1 == (q15_t) 0x8000) ? (q15_t) 0x7fff : -in1;
 119:Drivers/CMSIS/DSP/Source/ComplexMathFunctions/arm_cmplx_conj_q15.c **** 
 120:Drivers/CMSIS/DSP/Source/ComplexMathFunctions/arm_cmplx_conj_q15.c **** #endif /* #if defined (ARM_MATH_DSP) */
 121:Drivers/CMSIS/DSP/Source/ComplexMathFunctions/arm_cmplx_conj_q15.c **** 
 122:Drivers/CMSIS/DSP/Source/ComplexMathFunctions/arm_cmplx_conj_q15.c ****     /* Decrement loop counter */
 123:Drivers/CMSIS/DSP/Source/ComplexMathFunctions/arm_cmplx_conj_q15.c ****     blkCnt--;
 124:Drivers/CMSIS/DSP/Source/ComplexMathFunctions/arm_cmplx_conj_q15.c ****   }
 125:Drivers/CMSIS/DSP/Source/ComplexMathFunctions/arm_cmplx_conj_q15.c **** 
 126:Drivers/CMSIS/DSP/Source/ComplexMathFunctions/arm_cmplx_conj_q15.c ****   /* Loop unrolling: Compute remaining outputs */
 127:Drivers/CMSIS/DSP/Source/ComplexMathFunctions/arm_cmplx_conj_q15.c ****   blkCnt = numSamples % 0x4U;
 128:Drivers/CMSIS/DSP/Source/ComplexMathFunctions/arm_cmplx_conj_q15.c **** 
 129:Drivers/CMSIS/DSP/Source/ComplexMathFunctions/arm_cmplx_conj_q15.c **** #else
 130:Drivers/CMSIS/DSP/Source/ComplexMathFunctions/arm_cmplx_conj_q15.c **** 
 131:Drivers/CMSIS/DSP/Source/ComplexMathFunctions/arm_cmplx_conj_q15.c ****   /* Initialize blkCnt with number of samples */
 132:Drivers/CMSIS/DSP/Source/ComplexMathFunctions/arm_cmplx_conj_q15.c ****   blkCnt = numSamples;
 103              		.loc 3 132 3 view .LVU23
 133:Drivers/CMSIS/DSP/Source/ComplexMathFunctions/arm_cmplx_conj_q15.c **** 
 134:Drivers/CMSIS/DSP/Source/ComplexMathFunctions/arm_cmplx_conj_q15.c **** #endif /* #if defined (ARM_MATH_LOOPUNROLL) */
 135:Drivers/CMSIS/DSP/Source/ComplexMathFunctions/arm_cmplx_conj_q15.c **** 
 136:Drivers/CMSIS/DSP/Source/ComplexMathFunctions/arm_cmplx_conj_q15.c ****   while (blkCnt > 0U)
 104              		.loc 3 136 3 view .LVU24
 105              		.loc 3 136 17 view .LVU25
ARM GAS  C:\Users\JustE\AppData\Local\Temp\ccpkykRb.s 			page 8


 106 0000 9AB1     		cbz	r2, .L14
  56:Drivers/CMSIS/DSP/Source/ComplexMathFunctions/arm_cmplx_conj_q15.c ****         uint32_t blkCnt;                               /* Loop counter */
 107              		.loc 3 56 1 is_stmt 0 view .LVU26
 108 0002 00B5     		push	{lr}
 109              	.LCFI2:
 110              		.cfi_def_cfa_offset 4
 111              		.cfi_offset 14, -4
 112              	.LVL7:
 113              	.L10:
 137:Drivers/CMSIS/DSP/Source/ComplexMathFunctions/arm_cmplx_conj_q15.c ****   {
 138:Drivers/CMSIS/DSP/Source/ComplexMathFunctions/arm_cmplx_conj_q15.c ****     /* C[0] + jC[1] = A[0]+ j(-1)A[1] */
 139:Drivers/CMSIS/DSP/Source/ComplexMathFunctions/arm_cmplx_conj_q15.c **** 
 140:Drivers/CMSIS/DSP/Source/ComplexMathFunctions/arm_cmplx_conj_q15.c ****     /* Calculate Complex Conjugate and store result in destination buffer. */
 141:Drivers/CMSIS/DSP/Source/ComplexMathFunctions/arm_cmplx_conj_q15.c ****     *pDst++ =  *pSrc++;
 114              		.loc 3 141 5 is_stmt 1 view .LVU27
 115              		.loc 3 141 16 is_stmt 0 view .LVU28
 116 0004 8446     		mov	ip, r0
 117 0006 3CF9043B 		ldrsh	r3, [ip], #4
 118              		.loc 3 141 13 view .LVU29
 119 000a 8E46     		mov	lr, r1
 120 000c 2EF8043B 		strh	r3, [lr], #4	@ movhi
 142:Drivers/CMSIS/DSP/Source/ComplexMathFunctions/arm_cmplx_conj_q15.c ****     in1 = *pSrc++;
 121              		.loc 3 142 5 is_stmt 1 view .LVU30
 122              	.LVL8:
 123              		.loc 3 142 11 is_stmt 0 view .LVU31
 124 0010 B0F90230 		ldrsh	r3, [r0, #2]
 125              	.LVL9:
 143:Drivers/CMSIS/DSP/Source/ComplexMathFunctions/arm_cmplx_conj_q15.c **** #if defined (ARM_MATH_DSP)
 144:Drivers/CMSIS/DSP/Source/ComplexMathFunctions/arm_cmplx_conj_q15.c ****     *pDst++ = __SSAT(-in1, 16);
 126              		.loc 3 144 5 is_stmt 1 view .LVU32
 127              	.LBB14:
 128              		.loc 3 144 15 view .LVU33
 129 0014 5B42     		rsbs	r3, r3, #0
 130              	.LVL10:
 131              		.loc 3 144 15 view .LVU34
 132              		.syntax unified
 133              	@ 144 "Drivers/CMSIS/DSP/Source/ComplexMathFunctions/arm_cmplx_conj_q15.c" 1
 134 0016 03F30F03 		ssat r3, #16, r3
 135              	@ 0 "" 2
 136              	.LVL11:
 137              		.loc 3 144 15 view .LVU35
 138              		.loc 3 144 15 is_stmt 0 view .LVU36
 139              		.thumb
 140              		.syntax unified
 141              	.LBE14:
 142              		.loc 3 144 13 view .LVU37
 143 001a 4B80     		strh	r3, [r1, #2]	@ movhi
 144              	.LVL12:
 145:Drivers/CMSIS/DSP/Source/ComplexMathFunctions/arm_cmplx_conj_q15.c **** #else
 146:Drivers/CMSIS/DSP/Source/ComplexMathFunctions/arm_cmplx_conj_q15.c ****     *pDst++ = (in1 == (q15_t) 0x8000) ? (q15_t) 0x7fff : -in1;
 147:Drivers/CMSIS/DSP/Source/ComplexMathFunctions/arm_cmplx_conj_q15.c **** #endif
 148:Drivers/CMSIS/DSP/Source/ComplexMathFunctions/arm_cmplx_conj_q15.c **** 
 149:Drivers/CMSIS/DSP/Source/ComplexMathFunctions/arm_cmplx_conj_q15.c ****     /* Decrement loop counter */
 150:Drivers/CMSIS/DSP/Source/ComplexMathFunctions/arm_cmplx_conj_q15.c ****     blkCnt--;
 145              		.loc 3 150 5 is_stmt 1 view .LVU38
 146              		.loc 3 150 11 is_stmt 0 view .LVU39
 147 001c 013A     		subs	r2, r2, #1
ARM GAS  C:\Users\JustE\AppData\Local\Temp\ccpkykRb.s 			page 9


 148              	.LVL13:
 144:Drivers/CMSIS/DSP/Source/ComplexMathFunctions/arm_cmplx_conj_q15.c **** #else
 149              		.loc 3 144 10 view .LVU40
 150 001e 7146     		mov	r1, lr
 142:Drivers/CMSIS/DSP/Source/ComplexMathFunctions/arm_cmplx_conj_q15.c **** #if defined (ARM_MATH_DSP)
 151              		.loc 3 142 16 view .LVU41
 152 0020 6046     		mov	r0, ip
 136:Drivers/CMSIS/DSP/Source/ComplexMathFunctions/arm_cmplx_conj_q15.c ****   {
 153              		.loc 3 136 17 is_stmt 1 view .LVU42
 154 0022 002A     		cmp	r2, #0
 155 0024 EED1     		bne	.L10
 151:Drivers/CMSIS/DSP/Source/ComplexMathFunctions/arm_cmplx_conj_q15.c ****   }
 152:Drivers/CMSIS/DSP/Source/ComplexMathFunctions/arm_cmplx_conj_q15.c **** 
 153:Drivers/CMSIS/DSP/Source/ComplexMathFunctions/arm_cmplx_conj_q15.c **** }
 156              		.loc 3 153 1 is_stmt 0 view .LVU43
 157 0026 5DF804FB 		ldr	pc, [sp], #4
 158              	.LVL14:
 159              	.L14:
 160              	.LCFI3:
 161              		.cfi_def_cfa_offset 0
 162              		.cfi_restore 14
 163              		.loc 3 153 1 view .LVU44
 164 002a 7047     		bx	lr
 165              		.cfi_endproc
 166              	.LFE146:
 168              		.section	.text.arm_cmplx_conj_q31,"ax",%progbits
 169              		.align	1
 170              		.global	arm_cmplx_conj_q31
 171              		.syntax unified
 172              		.thumb
 173              		.thumb_func
 175              	arm_cmplx_conj_q31:
 176              	.LVL15:
 177              	.LFB147:
 178              		.file 4 "Drivers/CMSIS/DSP/Source/ComplexMathFunctions/arm_cmplx_conj_q31.c"
   1:Drivers/CMSIS/DSP/Source/ComplexMathFunctions/arm_cmplx_conj_q31.c **** /* ----------------------------------------------------------------------
   2:Drivers/CMSIS/DSP/Source/ComplexMathFunctions/arm_cmplx_conj_q31.c ****  * Project:      CMSIS DSP Library
   3:Drivers/CMSIS/DSP/Source/ComplexMathFunctions/arm_cmplx_conj_q31.c ****  * Title:        arm_cmplx_conj_q31.c
   4:Drivers/CMSIS/DSP/Source/ComplexMathFunctions/arm_cmplx_conj_q31.c ****  * Description:  Q31 complex conjugate
   5:Drivers/CMSIS/DSP/Source/ComplexMathFunctions/arm_cmplx_conj_q31.c ****  *
   6:Drivers/CMSIS/DSP/Source/ComplexMathFunctions/arm_cmplx_conj_q31.c ****  * $Date:        18. March 2019
   7:Drivers/CMSIS/DSP/Source/ComplexMathFunctions/arm_cmplx_conj_q31.c ****  * $Revision:    V1.6.0
   8:Drivers/CMSIS/DSP/Source/ComplexMathFunctions/arm_cmplx_conj_q31.c ****  *
   9:Drivers/CMSIS/DSP/Source/ComplexMathFunctions/arm_cmplx_conj_q31.c ****  * Target Processor: Cortex-M cores
  10:Drivers/CMSIS/DSP/Source/ComplexMathFunctions/arm_cmplx_conj_q31.c ****  * -------------------------------------------------------------------- */
  11:Drivers/CMSIS/DSP/Source/ComplexMathFunctions/arm_cmplx_conj_q31.c **** /*
  12:Drivers/CMSIS/DSP/Source/ComplexMathFunctions/arm_cmplx_conj_q31.c ****  * Copyright (C) 2010-2019 ARM Limited or its affiliates. All rights reserved.
  13:Drivers/CMSIS/DSP/Source/ComplexMathFunctions/arm_cmplx_conj_q31.c ****  *
  14:Drivers/CMSIS/DSP/Source/ComplexMathFunctions/arm_cmplx_conj_q31.c ****  * SPDX-License-Identifier: Apache-2.0
  15:Drivers/CMSIS/DSP/Source/ComplexMathFunctions/arm_cmplx_conj_q31.c ****  *
  16:Drivers/CMSIS/DSP/Source/ComplexMathFunctions/arm_cmplx_conj_q31.c ****  * Licensed under the Apache License, Version 2.0 (the License); you may
  17:Drivers/CMSIS/DSP/Source/ComplexMathFunctions/arm_cmplx_conj_q31.c ****  * not use this file except in compliance with the License.
  18:Drivers/CMSIS/DSP/Source/ComplexMathFunctions/arm_cmplx_conj_q31.c ****  * You may obtain a copy of the License at
  19:Drivers/CMSIS/DSP/Source/ComplexMathFunctions/arm_cmplx_conj_q31.c ****  *
  20:Drivers/CMSIS/DSP/Source/ComplexMathFunctions/arm_cmplx_conj_q31.c ****  * www.apache.org/licenses/LICENSE-2.0
  21:Drivers/CMSIS/DSP/Source/ComplexMathFunctions/arm_cmplx_conj_q31.c ****  *
  22:Drivers/CMSIS/DSP/Source/ComplexMathFunctions/arm_cmplx_conj_q31.c ****  * Unless required by applicable law or agreed to in writing, software
ARM GAS  C:\Users\JustE\AppData\Local\Temp\ccpkykRb.s 			page 10


  23:Drivers/CMSIS/DSP/Source/ComplexMathFunctions/arm_cmplx_conj_q31.c ****  * distributed under the License is distributed on an AS IS BASIS, WITHOUT
  24:Drivers/CMSIS/DSP/Source/ComplexMathFunctions/arm_cmplx_conj_q31.c ****  * WARRANTIES OR CONDITIONS OF ANY KIND, either express or implied.
  25:Drivers/CMSIS/DSP/Source/ComplexMathFunctions/arm_cmplx_conj_q31.c ****  * See the License for the specific language governing permissions and
  26:Drivers/CMSIS/DSP/Source/ComplexMathFunctions/arm_cmplx_conj_q31.c ****  * limitations under the License.
  27:Drivers/CMSIS/DSP/Source/ComplexMathFunctions/arm_cmplx_conj_q31.c ****  */
  28:Drivers/CMSIS/DSP/Source/ComplexMathFunctions/arm_cmplx_conj_q31.c **** 
  29:Drivers/CMSIS/DSP/Source/ComplexMathFunctions/arm_cmplx_conj_q31.c **** #include "arm_math.h"
  30:Drivers/CMSIS/DSP/Source/ComplexMathFunctions/arm_cmplx_conj_q31.c **** 
  31:Drivers/CMSIS/DSP/Source/ComplexMathFunctions/arm_cmplx_conj_q31.c **** /**
  32:Drivers/CMSIS/DSP/Source/ComplexMathFunctions/arm_cmplx_conj_q31.c ****   @ingroup groupCmplxMath
  33:Drivers/CMSIS/DSP/Source/ComplexMathFunctions/arm_cmplx_conj_q31.c ****  */
  34:Drivers/CMSIS/DSP/Source/ComplexMathFunctions/arm_cmplx_conj_q31.c **** 
  35:Drivers/CMSIS/DSP/Source/ComplexMathFunctions/arm_cmplx_conj_q31.c **** /**
  36:Drivers/CMSIS/DSP/Source/ComplexMathFunctions/arm_cmplx_conj_q31.c ****   @addtogroup cmplx_conj
  37:Drivers/CMSIS/DSP/Source/ComplexMathFunctions/arm_cmplx_conj_q31.c ****   @{
  38:Drivers/CMSIS/DSP/Source/ComplexMathFunctions/arm_cmplx_conj_q31.c ****  */
  39:Drivers/CMSIS/DSP/Source/ComplexMathFunctions/arm_cmplx_conj_q31.c **** 
  40:Drivers/CMSIS/DSP/Source/ComplexMathFunctions/arm_cmplx_conj_q31.c **** /**
  41:Drivers/CMSIS/DSP/Source/ComplexMathFunctions/arm_cmplx_conj_q31.c ****   @brief         Q31 complex conjugate.
  42:Drivers/CMSIS/DSP/Source/ComplexMathFunctions/arm_cmplx_conj_q31.c ****   @param[in]     pSrc        points to the input vector
  43:Drivers/CMSIS/DSP/Source/ComplexMathFunctions/arm_cmplx_conj_q31.c ****   @param[out]    pDst        points to the output vector
  44:Drivers/CMSIS/DSP/Source/ComplexMathFunctions/arm_cmplx_conj_q31.c ****   @param[in]     numSamples  number of samples in each vector
  45:Drivers/CMSIS/DSP/Source/ComplexMathFunctions/arm_cmplx_conj_q31.c ****   @return        none
  46:Drivers/CMSIS/DSP/Source/ComplexMathFunctions/arm_cmplx_conj_q31.c **** 
  47:Drivers/CMSIS/DSP/Source/ComplexMathFunctions/arm_cmplx_conj_q31.c ****   @par           Scaling and Overflow Behavior
  48:Drivers/CMSIS/DSP/Source/ComplexMathFunctions/arm_cmplx_conj_q31.c ****                    The function uses saturating arithmetic.
  49:Drivers/CMSIS/DSP/Source/ComplexMathFunctions/arm_cmplx_conj_q31.c ****                    The Q31 value -1 (0x80000000) is saturated to the maximum allowable positive val
  50:Drivers/CMSIS/DSP/Source/ComplexMathFunctions/arm_cmplx_conj_q31.c ****  */
  51:Drivers/CMSIS/DSP/Source/ComplexMathFunctions/arm_cmplx_conj_q31.c **** 
  52:Drivers/CMSIS/DSP/Source/ComplexMathFunctions/arm_cmplx_conj_q31.c **** void arm_cmplx_conj_q31(
  53:Drivers/CMSIS/DSP/Source/ComplexMathFunctions/arm_cmplx_conj_q31.c ****   const q31_t * pSrc,
  54:Drivers/CMSIS/DSP/Source/ComplexMathFunctions/arm_cmplx_conj_q31.c ****         q31_t * pDst,
  55:Drivers/CMSIS/DSP/Source/ComplexMathFunctions/arm_cmplx_conj_q31.c ****         uint32_t numSamples)
  56:Drivers/CMSIS/DSP/Source/ComplexMathFunctions/arm_cmplx_conj_q31.c **** {
 179              		.loc 4 56 1 is_stmt 1 view -0
 180              		.cfi_startproc
 181              		@ args = 0, pretend = 0, frame = 0
 182              		@ frame_needed = 0, uses_anonymous_args = 0
 183              		@ link register save eliminated.
  57:Drivers/CMSIS/DSP/Source/ComplexMathFunctions/arm_cmplx_conj_q31.c ****         uint32_t blkCnt;                               /* Loop counter */
 184              		.loc 4 57 9 view .LVU46
  58:Drivers/CMSIS/DSP/Source/ComplexMathFunctions/arm_cmplx_conj_q31.c ****         q31_t in;                                      /* Temporary input variable */
 185              		.loc 4 58 9 view .LVU47
  59:Drivers/CMSIS/DSP/Source/ComplexMathFunctions/arm_cmplx_conj_q31.c **** 
  60:Drivers/CMSIS/DSP/Source/ComplexMathFunctions/arm_cmplx_conj_q31.c **** #if defined (ARM_MATH_LOOPUNROLL)
  61:Drivers/CMSIS/DSP/Source/ComplexMathFunctions/arm_cmplx_conj_q31.c **** 
  62:Drivers/CMSIS/DSP/Source/ComplexMathFunctions/arm_cmplx_conj_q31.c ****   /* Loop unrolling: Compute 4 outputs at a time */
  63:Drivers/CMSIS/DSP/Source/ComplexMathFunctions/arm_cmplx_conj_q31.c ****   blkCnt = numSamples >> 2U;
  64:Drivers/CMSIS/DSP/Source/ComplexMathFunctions/arm_cmplx_conj_q31.c **** 
  65:Drivers/CMSIS/DSP/Source/ComplexMathFunctions/arm_cmplx_conj_q31.c ****   while (blkCnt > 0U)
  66:Drivers/CMSIS/DSP/Source/ComplexMathFunctions/arm_cmplx_conj_q31.c ****   {
  67:Drivers/CMSIS/DSP/Source/ComplexMathFunctions/arm_cmplx_conj_q31.c ****     /* C[0] + jC[1] = A[0]+ j(-1)A[1] */
  68:Drivers/CMSIS/DSP/Source/ComplexMathFunctions/arm_cmplx_conj_q31.c **** 
  69:Drivers/CMSIS/DSP/Source/ComplexMathFunctions/arm_cmplx_conj_q31.c ****     /* Calculate Complex Conjugate and store result in destination buffer. */
  70:Drivers/CMSIS/DSP/Source/ComplexMathFunctions/arm_cmplx_conj_q31.c ****     *pDst++ =  *pSrc++;
  71:Drivers/CMSIS/DSP/Source/ComplexMathFunctions/arm_cmplx_conj_q31.c ****     in = *pSrc++;
  72:Drivers/CMSIS/DSP/Source/ComplexMathFunctions/arm_cmplx_conj_q31.c **** #if defined (ARM_MATH_DSP)
ARM GAS  C:\Users\JustE\AppData\Local\Temp\ccpkykRb.s 			page 11


  73:Drivers/CMSIS/DSP/Source/ComplexMathFunctions/arm_cmplx_conj_q31.c ****     *pDst++ = __QSUB(0, in);
  74:Drivers/CMSIS/DSP/Source/ComplexMathFunctions/arm_cmplx_conj_q31.c **** #else
  75:Drivers/CMSIS/DSP/Source/ComplexMathFunctions/arm_cmplx_conj_q31.c ****     *pDst++ = (in == INT32_MIN) ? INT32_MAX : -in;
  76:Drivers/CMSIS/DSP/Source/ComplexMathFunctions/arm_cmplx_conj_q31.c **** #endif
  77:Drivers/CMSIS/DSP/Source/ComplexMathFunctions/arm_cmplx_conj_q31.c **** 
  78:Drivers/CMSIS/DSP/Source/ComplexMathFunctions/arm_cmplx_conj_q31.c ****     *pDst++ =  *pSrc++;
  79:Drivers/CMSIS/DSP/Source/ComplexMathFunctions/arm_cmplx_conj_q31.c ****     in =  *pSrc++;
  80:Drivers/CMSIS/DSP/Source/ComplexMathFunctions/arm_cmplx_conj_q31.c **** #if defined (ARM_MATH_DSP)
  81:Drivers/CMSIS/DSP/Source/ComplexMathFunctions/arm_cmplx_conj_q31.c ****     *pDst++ = __QSUB(0, in);
  82:Drivers/CMSIS/DSP/Source/ComplexMathFunctions/arm_cmplx_conj_q31.c **** #else
  83:Drivers/CMSIS/DSP/Source/ComplexMathFunctions/arm_cmplx_conj_q31.c ****     *pDst++ = (in == INT32_MIN) ? INT32_MAX : -in;
  84:Drivers/CMSIS/DSP/Source/ComplexMathFunctions/arm_cmplx_conj_q31.c **** #endif
  85:Drivers/CMSIS/DSP/Source/ComplexMathFunctions/arm_cmplx_conj_q31.c **** 
  86:Drivers/CMSIS/DSP/Source/ComplexMathFunctions/arm_cmplx_conj_q31.c ****     *pDst++ =  *pSrc++;
  87:Drivers/CMSIS/DSP/Source/ComplexMathFunctions/arm_cmplx_conj_q31.c ****     in = *pSrc++;
  88:Drivers/CMSIS/DSP/Source/ComplexMathFunctions/arm_cmplx_conj_q31.c **** #if defined (ARM_MATH_DSP)
  89:Drivers/CMSIS/DSP/Source/ComplexMathFunctions/arm_cmplx_conj_q31.c ****     *pDst++ = __QSUB(0, in);
  90:Drivers/CMSIS/DSP/Source/ComplexMathFunctions/arm_cmplx_conj_q31.c **** #else
  91:Drivers/CMSIS/DSP/Source/ComplexMathFunctions/arm_cmplx_conj_q31.c ****     *pDst++ = (in == INT32_MIN) ? INT32_MAX : -in;
  92:Drivers/CMSIS/DSP/Source/ComplexMathFunctions/arm_cmplx_conj_q31.c **** #endif
  93:Drivers/CMSIS/DSP/Source/ComplexMathFunctions/arm_cmplx_conj_q31.c **** 
  94:Drivers/CMSIS/DSP/Source/ComplexMathFunctions/arm_cmplx_conj_q31.c ****     *pDst++ =  *pSrc++;
  95:Drivers/CMSIS/DSP/Source/ComplexMathFunctions/arm_cmplx_conj_q31.c ****     in = *pSrc++;
  96:Drivers/CMSIS/DSP/Source/ComplexMathFunctions/arm_cmplx_conj_q31.c **** #if defined (ARM_MATH_DSP)
  97:Drivers/CMSIS/DSP/Source/ComplexMathFunctions/arm_cmplx_conj_q31.c ****     *pDst++ = __QSUB(0, in);
  98:Drivers/CMSIS/DSP/Source/ComplexMathFunctions/arm_cmplx_conj_q31.c **** #else
  99:Drivers/CMSIS/DSP/Source/ComplexMathFunctions/arm_cmplx_conj_q31.c ****     *pDst++ = (in == INT32_MIN) ? INT32_MAX : -in;
 100:Drivers/CMSIS/DSP/Source/ComplexMathFunctions/arm_cmplx_conj_q31.c **** #endif
 101:Drivers/CMSIS/DSP/Source/ComplexMathFunctions/arm_cmplx_conj_q31.c **** 
 102:Drivers/CMSIS/DSP/Source/ComplexMathFunctions/arm_cmplx_conj_q31.c ****     /* Decrement loop counter */
 103:Drivers/CMSIS/DSP/Source/ComplexMathFunctions/arm_cmplx_conj_q31.c ****     blkCnt--;
 104:Drivers/CMSIS/DSP/Source/ComplexMathFunctions/arm_cmplx_conj_q31.c ****   }
 105:Drivers/CMSIS/DSP/Source/ComplexMathFunctions/arm_cmplx_conj_q31.c **** 
 106:Drivers/CMSIS/DSP/Source/ComplexMathFunctions/arm_cmplx_conj_q31.c ****   /* Loop unrolling: Compute remaining outputs */
 107:Drivers/CMSIS/DSP/Source/ComplexMathFunctions/arm_cmplx_conj_q31.c ****   blkCnt = numSamples % 0x4U;
 108:Drivers/CMSIS/DSP/Source/ComplexMathFunctions/arm_cmplx_conj_q31.c **** 
 109:Drivers/CMSIS/DSP/Source/ComplexMathFunctions/arm_cmplx_conj_q31.c **** #else
 110:Drivers/CMSIS/DSP/Source/ComplexMathFunctions/arm_cmplx_conj_q31.c **** 
 111:Drivers/CMSIS/DSP/Source/ComplexMathFunctions/arm_cmplx_conj_q31.c ****   /* Initialize blkCnt with number of samples */
 112:Drivers/CMSIS/DSP/Source/ComplexMathFunctions/arm_cmplx_conj_q31.c ****   blkCnt = numSamples;
 186              		.loc 4 112 3 view .LVU48
 113:Drivers/CMSIS/DSP/Source/ComplexMathFunctions/arm_cmplx_conj_q31.c **** 
 114:Drivers/CMSIS/DSP/Source/ComplexMathFunctions/arm_cmplx_conj_q31.c **** #endif /* #if defined (ARM_MATH_LOOPUNROLL) */
 115:Drivers/CMSIS/DSP/Source/ComplexMathFunctions/arm_cmplx_conj_q31.c **** 
 116:Drivers/CMSIS/DSP/Source/ComplexMathFunctions/arm_cmplx_conj_q31.c ****   while (blkCnt > 0U)
 187              		.loc 4 116 3 view .LVU49
 188              		.loc 4 116 17 view .LVU50
 189 0000 9AB1     		cbz	r2, .L21
  56:Drivers/CMSIS/DSP/Source/ComplexMathFunctions/arm_cmplx_conj_q31.c ****         uint32_t blkCnt;                               /* Loop counter */
 190              		.loc 4 56 1 is_stmt 0 view .LVU51
 191 0002 10B4     		push	{r4}
 192              	.LCFI4:
 193              		.cfi_def_cfa_offset 4
 194              		.cfi_offset 4, -4
 195              	.LVL16:
 196              	.L17:
 117:Drivers/CMSIS/DSP/Source/ComplexMathFunctions/arm_cmplx_conj_q31.c ****   {
ARM GAS  C:\Users\JustE\AppData\Local\Temp\ccpkykRb.s 			page 12


 118:Drivers/CMSIS/DSP/Source/ComplexMathFunctions/arm_cmplx_conj_q31.c ****     /* C[0] + jC[1] = A[0]+ j(-1)A[1] */
 119:Drivers/CMSIS/DSP/Source/ComplexMathFunctions/arm_cmplx_conj_q31.c **** 
 120:Drivers/CMSIS/DSP/Source/ComplexMathFunctions/arm_cmplx_conj_q31.c ****     /* Calculate Complex Conjugate and store result in destination buffer. */
 121:Drivers/CMSIS/DSP/Source/ComplexMathFunctions/arm_cmplx_conj_q31.c ****     *pDst++ =  *pSrc++;
 197              		.loc 4 121 5 is_stmt 1 view .LVU52
 198              		.loc 4 121 16 is_stmt 0 view .LVU53
 199 0004 0346     		mov	r3, r0
 200 0006 53F8084B 		ldr	r4, [r3], #8
 201              		.loc 4 121 13 view .LVU54
 202 000a 8C46     		mov	ip, r1
 203 000c 4CF8084B 		str	r4, [ip], #8
 122:Drivers/CMSIS/DSP/Source/ComplexMathFunctions/arm_cmplx_conj_q31.c ****     in = *pSrc++;
 204              		.loc 4 122 5 is_stmt 1 view .LVU55
 205              	.LVL17:
 206              		.loc 4 122 8 is_stmt 0 view .LVU56
 207 0010 4468     		ldr	r4, [r0, #4]
 208              	.LVL18:
 123:Drivers/CMSIS/DSP/Source/ComplexMathFunctions/arm_cmplx_conj_q31.c **** #if defined (ARM_MATH_DSP)
 124:Drivers/CMSIS/DSP/Source/ComplexMathFunctions/arm_cmplx_conj_q31.c ****     *pDst++ = __QSUB(0, in);
 209              		.loc 4 124 5 is_stmt 1 view .LVU57
 210              	.LBB15:
 211              	.LBI15:
 212              		.file 5 "Drivers/CMSIS/Include/cmsis_gcc.h"
   1:Drivers/CMSIS/Include/cmsis_gcc.h **** /**************************************************************************//**
   2:Drivers/CMSIS/Include/cmsis_gcc.h ****  * @file     cmsis_gcc.h
   3:Drivers/CMSIS/Include/cmsis_gcc.h ****  * @brief    CMSIS compiler GCC header file
   4:Drivers/CMSIS/Include/cmsis_gcc.h ****  * @version  V5.2.0
   5:Drivers/CMSIS/Include/cmsis_gcc.h ****  * @date     08. May 2019
   6:Drivers/CMSIS/Include/cmsis_gcc.h ****  ******************************************************************************/
   7:Drivers/CMSIS/Include/cmsis_gcc.h **** /*
   8:Drivers/CMSIS/Include/cmsis_gcc.h ****  * Copyright (c) 2009-2019 Arm Limited. All rights reserved.
   9:Drivers/CMSIS/Include/cmsis_gcc.h ****  *
  10:Drivers/CMSIS/Include/cmsis_gcc.h ****  * SPDX-License-Identifier: Apache-2.0
  11:Drivers/CMSIS/Include/cmsis_gcc.h ****  *
  12:Drivers/CMSIS/Include/cmsis_gcc.h ****  * Licensed under the Apache License, Version 2.0 (the License); you may
  13:Drivers/CMSIS/Include/cmsis_gcc.h ****  * not use this file except in compliance with the License.
  14:Drivers/CMSIS/Include/cmsis_gcc.h ****  * You may obtain a copy of the License at
  15:Drivers/CMSIS/Include/cmsis_gcc.h ****  *
  16:Drivers/CMSIS/Include/cmsis_gcc.h ****  * www.apache.org/licenses/LICENSE-2.0
  17:Drivers/CMSIS/Include/cmsis_gcc.h ****  *
  18:Drivers/CMSIS/Include/cmsis_gcc.h ****  * Unless required by applicable law or agreed to in writing, software
  19:Drivers/CMSIS/Include/cmsis_gcc.h ****  * distributed under the License is distributed on an AS IS BASIS, WITHOUT
  20:Drivers/CMSIS/Include/cmsis_gcc.h ****  * WARRANTIES OR CONDITIONS OF ANY KIND, either express or implied.
  21:Drivers/CMSIS/Include/cmsis_gcc.h ****  * See the License for the specific language governing permissions and
  22:Drivers/CMSIS/Include/cmsis_gcc.h ****  * limitations under the License.
  23:Drivers/CMSIS/Include/cmsis_gcc.h ****  */
  24:Drivers/CMSIS/Include/cmsis_gcc.h **** 
  25:Drivers/CMSIS/Include/cmsis_gcc.h **** #ifndef __CMSIS_GCC_H
  26:Drivers/CMSIS/Include/cmsis_gcc.h **** #define __CMSIS_GCC_H
  27:Drivers/CMSIS/Include/cmsis_gcc.h **** 
  28:Drivers/CMSIS/Include/cmsis_gcc.h **** /* ignore some GCC warnings */
  29:Drivers/CMSIS/Include/cmsis_gcc.h **** #pragma GCC diagnostic push
  30:Drivers/CMSIS/Include/cmsis_gcc.h **** #pragma GCC diagnostic ignored "-Wsign-conversion"
  31:Drivers/CMSIS/Include/cmsis_gcc.h **** #pragma GCC diagnostic ignored "-Wconversion"
  32:Drivers/CMSIS/Include/cmsis_gcc.h **** #pragma GCC diagnostic ignored "-Wunused-parameter"
  33:Drivers/CMSIS/Include/cmsis_gcc.h **** 
  34:Drivers/CMSIS/Include/cmsis_gcc.h **** /* Fallback for __has_builtin */
ARM GAS  C:\Users\JustE\AppData\Local\Temp\ccpkykRb.s 			page 13


  35:Drivers/CMSIS/Include/cmsis_gcc.h **** #ifndef __has_builtin
  36:Drivers/CMSIS/Include/cmsis_gcc.h ****   #define __has_builtin(x) (0)
  37:Drivers/CMSIS/Include/cmsis_gcc.h **** #endif
  38:Drivers/CMSIS/Include/cmsis_gcc.h **** 
  39:Drivers/CMSIS/Include/cmsis_gcc.h **** /* CMSIS compiler specific defines */
  40:Drivers/CMSIS/Include/cmsis_gcc.h **** #ifndef   __ASM
  41:Drivers/CMSIS/Include/cmsis_gcc.h ****   #define __ASM                                  __asm
  42:Drivers/CMSIS/Include/cmsis_gcc.h **** #endif
  43:Drivers/CMSIS/Include/cmsis_gcc.h **** #ifndef   __INLINE
  44:Drivers/CMSIS/Include/cmsis_gcc.h ****   #define __INLINE                               inline
  45:Drivers/CMSIS/Include/cmsis_gcc.h **** #endif
  46:Drivers/CMSIS/Include/cmsis_gcc.h **** #ifndef   __STATIC_INLINE
  47:Drivers/CMSIS/Include/cmsis_gcc.h ****   #define __STATIC_INLINE                        static inline
  48:Drivers/CMSIS/Include/cmsis_gcc.h **** #endif
  49:Drivers/CMSIS/Include/cmsis_gcc.h **** #ifndef   __STATIC_FORCEINLINE                 
  50:Drivers/CMSIS/Include/cmsis_gcc.h ****   #define __STATIC_FORCEINLINE                   __attribute__((always_inline)) static inline
  51:Drivers/CMSIS/Include/cmsis_gcc.h **** #endif                                           
  52:Drivers/CMSIS/Include/cmsis_gcc.h **** #ifndef   __NO_RETURN
  53:Drivers/CMSIS/Include/cmsis_gcc.h ****   #define __NO_RETURN                            __attribute__((__noreturn__))
  54:Drivers/CMSIS/Include/cmsis_gcc.h **** #endif
  55:Drivers/CMSIS/Include/cmsis_gcc.h **** #ifndef   __USED
  56:Drivers/CMSIS/Include/cmsis_gcc.h ****   #define __USED                                 __attribute__((used))
  57:Drivers/CMSIS/Include/cmsis_gcc.h **** #endif
  58:Drivers/CMSIS/Include/cmsis_gcc.h **** #ifndef   __WEAK
  59:Drivers/CMSIS/Include/cmsis_gcc.h ****   #define __WEAK                                 __attribute__((weak))
  60:Drivers/CMSIS/Include/cmsis_gcc.h **** #endif
  61:Drivers/CMSIS/Include/cmsis_gcc.h **** #ifndef   __PACKED
  62:Drivers/CMSIS/Include/cmsis_gcc.h ****   #define __PACKED                               __attribute__((packed, aligned(1)))
  63:Drivers/CMSIS/Include/cmsis_gcc.h **** #endif
  64:Drivers/CMSIS/Include/cmsis_gcc.h **** #ifndef   __PACKED_STRUCT
  65:Drivers/CMSIS/Include/cmsis_gcc.h ****   #define __PACKED_STRUCT                        struct __attribute__((packed, aligned(1)))
  66:Drivers/CMSIS/Include/cmsis_gcc.h **** #endif
  67:Drivers/CMSIS/Include/cmsis_gcc.h **** #ifndef   __PACKED_UNION
  68:Drivers/CMSIS/Include/cmsis_gcc.h ****   #define __PACKED_UNION                         union __attribute__((packed, aligned(1)))
  69:Drivers/CMSIS/Include/cmsis_gcc.h **** #endif
  70:Drivers/CMSIS/Include/cmsis_gcc.h **** #ifndef   __UNALIGNED_UINT32        /* deprecated */
  71:Drivers/CMSIS/Include/cmsis_gcc.h ****   #pragma GCC diagnostic push
  72:Drivers/CMSIS/Include/cmsis_gcc.h ****   #pragma GCC diagnostic ignored "-Wpacked"
  73:Drivers/CMSIS/Include/cmsis_gcc.h ****   #pragma GCC diagnostic ignored "-Wattributes"
  74:Drivers/CMSIS/Include/cmsis_gcc.h ****   struct __attribute__((packed)) T_UINT32 { uint32_t v; };
  75:Drivers/CMSIS/Include/cmsis_gcc.h ****   #pragma GCC diagnostic pop
  76:Drivers/CMSIS/Include/cmsis_gcc.h ****   #define __UNALIGNED_UINT32(x)                  (((struct T_UINT32 *)(x))->v)
  77:Drivers/CMSIS/Include/cmsis_gcc.h **** #endif
  78:Drivers/CMSIS/Include/cmsis_gcc.h **** #ifndef   __UNALIGNED_UINT16_WRITE
  79:Drivers/CMSIS/Include/cmsis_gcc.h ****   #pragma GCC diagnostic push
  80:Drivers/CMSIS/Include/cmsis_gcc.h ****   #pragma GCC diagnostic ignored "-Wpacked"
  81:Drivers/CMSIS/Include/cmsis_gcc.h ****   #pragma GCC diagnostic ignored "-Wattributes"
  82:Drivers/CMSIS/Include/cmsis_gcc.h ****   __PACKED_STRUCT T_UINT16_WRITE { uint16_t v; };
  83:Drivers/CMSIS/Include/cmsis_gcc.h ****   #pragma GCC diagnostic pop
  84:Drivers/CMSIS/Include/cmsis_gcc.h ****   #define __UNALIGNED_UINT16_WRITE(addr, val)    (void)((((struct T_UINT16_WRITE *)(void *)(addr))-
  85:Drivers/CMSIS/Include/cmsis_gcc.h **** #endif
  86:Drivers/CMSIS/Include/cmsis_gcc.h **** #ifndef   __UNALIGNED_UINT16_READ
  87:Drivers/CMSIS/Include/cmsis_gcc.h ****   #pragma GCC diagnostic push
  88:Drivers/CMSIS/Include/cmsis_gcc.h ****   #pragma GCC diagnostic ignored "-Wpacked"
  89:Drivers/CMSIS/Include/cmsis_gcc.h ****   #pragma GCC diagnostic ignored "-Wattributes"
  90:Drivers/CMSIS/Include/cmsis_gcc.h ****   __PACKED_STRUCT T_UINT16_READ { uint16_t v; };
  91:Drivers/CMSIS/Include/cmsis_gcc.h ****   #pragma GCC diagnostic pop
ARM GAS  C:\Users\JustE\AppData\Local\Temp\ccpkykRb.s 			page 14


  92:Drivers/CMSIS/Include/cmsis_gcc.h ****   #define __UNALIGNED_UINT16_READ(addr)          (((const struct T_UINT16_READ *)(const void *)(add
  93:Drivers/CMSIS/Include/cmsis_gcc.h **** #endif
  94:Drivers/CMSIS/Include/cmsis_gcc.h **** #ifndef   __UNALIGNED_UINT32_WRITE
  95:Drivers/CMSIS/Include/cmsis_gcc.h ****   #pragma GCC diagnostic push
  96:Drivers/CMSIS/Include/cmsis_gcc.h ****   #pragma GCC diagnostic ignored "-Wpacked"
  97:Drivers/CMSIS/Include/cmsis_gcc.h ****   #pragma GCC diagnostic ignored "-Wattributes"
  98:Drivers/CMSIS/Include/cmsis_gcc.h ****   __PACKED_STRUCT T_UINT32_WRITE { uint32_t v; };
  99:Drivers/CMSIS/Include/cmsis_gcc.h ****   #pragma GCC diagnostic pop
 100:Drivers/CMSIS/Include/cmsis_gcc.h ****   #define __UNALIGNED_UINT32_WRITE(addr, val)    (void)((((struct T_UINT32_WRITE *)(void *)(addr))-
 101:Drivers/CMSIS/Include/cmsis_gcc.h **** #endif
 102:Drivers/CMSIS/Include/cmsis_gcc.h **** #ifndef   __UNALIGNED_UINT32_READ
 103:Drivers/CMSIS/Include/cmsis_gcc.h ****   #pragma GCC diagnostic push
 104:Drivers/CMSIS/Include/cmsis_gcc.h ****   #pragma GCC diagnostic ignored "-Wpacked"
 105:Drivers/CMSIS/Include/cmsis_gcc.h ****   #pragma GCC diagnostic ignored "-Wattributes"
 106:Drivers/CMSIS/Include/cmsis_gcc.h ****   __PACKED_STRUCT T_UINT32_READ { uint32_t v; };
 107:Drivers/CMSIS/Include/cmsis_gcc.h ****   #pragma GCC diagnostic pop
 108:Drivers/CMSIS/Include/cmsis_gcc.h ****   #define __UNALIGNED_UINT32_READ(addr)          (((const struct T_UINT32_READ *)(const void *)(add
 109:Drivers/CMSIS/Include/cmsis_gcc.h **** #endif
 110:Drivers/CMSIS/Include/cmsis_gcc.h **** #ifndef   __ALIGNED
 111:Drivers/CMSIS/Include/cmsis_gcc.h ****   #define __ALIGNED(x)                           __attribute__((aligned(x)))
 112:Drivers/CMSIS/Include/cmsis_gcc.h **** #endif
 113:Drivers/CMSIS/Include/cmsis_gcc.h **** #ifndef   __RESTRICT
 114:Drivers/CMSIS/Include/cmsis_gcc.h ****   #define __RESTRICT                             __restrict
 115:Drivers/CMSIS/Include/cmsis_gcc.h **** #endif
 116:Drivers/CMSIS/Include/cmsis_gcc.h **** #ifndef   __COMPILER_BARRIER
 117:Drivers/CMSIS/Include/cmsis_gcc.h ****   #define __COMPILER_BARRIER()                   __ASM volatile("":::"memory")
 118:Drivers/CMSIS/Include/cmsis_gcc.h **** #endif
 119:Drivers/CMSIS/Include/cmsis_gcc.h **** 
 120:Drivers/CMSIS/Include/cmsis_gcc.h **** /* #########################  Startup and Lowlevel Init  ######################## */
 121:Drivers/CMSIS/Include/cmsis_gcc.h **** 
 122:Drivers/CMSIS/Include/cmsis_gcc.h **** #ifndef __PROGRAM_START
 123:Drivers/CMSIS/Include/cmsis_gcc.h **** 
 124:Drivers/CMSIS/Include/cmsis_gcc.h **** /**
 125:Drivers/CMSIS/Include/cmsis_gcc.h ****   \brief   Initializes data and bss sections
 126:Drivers/CMSIS/Include/cmsis_gcc.h ****   \details This default implementations initialized all data and additional bss
 127:Drivers/CMSIS/Include/cmsis_gcc.h ****            sections relying on .copy.table and .zero.table specified properly
 128:Drivers/CMSIS/Include/cmsis_gcc.h ****            in the used linker script.
 129:Drivers/CMSIS/Include/cmsis_gcc.h ****   
 130:Drivers/CMSIS/Include/cmsis_gcc.h ****  */
 131:Drivers/CMSIS/Include/cmsis_gcc.h **** __STATIC_FORCEINLINE __NO_RETURN void __cmsis_start(void)
 132:Drivers/CMSIS/Include/cmsis_gcc.h **** {
 133:Drivers/CMSIS/Include/cmsis_gcc.h ****   extern void _start(void) __NO_RETURN;
 134:Drivers/CMSIS/Include/cmsis_gcc.h ****   
 135:Drivers/CMSIS/Include/cmsis_gcc.h ****   typedef struct {
 136:Drivers/CMSIS/Include/cmsis_gcc.h ****     uint32_t const* src;
 137:Drivers/CMSIS/Include/cmsis_gcc.h ****     uint32_t* dest;
 138:Drivers/CMSIS/Include/cmsis_gcc.h ****     uint32_t  wlen;
 139:Drivers/CMSIS/Include/cmsis_gcc.h ****   } __copy_table_t;
 140:Drivers/CMSIS/Include/cmsis_gcc.h ****   
 141:Drivers/CMSIS/Include/cmsis_gcc.h ****   typedef struct {
 142:Drivers/CMSIS/Include/cmsis_gcc.h ****     uint32_t* dest;
 143:Drivers/CMSIS/Include/cmsis_gcc.h ****     uint32_t  wlen;
 144:Drivers/CMSIS/Include/cmsis_gcc.h ****   } __zero_table_t;
 145:Drivers/CMSIS/Include/cmsis_gcc.h ****   
 146:Drivers/CMSIS/Include/cmsis_gcc.h ****   extern const __copy_table_t __copy_table_start__;
 147:Drivers/CMSIS/Include/cmsis_gcc.h ****   extern const __copy_table_t __copy_table_end__;
 148:Drivers/CMSIS/Include/cmsis_gcc.h ****   extern const __zero_table_t __zero_table_start__;
ARM GAS  C:\Users\JustE\AppData\Local\Temp\ccpkykRb.s 			page 15


 149:Drivers/CMSIS/Include/cmsis_gcc.h ****   extern const __zero_table_t __zero_table_end__;
 150:Drivers/CMSIS/Include/cmsis_gcc.h **** 
 151:Drivers/CMSIS/Include/cmsis_gcc.h ****   for (__copy_table_t const* pTable = &__copy_table_start__; pTable < &__copy_table_end__; ++pTable
 152:Drivers/CMSIS/Include/cmsis_gcc.h ****     for(uint32_t i=0u; i<pTable->wlen; ++i) {
 153:Drivers/CMSIS/Include/cmsis_gcc.h ****       pTable->dest[i] = pTable->src[i];
 154:Drivers/CMSIS/Include/cmsis_gcc.h ****     }
 155:Drivers/CMSIS/Include/cmsis_gcc.h ****   }
 156:Drivers/CMSIS/Include/cmsis_gcc.h ****  
 157:Drivers/CMSIS/Include/cmsis_gcc.h ****   for (__zero_table_t const* pTable = &__zero_table_start__; pTable < &__zero_table_end__; ++pTable
 158:Drivers/CMSIS/Include/cmsis_gcc.h ****     for(uint32_t i=0u; i<pTable->wlen; ++i) {
 159:Drivers/CMSIS/Include/cmsis_gcc.h ****       pTable->dest[i] = 0u;
 160:Drivers/CMSIS/Include/cmsis_gcc.h ****     }
 161:Drivers/CMSIS/Include/cmsis_gcc.h ****   }
 162:Drivers/CMSIS/Include/cmsis_gcc.h ****  
 163:Drivers/CMSIS/Include/cmsis_gcc.h ****   _start();
 164:Drivers/CMSIS/Include/cmsis_gcc.h **** }
 165:Drivers/CMSIS/Include/cmsis_gcc.h ****   
 166:Drivers/CMSIS/Include/cmsis_gcc.h **** #define __PROGRAM_START           __cmsis_start
 167:Drivers/CMSIS/Include/cmsis_gcc.h **** #endif
 168:Drivers/CMSIS/Include/cmsis_gcc.h **** 
 169:Drivers/CMSIS/Include/cmsis_gcc.h **** #ifndef __INITIAL_SP
 170:Drivers/CMSIS/Include/cmsis_gcc.h **** #define __INITIAL_SP              __StackTop
 171:Drivers/CMSIS/Include/cmsis_gcc.h **** #endif
 172:Drivers/CMSIS/Include/cmsis_gcc.h **** 
 173:Drivers/CMSIS/Include/cmsis_gcc.h **** #ifndef __STACK_LIMIT
 174:Drivers/CMSIS/Include/cmsis_gcc.h **** #define __STACK_LIMIT             __StackLimit
 175:Drivers/CMSIS/Include/cmsis_gcc.h **** #endif
 176:Drivers/CMSIS/Include/cmsis_gcc.h **** 
 177:Drivers/CMSIS/Include/cmsis_gcc.h **** #ifndef __VECTOR_TABLE
 178:Drivers/CMSIS/Include/cmsis_gcc.h **** #define __VECTOR_TABLE            __Vectors
 179:Drivers/CMSIS/Include/cmsis_gcc.h **** #endif
 180:Drivers/CMSIS/Include/cmsis_gcc.h **** 
 181:Drivers/CMSIS/Include/cmsis_gcc.h **** #ifndef __VECTOR_TABLE_ATTRIBUTE
 182:Drivers/CMSIS/Include/cmsis_gcc.h **** #define __VECTOR_TABLE_ATTRIBUTE  __attribute((used, section(".vectors")))
 183:Drivers/CMSIS/Include/cmsis_gcc.h **** #endif
 184:Drivers/CMSIS/Include/cmsis_gcc.h **** 
 185:Drivers/CMSIS/Include/cmsis_gcc.h **** /* ###########################  Core Function Access  ########################### */
 186:Drivers/CMSIS/Include/cmsis_gcc.h **** /** \ingroup  CMSIS_Core_FunctionInterface
 187:Drivers/CMSIS/Include/cmsis_gcc.h ****     \defgroup CMSIS_Core_RegAccFunctions CMSIS Core Register Access Functions
 188:Drivers/CMSIS/Include/cmsis_gcc.h ****   @{
 189:Drivers/CMSIS/Include/cmsis_gcc.h ****  */
 190:Drivers/CMSIS/Include/cmsis_gcc.h **** 
 191:Drivers/CMSIS/Include/cmsis_gcc.h **** /**
 192:Drivers/CMSIS/Include/cmsis_gcc.h ****   \brief   Enable IRQ Interrupts
 193:Drivers/CMSIS/Include/cmsis_gcc.h ****   \details Enables IRQ interrupts by clearing the I-bit in the CPSR.
 194:Drivers/CMSIS/Include/cmsis_gcc.h ****            Can only be executed in Privileged modes.
 195:Drivers/CMSIS/Include/cmsis_gcc.h ****  */
 196:Drivers/CMSIS/Include/cmsis_gcc.h **** __STATIC_FORCEINLINE void __enable_irq(void)
 197:Drivers/CMSIS/Include/cmsis_gcc.h **** {
 198:Drivers/CMSIS/Include/cmsis_gcc.h ****   __ASM volatile ("cpsie i" : : : "memory");
 199:Drivers/CMSIS/Include/cmsis_gcc.h **** }
 200:Drivers/CMSIS/Include/cmsis_gcc.h **** 
 201:Drivers/CMSIS/Include/cmsis_gcc.h **** 
 202:Drivers/CMSIS/Include/cmsis_gcc.h **** /**
 203:Drivers/CMSIS/Include/cmsis_gcc.h ****   \brief   Disable IRQ Interrupts
 204:Drivers/CMSIS/Include/cmsis_gcc.h ****   \details Disables IRQ interrupts by setting the I-bit in the CPSR.
 205:Drivers/CMSIS/Include/cmsis_gcc.h ****            Can only be executed in Privileged modes.
ARM GAS  C:\Users\JustE\AppData\Local\Temp\ccpkykRb.s 			page 16


 206:Drivers/CMSIS/Include/cmsis_gcc.h ****  */
 207:Drivers/CMSIS/Include/cmsis_gcc.h **** __STATIC_FORCEINLINE void __disable_irq(void)
 208:Drivers/CMSIS/Include/cmsis_gcc.h **** {
 209:Drivers/CMSIS/Include/cmsis_gcc.h ****   __ASM volatile ("cpsid i" : : : "memory");
 210:Drivers/CMSIS/Include/cmsis_gcc.h **** }
 211:Drivers/CMSIS/Include/cmsis_gcc.h **** 
 212:Drivers/CMSIS/Include/cmsis_gcc.h **** 
 213:Drivers/CMSIS/Include/cmsis_gcc.h **** /**
 214:Drivers/CMSIS/Include/cmsis_gcc.h ****   \brief   Get Control Register
 215:Drivers/CMSIS/Include/cmsis_gcc.h ****   \details Returns the content of the Control Register.
 216:Drivers/CMSIS/Include/cmsis_gcc.h ****   \return               Control Register value
 217:Drivers/CMSIS/Include/cmsis_gcc.h ****  */
 218:Drivers/CMSIS/Include/cmsis_gcc.h **** __STATIC_FORCEINLINE uint32_t __get_CONTROL(void)
 219:Drivers/CMSIS/Include/cmsis_gcc.h **** {
 220:Drivers/CMSIS/Include/cmsis_gcc.h ****   uint32_t result;
 221:Drivers/CMSIS/Include/cmsis_gcc.h **** 
 222:Drivers/CMSIS/Include/cmsis_gcc.h ****   __ASM volatile ("MRS %0, control" : "=r" (result) );
 223:Drivers/CMSIS/Include/cmsis_gcc.h ****   return(result);
 224:Drivers/CMSIS/Include/cmsis_gcc.h **** }
 225:Drivers/CMSIS/Include/cmsis_gcc.h **** 
 226:Drivers/CMSIS/Include/cmsis_gcc.h **** 
 227:Drivers/CMSIS/Include/cmsis_gcc.h **** #if (defined (__ARM_FEATURE_CMSE ) && (__ARM_FEATURE_CMSE == 3))
 228:Drivers/CMSIS/Include/cmsis_gcc.h **** /**
 229:Drivers/CMSIS/Include/cmsis_gcc.h ****   \brief   Get Control Register (non-secure)
 230:Drivers/CMSIS/Include/cmsis_gcc.h ****   \details Returns the content of the non-secure Control Register when in secure mode.
 231:Drivers/CMSIS/Include/cmsis_gcc.h ****   \return               non-secure Control Register value
 232:Drivers/CMSIS/Include/cmsis_gcc.h ****  */
 233:Drivers/CMSIS/Include/cmsis_gcc.h **** __STATIC_FORCEINLINE uint32_t __TZ_get_CONTROL_NS(void)
 234:Drivers/CMSIS/Include/cmsis_gcc.h **** {
 235:Drivers/CMSIS/Include/cmsis_gcc.h ****   uint32_t result;
 236:Drivers/CMSIS/Include/cmsis_gcc.h **** 
 237:Drivers/CMSIS/Include/cmsis_gcc.h ****   __ASM volatile ("MRS %0, control_ns" : "=r" (result) );
 238:Drivers/CMSIS/Include/cmsis_gcc.h ****   return(result);
 239:Drivers/CMSIS/Include/cmsis_gcc.h **** }
 240:Drivers/CMSIS/Include/cmsis_gcc.h **** #endif
 241:Drivers/CMSIS/Include/cmsis_gcc.h **** 
 242:Drivers/CMSIS/Include/cmsis_gcc.h **** 
 243:Drivers/CMSIS/Include/cmsis_gcc.h **** /**
 244:Drivers/CMSIS/Include/cmsis_gcc.h ****   \brief   Set Control Register
 245:Drivers/CMSIS/Include/cmsis_gcc.h ****   \details Writes the given value to the Control Register.
 246:Drivers/CMSIS/Include/cmsis_gcc.h ****   \param [in]    control  Control Register value to set
 247:Drivers/CMSIS/Include/cmsis_gcc.h ****  */
 248:Drivers/CMSIS/Include/cmsis_gcc.h **** __STATIC_FORCEINLINE void __set_CONTROL(uint32_t control)
 249:Drivers/CMSIS/Include/cmsis_gcc.h **** {
 250:Drivers/CMSIS/Include/cmsis_gcc.h ****   __ASM volatile ("MSR control, %0" : : "r" (control) : "memory");
 251:Drivers/CMSIS/Include/cmsis_gcc.h **** }
 252:Drivers/CMSIS/Include/cmsis_gcc.h **** 
 253:Drivers/CMSIS/Include/cmsis_gcc.h **** 
 254:Drivers/CMSIS/Include/cmsis_gcc.h **** #if (defined (__ARM_FEATURE_CMSE ) && (__ARM_FEATURE_CMSE == 3))
 255:Drivers/CMSIS/Include/cmsis_gcc.h **** /**
 256:Drivers/CMSIS/Include/cmsis_gcc.h ****   \brief   Set Control Register (non-secure)
 257:Drivers/CMSIS/Include/cmsis_gcc.h ****   \details Writes the given value to the non-secure Control Register when in secure state.
 258:Drivers/CMSIS/Include/cmsis_gcc.h ****   \param [in]    control  Control Register value to set
 259:Drivers/CMSIS/Include/cmsis_gcc.h ****  */
 260:Drivers/CMSIS/Include/cmsis_gcc.h **** __STATIC_FORCEINLINE void __TZ_set_CONTROL_NS(uint32_t control)
 261:Drivers/CMSIS/Include/cmsis_gcc.h **** {
 262:Drivers/CMSIS/Include/cmsis_gcc.h ****   __ASM volatile ("MSR control_ns, %0" : : "r" (control) : "memory");
ARM GAS  C:\Users\JustE\AppData\Local\Temp\ccpkykRb.s 			page 17


 263:Drivers/CMSIS/Include/cmsis_gcc.h **** }
 264:Drivers/CMSIS/Include/cmsis_gcc.h **** #endif
 265:Drivers/CMSIS/Include/cmsis_gcc.h **** 
 266:Drivers/CMSIS/Include/cmsis_gcc.h **** 
 267:Drivers/CMSIS/Include/cmsis_gcc.h **** /**
 268:Drivers/CMSIS/Include/cmsis_gcc.h ****   \brief   Get IPSR Register
 269:Drivers/CMSIS/Include/cmsis_gcc.h ****   \details Returns the content of the IPSR Register.
 270:Drivers/CMSIS/Include/cmsis_gcc.h ****   \return               IPSR Register value
 271:Drivers/CMSIS/Include/cmsis_gcc.h ****  */
 272:Drivers/CMSIS/Include/cmsis_gcc.h **** __STATIC_FORCEINLINE uint32_t __get_IPSR(void)
 273:Drivers/CMSIS/Include/cmsis_gcc.h **** {
 274:Drivers/CMSIS/Include/cmsis_gcc.h ****   uint32_t result;
 275:Drivers/CMSIS/Include/cmsis_gcc.h **** 
 276:Drivers/CMSIS/Include/cmsis_gcc.h ****   __ASM volatile ("MRS %0, ipsr" : "=r" (result) );
 277:Drivers/CMSIS/Include/cmsis_gcc.h ****   return(result);
 278:Drivers/CMSIS/Include/cmsis_gcc.h **** }
 279:Drivers/CMSIS/Include/cmsis_gcc.h **** 
 280:Drivers/CMSIS/Include/cmsis_gcc.h **** 
 281:Drivers/CMSIS/Include/cmsis_gcc.h **** /**
 282:Drivers/CMSIS/Include/cmsis_gcc.h ****   \brief   Get APSR Register
 283:Drivers/CMSIS/Include/cmsis_gcc.h ****   \details Returns the content of the APSR Register.
 284:Drivers/CMSIS/Include/cmsis_gcc.h ****   \return               APSR Register value
 285:Drivers/CMSIS/Include/cmsis_gcc.h ****  */
 286:Drivers/CMSIS/Include/cmsis_gcc.h **** __STATIC_FORCEINLINE uint32_t __get_APSR(void)
 287:Drivers/CMSIS/Include/cmsis_gcc.h **** {
 288:Drivers/CMSIS/Include/cmsis_gcc.h ****   uint32_t result;
 289:Drivers/CMSIS/Include/cmsis_gcc.h **** 
 290:Drivers/CMSIS/Include/cmsis_gcc.h ****   __ASM volatile ("MRS %0, apsr" : "=r" (result) );
 291:Drivers/CMSIS/Include/cmsis_gcc.h ****   return(result);
 292:Drivers/CMSIS/Include/cmsis_gcc.h **** }
 293:Drivers/CMSIS/Include/cmsis_gcc.h **** 
 294:Drivers/CMSIS/Include/cmsis_gcc.h **** 
 295:Drivers/CMSIS/Include/cmsis_gcc.h **** /**
 296:Drivers/CMSIS/Include/cmsis_gcc.h ****   \brief   Get xPSR Register
 297:Drivers/CMSIS/Include/cmsis_gcc.h ****   \details Returns the content of the xPSR Register.
 298:Drivers/CMSIS/Include/cmsis_gcc.h ****   \return               xPSR Register value
 299:Drivers/CMSIS/Include/cmsis_gcc.h ****  */
 300:Drivers/CMSIS/Include/cmsis_gcc.h **** __STATIC_FORCEINLINE uint32_t __get_xPSR(void)
 301:Drivers/CMSIS/Include/cmsis_gcc.h **** {
 302:Drivers/CMSIS/Include/cmsis_gcc.h ****   uint32_t result;
 303:Drivers/CMSIS/Include/cmsis_gcc.h **** 
 304:Drivers/CMSIS/Include/cmsis_gcc.h ****   __ASM volatile ("MRS %0, xpsr" : "=r" (result) );
 305:Drivers/CMSIS/Include/cmsis_gcc.h ****   return(result);
 306:Drivers/CMSIS/Include/cmsis_gcc.h **** }
 307:Drivers/CMSIS/Include/cmsis_gcc.h **** 
 308:Drivers/CMSIS/Include/cmsis_gcc.h **** 
 309:Drivers/CMSIS/Include/cmsis_gcc.h **** /**
 310:Drivers/CMSIS/Include/cmsis_gcc.h ****   \brief   Get Process Stack Pointer
 311:Drivers/CMSIS/Include/cmsis_gcc.h ****   \details Returns the current value of the Process Stack Pointer (PSP).
 312:Drivers/CMSIS/Include/cmsis_gcc.h ****   \return               PSP Register value
 313:Drivers/CMSIS/Include/cmsis_gcc.h ****  */
 314:Drivers/CMSIS/Include/cmsis_gcc.h **** __STATIC_FORCEINLINE uint32_t __get_PSP(void)
 315:Drivers/CMSIS/Include/cmsis_gcc.h **** {
 316:Drivers/CMSIS/Include/cmsis_gcc.h ****   uint32_t result;
 317:Drivers/CMSIS/Include/cmsis_gcc.h **** 
 318:Drivers/CMSIS/Include/cmsis_gcc.h ****   __ASM volatile ("MRS %0, psp"  : "=r" (result) );
 319:Drivers/CMSIS/Include/cmsis_gcc.h ****   return(result);
ARM GAS  C:\Users\JustE\AppData\Local\Temp\ccpkykRb.s 			page 18


 320:Drivers/CMSIS/Include/cmsis_gcc.h **** }
 321:Drivers/CMSIS/Include/cmsis_gcc.h **** 
 322:Drivers/CMSIS/Include/cmsis_gcc.h **** 
 323:Drivers/CMSIS/Include/cmsis_gcc.h **** #if (defined (__ARM_FEATURE_CMSE ) && (__ARM_FEATURE_CMSE == 3))
 324:Drivers/CMSIS/Include/cmsis_gcc.h **** /**
 325:Drivers/CMSIS/Include/cmsis_gcc.h ****   \brief   Get Process Stack Pointer (non-secure)
 326:Drivers/CMSIS/Include/cmsis_gcc.h ****   \details Returns the current value of the non-secure Process Stack Pointer (PSP) when in secure s
 327:Drivers/CMSIS/Include/cmsis_gcc.h ****   \return               PSP Register value
 328:Drivers/CMSIS/Include/cmsis_gcc.h ****  */
 329:Drivers/CMSIS/Include/cmsis_gcc.h **** __STATIC_FORCEINLINE uint32_t __TZ_get_PSP_NS(void)
 330:Drivers/CMSIS/Include/cmsis_gcc.h **** {
 331:Drivers/CMSIS/Include/cmsis_gcc.h ****   uint32_t result;
 332:Drivers/CMSIS/Include/cmsis_gcc.h **** 
 333:Drivers/CMSIS/Include/cmsis_gcc.h ****   __ASM volatile ("MRS %0, psp_ns"  : "=r" (result) );
 334:Drivers/CMSIS/Include/cmsis_gcc.h ****   return(result);
 335:Drivers/CMSIS/Include/cmsis_gcc.h **** }
 336:Drivers/CMSIS/Include/cmsis_gcc.h **** #endif
 337:Drivers/CMSIS/Include/cmsis_gcc.h **** 
 338:Drivers/CMSIS/Include/cmsis_gcc.h **** 
 339:Drivers/CMSIS/Include/cmsis_gcc.h **** /**
 340:Drivers/CMSIS/Include/cmsis_gcc.h ****   \brief   Set Process Stack Pointer
 341:Drivers/CMSIS/Include/cmsis_gcc.h ****   \details Assigns the given value to the Process Stack Pointer (PSP).
 342:Drivers/CMSIS/Include/cmsis_gcc.h ****   \param [in]    topOfProcStack  Process Stack Pointer value to set
 343:Drivers/CMSIS/Include/cmsis_gcc.h ****  */
 344:Drivers/CMSIS/Include/cmsis_gcc.h **** __STATIC_FORCEINLINE void __set_PSP(uint32_t topOfProcStack)
 345:Drivers/CMSIS/Include/cmsis_gcc.h **** {
 346:Drivers/CMSIS/Include/cmsis_gcc.h ****   __ASM volatile ("MSR psp, %0" : : "r" (topOfProcStack) : );
 347:Drivers/CMSIS/Include/cmsis_gcc.h **** }
 348:Drivers/CMSIS/Include/cmsis_gcc.h **** 
 349:Drivers/CMSIS/Include/cmsis_gcc.h **** 
 350:Drivers/CMSIS/Include/cmsis_gcc.h **** #if (defined (__ARM_FEATURE_CMSE ) && (__ARM_FEATURE_CMSE == 3))
 351:Drivers/CMSIS/Include/cmsis_gcc.h **** /**
 352:Drivers/CMSIS/Include/cmsis_gcc.h ****   \brief   Set Process Stack Pointer (non-secure)
 353:Drivers/CMSIS/Include/cmsis_gcc.h ****   \details Assigns the given value to the non-secure Process Stack Pointer (PSP) when in secure sta
 354:Drivers/CMSIS/Include/cmsis_gcc.h ****   \param [in]    topOfProcStack  Process Stack Pointer value to set
 355:Drivers/CMSIS/Include/cmsis_gcc.h ****  */
 356:Drivers/CMSIS/Include/cmsis_gcc.h **** __STATIC_FORCEINLINE void __TZ_set_PSP_NS(uint32_t topOfProcStack)
 357:Drivers/CMSIS/Include/cmsis_gcc.h **** {
 358:Drivers/CMSIS/Include/cmsis_gcc.h ****   __ASM volatile ("MSR psp_ns, %0" : : "r" (topOfProcStack) : );
 359:Drivers/CMSIS/Include/cmsis_gcc.h **** }
 360:Drivers/CMSIS/Include/cmsis_gcc.h **** #endif
 361:Drivers/CMSIS/Include/cmsis_gcc.h **** 
 362:Drivers/CMSIS/Include/cmsis_gcc.h **** 
 363:Drivers/CMSIS/Include/cmsis_gcc.h **** /**
 364:Drivers/CMSIS/Include/cmsis_gcc.h ****   \brief   Get Main Stack Pointer
 365:Drivers/CMSIS/Include/cmsis_gcc.h ****   \details Returns the current value of the Main Stack Pointer (MSP).
 366:Drivers/CMSIS/Include/cmsis_gcc.h ****   \return               MSP Register value
 367:Drivers/CMSIS/Include/cmsis_gcc.h ****  */
 368:Drivers/CMSIS/Include/cmsis_gcc.h **** __STATIC_FORCEINLINE uint32_t __get_MSP(void)
 369:Drivers/CMSIS/Include/cmsis_gcc.h **** {
 370:Drivers/CMSIS/Include/cmsis_gcc.h ****   uint32_t result;
 371:Drivers/CMSIS/Include/cmsis_gcc.h **** 
 372:Drivers/CMSIS/Include/cmsis_gcc.h ****   __ASM volatile ("MRS %0, msp" : "=r" (result) );
 373:Drivers/CMSIS/Include/cmsis_gcc.h ****   return(result);
 374:Drivers/CMSIS/Include/cmsis_gcc.h **** }
 375:Drivers/CMSIS/Include/cmsis_gcc.h **** 
 376:Drivers/CMSIS/Include/cmsis_gcc.h **** 
ARM GAS  C:\Users\JustE\AppData\Local\Temp\ccpkykRb.s 			page 19


 377:Drivers/CMSIS/Include/cmsis_gcc.h **** #if (defined (__ARM_FEATURE_CMSE ) && (__ARM_FEATURE_CMSE == 3))
 378:Drivers/CMSIS/Include/cmsis_gcc.h **** /**
 379:Drivers/CMSIS/Include/cmsis_gcc.h ****   \brief   Get Main Stack Pointer (non-secure)
 380:Drivers/CMSIS/Include/cmsis_gcc.h ****   \details Returns the current value of the non-secure Main Stack Pointer (MSP) when in secure stat
 381:Drivers/CMSIS/Include/cmsis_gcc.h ****   \return               MSP Register value
 382:Drivers/CMSIS/Include/cmsis_gcc.h ****  */
 383:Drivers/CMSIS/Include/cmsis_gcc.h **** __STATIC_FORCEINLINE uint32_t __TZ_get_MSP_NS(void)
 384:Drivers/CMSIS/Include/cmsis_gcc.h **** {
 385:Drivers/CMSIS/Include/cmsis_gcc.h ****   uint32_t result;
 386:Drivers/CMSIS/Include/cmsis_gcc.h **** 
 387:Drivers/CMSIS/Include/cmsis_gcc.h ****   __ASM volatile ("MRS %0, msp_ns" : "=r" (result) );
 388:Drivers/CMSIS/Include/cmsis_gcc.h ****   return(result);
 389:Drivers/CMSIS/Include/cmsis_gcc.h **** }
 390:Drivers/CMSIS/Include/cmsis_gcc.h **** #endif
 391:Drivers/CMSIS/Include/cmsis_gcc.h **** 
 392:Drivers/CMSIS/Include/cmsis_gcc.h **** 
 393:Drivers/CMSIS/Include/cmsis_gcc.h **** /**
 394:Drivers/CMSIS/Include/cmsis_gcc.h ****   \brief   Set Main Stack Pointer
 395:Drivers/CMSIS/Include/cmsis_gcc.h ****   \details Assigns the given value to the Main Stack Pointer (MSP).
 396:Drivers/CMSIS/Include/cmsis_gcc.h ****   \param [in]    topOfMainStack  Main Stack Pointer value to set
 397:Drivers/CMSIS/Include/cmsis_gcc.h ****  */
 398:Drivers/CMSIS/Include/cmsis_gcc.h **** __STATIC_FORCEINLINE void __set_MSP(uint32_t topOfMainStack)
 399:Drivers/CMSIS/Include/cmsis_gcc.h **** {
 400:Drivers/CMSIS/Include/cmsis_gcc.h ****   __ASM volatile ("MSR msp, %0" : : "r" (topOfMainStack) : );
 401:Drivers/CMSIS/Include/cmsis_gcc.h **** }
 402:Drivers/CMSIS/Include/cmsis_gcc.h **** 
 403:Drivers/CMSIS/Include/cmsis_gcc.h **** 
 404:Drivers/CMSIS/Include/cmsis_gcc.h **** #if (defined (__ARM_FEATURE_CMSE ) && (__ARM_FEATURE_CMSE == 3))
 405:Drivers/CMSIS/Include/cmsis_gcc.h **** /**
 406:Drivers/CMSIS/Include/cmsis_gcc.h ****   \brief   Set Main Stack Pointer (non-secure)
 407:Drivers/CMSIS/Include/cmsis_gcc.h ****   \details Assigns the given value to the non-secure Main Stack Pointer (MSP) when in secure state.
 408:Drivers/CMSIS/Include/cmsis_gcc.h ****   \param [in]    topOfMainStack  Main Stack Pointer value to set
 409:Drivers/CMSIS/Include/cmsis_gcc.h ****  */
 410:Drivers/CMSIS/Include/cmsis_gcc.h **** __STATIC_FORCEINLINE void __TZ_set_MSP_NS(uint32_t topOfMainStack)
 411:Drivers/CMSIS/Include/cmsis_gcc.h **** {
 412:Drivers/CMSIS/Include/cmsis_gcc.h ****   __ASM volatile ("MSR msp_ns, %0" : : "r" (topOfMainStack) : );
 413:Drivers/CMSIS/Include/cmsis_gcc.h **** }
 414:Drivers/CMSIS/Include/cmsis_gcc.h **** #endif
 415:Drivers/CMSIS/Include/cmsis_gcc.h **** 
 416:Drivers/CMSIS/Include/cmsis_gcc.h **** 
 417:Drivers/CMSIS/Include/cmsis_gcc.h **** #if (defined (__ARM_FEATURE_CMSE ) && (__ARM_FEATURE_CMSE == 3))
 418:Drivers/CMSIS/Include/cmsis_gcc.h **** /**
 419:Drivers/CMSIS/Include/cmsis_gcc.h ****   \brief   Get Stack Pointer (non-secure)
 420:Drivers/CMSIS/Include/cmsis_gcc.h ****   \details Returns the current value of the non-secure Stack Pointer (SP) when in secure state.
 421:Drivers/CMSIS/Include/cmsis_gcc.h ****   \return               SP Register value
 422:Drivers/CMSIS/Include/cmsis_gcc.h ****  */
 423:Drivers/CMSIS/Include/cmsis_gcc.h **** __STATIC_FORCEINLINE uint32_t __TZ_get_SP_NS(void)
 424:Drivers/CMSIS/Include/cmsis_gcc.h **** {
 425:Drivers/CMSIS/Include/cmsis_gcc.h ****   uint32_t result;
 426:Drivers/CMSIS/Include/cmsis_gcc.h **** 
 427:Drivers/CMSIS/Include/cmsis_gcc.h ****   __ASM volatile ("MRS %0, sp_ns" : "=r" (result) );
 428:Drivers/CMSIS/Include/cmsis_gcc.h ****   return(result);
 429:Drivers/CMSIS/Include/cmsis_gcc.h **** }
 430:Drivers/CMSIS/Include/cmsis_gcc.h **** 
 431:Drivers/CMSIS/Include/cmsis_gcc.h **** 
 432:Drivers/CMSIS/Include/cmsis_gcc.h **** /**
 433:Drivers/CMSIS/Include/cmsis_gcc.h ****   \brief   Set Stack Pointer (non-secure)
ARM GAS  C:\Users\JustE\AppData\Local\Temp\ccpkykRb.s 			page 20


 434:Drivers/CMSIS/Include/cmsis_gcc.h ****   \details Assigns the given value to the non-secure Stack Pointer (SP) when in secure state.
 435:Drivers/CMSIS/Include/cmsis_gcc.h ****   \param [in]    topOfStack  Stack Pointer value to set
 436:Drivers/CMSIS/Include/cmsis_gcc.h ****  */
 437:Drivers/CMSIS/Include/cmsis_gcc.h **** __STATIC_FORCEINLINE void __TZ_set_SP_NS(uint32_t topOfStack)
 438:Drivers/CMSIS/Include/cmsis_gcc.h **** {
 439:Drivers/CMSIS/Include/cmsis_gcc.h ****   __ASM volatile ("MSR sp_ns, %0" : : "r" (topOfStack) : );
 440:Drivers/CMSIS/Include/cmsis_gcc.h **** }
 441:Drivers/CMSIS/Include/cmsis_gcc.h **** #endif
 442:Drivers/CMSIS/Include/cmsis_gcc.h **** 
 443:Drivers/CMSIS/Include/cmsis_gcc.h **** 
 444:Drivers/CMSIS/Include/cmsis_gcc.h **** /**
 445:Drivers/CMSIS/Include/cmsis_gcc.h ****   \brief   Get Priority Mask
 446:Drivers/CMSIS/Include/cmsis_gcc.h ****   \details Returns the current state of the priority mask bit from the Priority Mask Register.
 447:Drivers/CMSIS/Include/cmsis_gcc.h ****   \return               Priority Mask value
 448:Drivers/CMSIS/Include/cmsis_gcc.h ****  */
 449:Drivers/CMSIS/Include/cmsis_gcc.h **** __STATIC_FORCEINLINE uint32_t __get_PRIMASK(void)
 450:Drivers/CMSIS/Include/cmsis_gcc.h **** {
 451:Drivers/CMSIS/Include/cmsis_gcc.h ****   uint32_t result;
 452:Drivers/CMSIS/Include/cmsis_gcc.h **** 
 453:Drivers/CMSIS/Include/cmsis_gcc.h ****   __ASM volatile ("MRS %0, primask" : "=r" (result) :: "memory");
 454:Drivers/CMSIS/Include/cmsis_gcc.h ****   return(result);
 455:Drivers/CMSIS/Include/cmsis_gcc.h **** }
 456:Drivers/CMSIS/Include/cmsis_gcc.h **** 
 457:Drivers/CMSIS/Include/cmsis_gcc.h **** 
 458:Drivers/CMSIS/Include/cmsis_gcc.h **** #if (defined (__ARM_FEATURE_CMSE ) && (__ARM_FEATURE_CMSE == 3))
 459:Drivers/CMSIS/Include/cmsis_gcc.h **** /**
 460:Drivers/CMSIS/Include/cmsis_gcc.h ****   \brief   Get Priority Mask (non-secure)
 461:Drivers/CMSIS/Include/cmsis_gcc.h ****   \details Returns the current state of the non-secure priority mask bit from the Priority Mask Reg
 462:Drivers/CMSIS/Include/cmsis_gcc.h ****   \return               Priority Mask value
 463:Drivers/CMSIS/Include/cmsis_gcc.h ****  */
 464:Drivers/CMSIS/Include/cmsis_gcc.h **** __STATIC_FORCEINLINE uint32_t __TZ_get_PRIMASK_NS(void)
 465:Drivers/CMSIS/Include/cmsis_gcc.h **** {
 466:Drivers/CMSIS/Include/cmsis_gcc.h ****   uint32_t result;
 467:Drivers/CMSIS/Include/cmsis_gcc.h **** 
 468:Drivers/CMSIS/Include/cmsis_gcc.h ****   __ASM volatile ("MRS %0, primask_ns" : "=r" (result) :: "memory");
 469:Drivers/CMSIS/Include/cmsis_gcc.h ****   return(result);
 470:Drivers/CMSIS/Include/cmsis_gcc.h **** }
 471:Drivers/CMSIS/Include/cmsis_gcc.h **** #endif
 472:Drivers/CMSIS/Include/cmsis_gcc.h **** 
 473:Drivers/CMSIS/Include/cmsis_gcc.h **** 
 474:Drivers/CMSIS/Include/cmsis_gcc.h **** /**
 475:Drivers/CMSIS/Include/cmsis_gcc.h ****   \brief   Set Priority Mask
 476:Drivers/CMSIS/Include/cmsis_gcc.h ****   \details Assigns the given value to the Priority Mask Register.
 477:Drivers/CMSIS/Include/cmsis_gcc.h ****   \param [in]    priMask  Priority Mask
 478:Drivers/CMSIS/Include/cmsis_gcc.h ****  */
 479:Drivers/CMSIS/Include/cmsis_gcc.h **** __STATIC_FORCEINLINE void __set_PRIMASK(uint32_t priMask)
 480:Drivers/CMSIS/Include/cmsis_gcc.h **** {
 481:Drivers/CMSIS/Include/cmsis_gcc.h ****   __ASM volatile ("MSR primask, %0" : : "r" (priMask) : "memory");
 482:Drivers/CMSIS/Include/cmsis_gcc.h **** }
 483:Drivers/CMSIS/Include/cmsis_gcc.h **** 
 484:Drivers/CMSIS/Include/cmsis_gcc.h **** 
 485:Drivers/CMSIS/Include/cmsis_gcc.h **** #if (defined (__ARM_FEATURE_CMSE ) && (__ARM_FEATURE_CMSE == 3))
 486:Drivers/CMSIS/Include/cmsis_gcc.h **** /**
 487:Drivers/CMSIS/Include/cmsis_gcc.h ****   \brief   Set Priority Mask (non-secure)
 488:Drivers/CMSIS/Include/cmsis_gcc.h ****   \details Assigns the given value to the non-secure Priority Mask Register when in secure state.
 489:Drivers/CMSIS/Include/cmsis_gcc.h ****   \param [in]    priMask  Priority Mask
 490:Drivers/CMSIS/Include/cmsis_gcc.h ****  */
ARM GAS  C:\Users\JustE\AppData\Local\Temp\ccpkykRb.s 			page 21


 491:Drivers/CMSIS/Include/cmsis_gcc.h **** __STATIC_FORCEINLINE void __TZ_set_PRIMASK_NS(uint32_t priMask)
 492:Drivers/CMSIS/Include/cmsis_gcc.h **** {
 493:Drivers/CMSIS/Include/cmsis_gcc.h ****   __ASM volatile ("MSR primask_ns, %0" : : "r" (priMask) : "memory");
 494:Drivers/CMSIS/Include/cmsis_gcc.h **** }
 495:Drivers/CMSIS/Include/cmsis_gcc.h **** #endif
 496:Drivers/CMSIS/Include/cmsis_gcc.h **** 
 497:Drivers/CMSIS/Include/cmsis_gcc.h **** 
 498:Drivers/CMSIS/Include/cmsis_gcc.h **** #if ((defined (__ARM_ARCH_7M__      ) && (__ARM_ARCH_7M__      == 1)) || \
 499:Drivers/CMSIS/Include/cmsis_gcc.h ****      (defined (__ARM_ARCH_7EM__     ) && (__ARM_ARCH_7EM__     == 1)) || \
 500:Drivers/CMSIS/Include/cmsis_gcc.h ****      (defined (__ARM_ARCH_8M_MAIN__ ) && (__ARM_ARCH_8M_MAIN__ == 1))    )
 501:Drivers/CMSIS/Include/cmsis_gcc.h **** /**
 502:Drivers/CMSIS/Include/cmsis_gcc.h ****   \brief   Enable FIQ
 503:Drivers/CMSIS/Include/cmsis_gcc.h ****   \details Enables FIQ interrupts by clearing the F-bit in the CPSR.
 504:Drivers/CMSIS/Include/cmsis_gcc.h ****            Can only be executed in Privileged modes.
 505:Drivers/CMSIS/Include/cmsis_gcc.h ****  */
 506:Drivers/CMSIS/Include/cmsis_gcc.h **** __STATIC_FORCEINLINE void __enable_fault_irq(void)
 507:Drivers/CMSIS/Include/cmsis_gcc.h **** {
 508:Drivers/CMSIS/Include/cmsis_gcc.h ****   __ASM volatile ("cpsie f" : : : "memory");
 509:Drivers/CMSIS/Include/cmsis_gcc.h **** }
 510:Drivers/CMSIS/Include/cmsis_gcc.h **** 
 511:Drivers/CMSIS/Include/cmsis_gcc.h **** 
 512:Drivers/CMSIS/Include/cmsis_gcc.h **** /**
 513:Drivers/CMSIS/Include/cmsis_gcc.h ****   \brief   Disable FIQ
 514:Drivers/CMSIS/Include/cmsis_gcc.h ****   \details Disables FIQ interrupts by setting the F-bit in the CPSR.
 515:Drivers/CMSIS/Include/cmsis_gcc.h ****            Can only be executed in Privileged modes.
 516:Drivers/CMSIS/Include/cmsis_gcc.h ****  */
 517:Drivers/CMSIS/Include/cmsis_gcc.h **** __STATIC_FORCEINLINE void __disable_fault_irq(void)
 518:Drivers/CMSIS/Include/cmsis_gcc.h **** {
 519:Drivers/CMSIS/Include/cmsis_gcc.h ****   __ASM volatile ("cpsid f" : : : "memory");
 520:Drivers/CMSIS/Include/cmsis_gcc.h **** }
 521:Drivers/CMSIS/Include/cmsis_gcc.h **** 
 522:Drivers/CMSIS/Include/cmsis_gcc.h **** 
 523:Drivers/CMSIS/Include/cmsis_gcc.h **** /**
 524:Drivers/CMSIS/Include/cmsis_gcc.h ****   \brief   Get Base Priority
 525:Drivers/CMSIS/Include/cmsis_gcc.h ****   \details Returns the current value of the Base Priority register.
 526:Drivers/CMSIS/Include/cmsis_gcc.h ****   \return               Base Priority register value
 527:Drivers/CMSIS/Include/cmsis_gcc.h ****  */
 528:Drivers/CMSIS/Include/cmsis_gcc.h **** __STATIC_FORCEINLINE uint32_t __get_BASEPRI(void)
 529:Drivers/CMSIS/Include/cmsis_gcc.h **** {
 530:Drivers/CMSIS/Include/cmsis_gcc.h ****   uint32_t result;
 531:Drivers/CMSIS/Include/cmsis_gcc.h **** 
 532:Drivers/CMSIS/Include/cmsis_gcc.h ****   __ASM volatile ("MRS %0, basepri" : "=r" (result) );
 533:Drivers/CMSIS/Include/cmsis_gcc.h ****   return(result);
 534:Drivers/CMSIS/Include/cmsis_gcc.h **** }
 535:Drivers/CMSIS/Include/cmsis_gcc.h **** 
 536:Drivers/CMSIS/Include/cmsis_gcc.h **** 
 537:Drivers/CMSIS/Include/cmsis_gcc.h **** #if (defined (__ARM_FEATURE_CMSE ) && (__ARM_FEATURE_CMSE == 3))
 538:Drivers/CMSIS/Include/cmsis_gcc.h **** /**
 539:Drivers/CMSIS/Include/cmsis_gcc.h ****   \brief   Get Base Priority (non-secure)
 540:Drivers/CMSIS/Include/cmsis_gcc.h ****   \details Returns the current value of the non-secure Base Priority register when in secure state.
 541:Drivers/CMSIS/Include/cmsis_gcc.h ****   \return               Base Priority register value
 542:Drivers/CMSIS/Include/cmsis_gcc.h ****  */
 543:Drivers/CMSIS/Include/cmsis_gcc.h **** __STATIC_FORCEINLINE uint32_t __TZ_get_BASEPRI_NS(void)
 544:Drivers/CMSIS/Include/cmsis_gcc.h **** {
 545:Drivers/CMSIS/Include/cmsis_gcc.h ****   uint32_t result;
 546:Drivers/CMSIS/Include/cmsis_gcc.h **** 
 547:Drivers/CMSIS/Include/cmsis_gcc.h ****   __ASM volatile ("MRS %0, basepri_ns" : "=r" (result) );
ARM GAS  C:\Users\JustE\AppData\Local\Temp\ccpkykRb.s 			page 22


 548:Drivers/CMSIS/Include/cmsis_gcc.h ****   return(result);
 549:Drivers/CMSIS/Include/cmsis_gcc.h **** }
 550:Drivers/CMSIS/Include/cmsis_gcc.h **** #endif
 551:Drivers/CMSIS/Include/cmsis_gcc.h **** 
 552:Drivers/CMSIS/Include/cmsis_gcc.h **** 
 553:Drivers/CMSIS/Include/cmsis_gcc.h **** /**
 554:Drivers/CMSIS/Include/cmsis_gcc.h ****   \brief   Set Base Priority
 555:Drivers/CMSIS/Include/cmsis_gcc.h ****   \details Assigns the given value to the Base Priority register.
 556:Drivers/CMSIS/Include/cmsis_gcc.h ****   \param [in]    basePri  Base Priority value to set
 557:Drivers/CMSIS/Include/cmsis_gcc.h ****  */
 558:Drivers/CMSIS/Include/cmsis_gcc.h **** __STATIC_FORCEINLINE void __set_BASEPRI(uint32_t basePri)
 559:Drivers/CMSIS/Include/cmsis_gcc.h **** {
 560:Drivers/CMSIS/Include/cmsis_gcc.h ****   __ASM volatile ("MSR basepri, %0" : : "r" (basePri) : "memory");
 561:Drivers/CMSIS/Include/cmsis_gcc.h **** }
 562:Drivers/CMSIS/Include/cmsis_gcc.h **** 
 563:Drivers/CMSIS/Include/cmsis_gcc.h **** 
 564:Drivers/CMSIS/Include/cmsis_gcc.h **** #if (defined (__ARM_FEATURE_CMSE ) && (__ARM_FEATURE_CMSE == 3))
 565:Drivers/CMSIS/Include/cmsis_gcc.h **** /**
 566:Drivers/CMSIS/Include/cmsis_gcc.h ****   \brief   Set Base Priority (non-secure)
 567:Drivers/CMSIS/Include/cmsis_gcc.h ****   \details Assigns the given value to the non-secure Base Priority register when in secure state.
 568:Drivers/CMSIS/Include/cmsis_gcc.h ****   \param [in]    basePri  Base Priority value to set
 569:Drivers/CMSIS/Include/cmsis_gcc.h ****  */
 570:Drivers/CMSIS/Include/cmsis_gcc.h **** __STATIC_FORCEINLINE void __TZ_set_BASEPRI_NS(uint32_t basePri)
 571:Drivers/CMSIS/Include/cmsis_gcc.h **** {
 572:Drivers/CMSIS/Include/cmsis_gcc.h ****   __ASM volatile ("MSR basepri_ns, %0" : : "r" (basePri) : "memory");
 573:Drivers/CMSIS/Include/cmsis_gcc.h **** }
 574:Drivers/CMSIS/Include/cmsis_gcc.h **** #endif
 575:Drivers/CMSIS/Include/cmsis_gcc.h **** 
 576:Drivers/CMSIS/Include/cmsis_gcc.h **** 
 577:Drivers/CMSIS/Include/cmsis_gcc.h **** /**
 578:Drivers/CMSIS/Include/cmsis_gcc.h ****   \brief   Set Base Priority with condition
 579:Drivers/CMSIS/Include/cmsis_gcc.h ****   \details Assigns the given value to the Base Priority register only if BASEPRI masking is disable
 580:Drivers/CMSIS/Include/cmsis_gcc.h ****            or the new value increases the BASEPRI priority level.
 581:Drivers/CMSIS/Include/cmsis_gcc.h ****   \param [in]    basePri  Base Priority value to set
 582:Drivers/CMSIS/Include/cmsis_gcc.h ****  */
 583:Drivers/CMSIS/Include/cmsis_gcc.h **** __STATIC_FORCEINLINE void __set_BASEPRI_MAX(uint32_t basePri)
 584:Drivers/CMSIS/Include/cmsis_gcc.h **** {
 585:Drivers/CMSIS/Include/cmsis_gcc.h ****   __ASM volatile ("MSR basepri_max, %0" : : "r" (basePri) : "memory");
 586:Drivers/CMSIS/Include/cmsis_gcc.h **** }
 587:Drivers/CMSIS/Include/cmsis_gcc.h **** 
 588:Drivers/CMSIS/Include/cmsis_gcc.h **** 
 589:Drivers/CMSIS/Include/cmsis_gcc.h **** /**
 590:Drivers/CMSIS/Include/cmsis_gcc.h ****   \brief   Get Fault Mask
 591:Drivers/CMSIS/Include/cmsis_gcc.h ****   \details Returns the current value of the Fault Mask register.
 592:Drivers/CMSIS/Include/cmsis_gcc.h ****   \return               Fault Mask register value
 593:Drivers/CMSIS/Include/cmsis_gcc.h ****  */
 594:Drivers/CMSIS/Include/cmsis_gcc.h **** __STATIC_FORCEINLINE uint32_t __get_FAULTMASK(void)
 595:Drivers/CMSIS/Include/cmsis_gcc.h **** {
 596:Drivers/CMSIS/Include/cmsis_gcc.h ****   uint32_t result;
 597:Drivers/CMSIS/Include/cmsis_gcc.h **** 
 598:Drivers/CMSIS/Include/cmsis_gcc.h ****   __ASM volatile ("MRS %0, faultmask" : "=r" (result) );
 599:Drivers/CMSIS/Include/cmsis_gcc.h ****   return(result);
 600:Drivers/CMSIS/Include/cmsis_gcc.h **** }
 601:Drivers/CMSIS/Include/cmsis_gcc.h **** 
 602:Drivers/CMSIS/Include/cmsis_gcc.h **** 
 603:Drivers/CMSIS/Include/cmsis_gcc.h **** #if (defined (__ARM_FEATURE_CMSE ) && (__ARM_FEATURE_CMSE == 3))
 604:Drivers/CMSIS/Include/cmsis_gcc.h **** /**
ARM GAS  C:\Users\JustE\AppData\Local\Temp\ccpkykRb.s 			page 23


 605:Drivers/CMSIS/Include/cmsis_gcc.h ****   \brief   Get Fault Mask (non-secure)
 606:Drivers/CMSIS/Include/cmsis_gcc.h ****   \details Returns the current value of the non-secure Fault Mask register when in secure state.
 607:Drivers/CMSIS/Include/cmsis_gcc.h ****   \return               Fault Mask register value
 608:Drivers/CMSIS/Include/cmsis_gcc.h ****  */
 609:Drivers/CMSIS/Include/cmsis_gcc.h **** __STATIC_FORCEINLINE uint32_t __TZ_get_FAULTMASK_NS(void)
 610:Drivers/CMSIS/Include/cmsis_gcc.h **** {
 611:Drivers/CMSIS/Include/cmsis_gcc.h ****   uint32_t result;
 612:Drivers/CMSIS/Include/cmsis_gcc.h **** 
 613:Drivers/CMSIS/Include/cmsis_gcc.h ****   __ASM volatile ("MRS %0, faultmask_ns" : "=r" (result) );
 614:Drivers/CMSIS/Include/cmsis_gcc.h ****   return(result);
 615:Drivers/CMSIS/Include/cmsis_gcc.h **** }
 616:Drivers/CMSIS/Include/cmsis_gcc.h **** #endif
 617:Drivers/CMSIS/Include/cmsis_gcc.h **** 
 618:Drivers/CMSIS/Include/cmsis_gcc.h **** 
 619:Drivers/CMSIS/Include/cmsis_gcc.h **** /**
 620:Drivers/CMSIS/Include/cmsis_gcc.h ****   \brief   Set Fault Mask
 621:Drivers/CMSIS/Include/cmsis_gcc.h ****   \details Assigns the given value to the Fault Mask register.
 622:Drivers/CMSIS/Include/cmsis_gcc.h ****   \param [in]    faultMask  Fault Mask value to set
 623:Drivers/CMSIS/Include/cmsis_gcc.h ****  */
 624:Drivers/CMSIS/Include/cmsis_gcc.h **** __STATIC_FORCEINLINE void __set_FAULTMASK(uint32_t faultMask)
 625:Drivers/CMSIS/Include/cmsis_gcc.h **** {
 626:Drivers/CMSIS/Include/cmsis_gcc.h ****   __ASM volatile ("MSR faultmask, %0" : : "r" (faultMask) : "memory");
 627:Drivers/CMSIS/Include/cmsis_gcc.h **** }
 628:Drivers/CMSIS/Include/cmsis_gcc.h **** 
 629:Drivers/CMSIS/Include/cmsis_gcc.h **** 
 630:Drivers/CMSIS/Include/cmsis_gcc.h **** #if (defined (__ARM_FEATURE_CMSE ) && (__ARM_FEATURE_CMSE == 3))
 631:Drivers/CMSIS/Include/cmsis_gcc.h **** /**
 632:Drivers/CMSIS/Include/cmsis_gcc.h ****   \brief   Set Fault Mask (non-secure)
 633:Drivers/CMSIS/Include/cmsis_gcc.h ****   \details Assigns the given value to the non-secure Fault Mask register when in secure state.
 634:Drivers/CMSIS/Include/cmsis_gcc.h ****   \param [in]    faultMask  Fault Mask value to set
 635:Drivers/CMSIS/Include/cmsis_gcc.h ****  */
 636:Drivers/CMSIS/Include/cmsis_gcc.h **** __STATIC_FORCEINLINE void __TZ_set_FAULTMASK_NS(uint32_t faultMask)
 637:Drivers/CMSIS/Include/cmsis_gcc.h **** {
 638:Drivers/CMSIS/Include/cmsis_gcc.h ****   __ASM volatile ("MSR faultmask_ns, %0" : : "r" (faultMask) : "memory");
 639:Drivers/CMSIS/Include/cmsis_gcc.h **** }
 640:Drivers/CMSIS/Include/cmsis_gcc.h **** #endif
 641:Drivers/CMSIS/Include/cmsis_gcc.h **** 
 642:Drivers/CMSIS/Include/cmsis_gcc.h **** #endif /* ((defined (__ARM_ARCH_7M__      ) && (__ARM_ARCH_7M__      == 1)) || \
 643:Drivers/CMSIS/Include/cmsis_gcc.h ****            (defined (__ARM_ARCH_7EM__     ) && (__ARM_ARCH_7EM__     == 1)) || \
 644:Drivers/CMSIS/Include/cmsis_gcc.h ****            (defined (__ARM_ARCH_8M_MAIN__ ) && (__ARM_ARCH_8M_MAIN__ == 1))    ) */
 645:Drivers/CMSIS/Include/cmsis_gcc.h **** 
 646:Drivers/CMSIS/Include/cmsis_gcc.h **** 
 647:Drivers/CMSIS/Include/cmsis_gcc.h **** #if ((defined (__ARM_ARCH_8M_MAIN__ ) && (__ARM_ARCH_8M_MAIN__ == 1)) || \
 648:Drivers/CMSIS/Include/cmsis_gcc.h ****      (defined (__ARM_ARCH_8M_BASE__ ) && (__ARM_ARCH_8M_BASE__ == 1))    )
 649:Drivers/CMSIS/Include/cmsis_gcc.h **** 
 650:Drivers/CMSIS/Include/cmsis_gcc.h **** /**
 651:Drivers/CMSIS/Include/cmsis_gcc.h ****   \brief   Get Process Stack Pointer Limit
 652:Drivers/CMSIS/Include/cmsis_gcc.h ****   Devices without ARMv8-M Main Extensions (i.e. Cortex-M23) lack the non-secure
 653:Drivers/CMSIS/Include/cmsis_gcc.h ****   Stack Pointer Limit register hence zero is returned always in non-secure
 654:Drivers/CMSIS/Include/cmsis_gcc.h ****   mode.
 655:Drivers/CMSIS/Include/cmsis_gcc.h ****   
 656:Drivers/CMSIS/Include/cmsis_gcc.h ****   \details Returns the current value of the Process Stack Pointer Limit (PSPLIM).
 657:Drivers/CMSIS/Include/cmsis_gcc.h ****   \return               PSPLIM Register value
 658:Drivers/CMSIS/Include/cmsis_gcc.h ****  */
 659:Drivers/CMSIS/Include/cmsis_gcc.h **** __STATIC_FORCEINLINE uint32_t __get_PSPLIM(void)
 660:Drivers/CMSIS/Include/cmsis_gcc.h **** {
 661:Drivers/CMSIS/Include/cmsis_gcc.h **** #if (!(defined (__ARM_ARCH_8M_MAIN__ ) && (__ARM_ARCH_8M_MAIN__ == 1)) && \
ARM GAS  C:\Users\JustE\AppData\Local\Temp\ccpkykRb.s 			page 24


 662:Drivers/CMSIS/Include/cmsis_gcc.h ****     (!defined (__ARM_FEATURE_CMSE) || (__ARM_FEATURE_CMSE < 3)))
 663:Drivers/CMSIS/Include/cmsis_gcc.h ****     // without main extensions, the non-secure PSPLIM is RAZ/WI
 664:Drivers/CMSIS/Include/cmsis_gcc.h ****   return 0U;
 665:Drivers/CMSIS/Include/cmsis_gcc.h **** #else
 666:Drivers/CMSIS/Include/cmsis_gcc.h ****   uint32_t result;
 667:Drivers/CMSIS/Include/cmsis_gcc.h ****   __ASM volatile ("MRS %0, psplim"  : "=r" (result) );
 668:Drivers/CMSIS/Include/cmsis_gcc.h ****   return result;
 669:Drivers/CMSIS/Include/cmsis_gcc.h **** #endif
 670:Drivers/CMSIS/Include/cmsis_gcc.h **** }
 671:Drivers/CMSIS/Include/cmsis_gcc.h **** 
 672:Drivers/CMSIS/Include/cmsis_gcc.h **** #if (defined (__ARM_FEATURE_CMSE) && (__ARM_FEATURE_CMSE == 3))
 673:Drivers/CMSIS/Include/cmsis_gcc.h **** /**
 674:Drivers/CMSIS/Include/cmsis_gcc.h ****   \brief   Get Process Stack Pointer Limit (non-secure)
 675:Drivers/CMSIS/Include/cmsis_gcc.h ****   Devices without ARMv8-M Main Extensions (i.e. Cortex-M23) lack the non-secure
 676:Drivers/CMSIS/Include/cmsis_gcc.h ****   Stack Pointer Limit register hence zero is returned always.
 677:Drivers/CMSIS/Include/cmsis_gcc.h **** 
 678:Drivers/CMSIS/Include/cmsis_gcc.h ****   \details Returns the current value of the non-secure Process Stack Pointer Limit (PSPLIM) when in
 679:Drivers/CMSIS/Include/cmsis_gcc.h ****   \return               PSPLIM Register value
 680:Drivers/CMSIS/Include/cmsis_gcc.h ****  */
 681:Drivers/CMSIS/Include/cmsis_gcc.h **** __STATIC_FORCEINLINE uint32_t __TZ_get_PSPLIM_NS(void)
 682:Drivers/CMSIS/Include/cmsis_gcc.h **** {
 683:Drivers/CMSIS/Include/cmsis_gcc.h **** #if (!(defined (__ARM_ARCH_8M_MAIN__ ) && (__ARM_ARCH_8M_MAIN__ == 1)))
 684:Drivers/CMSIS/Include/cmsis_gcc.h ****   // without main extensions, the non-secure PSPLIM is RAZ/WI
 685:Drivers/CMSIS/Include/cmsis_gcc.h ****   return 0U;
 686:Drivers/CMSIS/Include/cmsis_gcc.h **** #else
 687:Drivers/CMSIS/Include/cmsis_gcc.h ****   uint32_t result;
 688:Drivers/CMSIS/Include/cmsis_gcc.h ****   __ASM volatile ("MRS %0, psplim_ns"  : "=r" (result) );
 689:Drivers/CMSIS/Include/cmsis_gcc.h ****   return result;
 690:Drivers/CMSIS/Include/cmsis_gcc.h **** #endif
 691:Drivers/CMSIS/Include/cmsis_gcc.h **** }
 692:Drivers/CMSIS/Include/cmsis_gcc.h **** #endif
 693:Drivers/CMSIS/Include/cmsis_gcc.h **** 
 694:Drivers/CMSIS/Include/cmsis_gcc.h **** 
 695:Drivers/CMSIS/Include/cmsis_gcc.h **** /**
 696:Drivers/CMSIS/Include/cmsis_gcc.h ****   \brief   Set Process Stack Pointer Limit
 697:Drivers/CMSIS/Include/cmsis_gcc.h ****   Devices without ARMv8-M Main Extensions (i.e. Cortex-M23) lack the non-secure
 698:Drivers/CMSIS/Include/cmsis_gcc.h ****   Stack Pointer Limit register hence the write is silently ignored in non-secure
 699:Drivers/CMSIS/Include/cmsis_gcc.h ****   mode.
 700:Drivers/CMSIS/Include/cmsis_gcc.h ****   
 701:Drivers/CMSIS/Include/cmsis_gcc.h ****   \details Assigns the given value to the Process Stack Pointer Limit (PSPLIM).
 702:Drivers/CMSIS/Include/cmsis_gcc.h ****   \param [in]    ProcStackPtrLimit  Process Stack Pointer Limit value to set
 703:Drivers/CMSIS/Include/cmsis_gcc.h ****  */
 704:Drivers/CMSIS/Include/cmsis_gcc.h **** __STATIC_FORCEINLINE void __set_PSPLIM(uint32_t ProcStackPtrLimit)
 705:Drivers/CMSIS/Include/cmsis_gcc.h **** {
 706:Drivers/CMSIS/Include/cmsis_gcc.h **** #if (!(defined (__ARM_ARCH_8M_MAIN__ ) && (__ARM_ARCH_8M_MAIN__ == 1)) && \
 707:Drivers/CMSIS/Include/cmsis_gcc.h ****     (!defined (__ARM_FEATURE_CMSE) || (__ARM_FEATURE_CMSE < 3)))
 708:Drivers/CMSIS/Include/cmsis_gcc.h ****   // without main extensions, the non-secure PSPLIM is RAZ/WI
 709:Drivers/CMSIS/Include/cmsis_gcc.h ****   (void)ProcStackPtrLimit;
 710:Drivers/CMSIS/Include/cmsis_gcc.h **** #else
 711:Drivers/CMSIS/Include/cmsis_gcc.h ****   __ASM volatile ("MSR psplim, %0" : : "r" (ProcStackPtrLimit));
 712:Drivers/CMSIS/Include/cmsis_gcc.h **** #endif
 713:Drivers/CMSIS/Include/cmsis_gcc.h **** }
 714:Drivers/CMSIS/Include/cmsis_gcc.h **** 
 715:Drivers/CMSIS/Include/cmsis_gcc.h **** 
 716:Drivers/CMSIS/Include/cmsis_gcc.h **** #if (defined (__ARM_FEATURE_CMSE  ) && (__ARM_FEATURE_CMSE   == 3))
 717:Drivers/CMSIS/Include/cmsis_gcc.h **** /**
 718:Drivers/CMSIS/Include/cmsis_gcc.h ****   \brief   Set Process Stack Pointer (non-secure)
ARM GAS  C:\Users\JustE\AppData\Local\Temp\ccpkykRb.s 			page 25


 719:Drivers/CMSIS/Include/cmsis_gcc.h ****   Devices without ARMv8-M Main Extensions (i.e. Cortex-M23) lack the non-secure
 720:Drivers/CMSIS/Include/cmsis_gcc.h ****   Stack Pointer Limit register hence the write is silently ignored.
 721:Drivers/CMSIS/Include/cmsis_gcc.h **** 
 722:Drivers/CMSIS/Include/cmsis_gcc.h ****   \details Assigns the given value to the non-secure Process Stack Pointer Limit (PSPLIM) when in s
 723:Drivers/CMSIS/Include/cmsis_gcc.h ****   \param [in]    ProcStackPtrLimit  Process Stack Pointer Limit value to set
 724:Drivers/CMSIS/Include/cmsis_gcc.h ****  */
 725:Drivers/CMSIS/Include/cmsis_gcc.h **** __STATIC_FORCEINLINE void __TZ_set_PSPLIM_NS(uint32_t ProcStackPtrLimit)
 726:Drivers/CMSIS/Include/cmsis_gcc.h **** {
 727:Drivers/CMSIS/Include/cmsis_gcc.h **** #if (!(defined (__ARM_ARCH_8M_MAIN__ ) && (__ARM_ARCH_8M_MAIN__ == 1)))
 728:Drivers/CMSIS/Include/cmsis_gcc.h ****   // without main extensions, the non-secure PSPLIM is RAZ/WI
 729:Drivers/CMSIS/Include/cmsis_gcc.h ****   (void)ProcStackPtrLimit;
 730:Drivers/CMSIS/Include/cmsis_gcc.h **** #else
 731:Drivers/CMSIS/Include/cmsis_gcc.h ****   __ASM volatile ("MSR psplim_ns, %0\n" : : "r" (ProcStackPtrLimit));
 732:Drivers/CMSIS/Include/cmsis_gcc.h **** #endif
 733:Drivers/CMSIS/Include/cmsis_gcc.h **** }
 734:Drivers/CMSIS/Include/cmsis_gcc.h **** #endif
 735:Drivers/CMSIS/Include/cmsis_gcc.h **** 
 736:Drivers/CMSIS/Include/cmsis_gcc.h **** 
 737:Drivers/CMSIS/Include/cmsis_gcc.h **** /**
 738:Drivers/CMSIS/Include/cmsis_gcc.h ****   \brief   Get Main Stack Pointer Limit
 739:Drivers/CMSIS/Include/cmsis_gcc.h ****   Devices without ARMv8-M Main Extensions (i.e. Cortex-M23) lack the non-secure
 740:Drivers/CMSIS/Include/cmsis_gcc.h ****   Stack Pointer Limit register hence zero is returned always in non-secure
 741:Drivers/CMSIS/Include/cmsis_gcc.h ****   mode.
 742:Drivers/CMSIS/Include/cmsis_gcc.h **** 
 743:Drivers/CMSIS/Include/cmsis_gcc.h ****   \details Returns the current value of the Main Stack Pointer Limit (MSPLIM).
 744:Drivers/CMSIS/Include/cmsis_gcc.h ****   \return               MSPLIM Register value
 745:Drivers/CMSIS/Include/cmsis_gcc.h ****  */
 746:Drivers/CMSIS/Include/cmsis_gcc.h **** __STATIC_FORCEINLINE uint32_t __get_MSPLIM(void)
 747:Drivers/CMSIS/Include/cmsis_gcc.h **** {
 748:Drivers/CMSIS/Include/cmsis_gcc.h **** #if (!(defined (__ARM_ARCH_8M_MAIN__ ) && (__ARM_ARCH_8M_MAIN__ == 1)) && \
 749:Drivers/CMSIS/Include/cmsis_gcc.h ****     (!defined (__ARM_FEATURE_CMSE) || (__ARM_FEATURE_CMSE < 3)))
 750:Drivers/CMSIS/Include/cmsis_gcc.h ****   // without main extensions, the non-secure MSPLIM is RAZ/WI
 751:Drivers/CMSIS/Include/cmsis_gcc.h ****   return 0U;
 752:Drivers/CMSIS/Include/cmsis_gcc.h **** #else
 753:Drivers/CMSIS/Include/cmsis_gcc.h ****   uint32_t result;
 754:Drivers/CMSIS/Include/cmsis_gcc.h ****   __ASM volatile ("MRS %0, msplim" : "=r" (result) );
 755:Drivers/CMSIS/Include/cmsis_gcc.h ****   return result;
 756:Drivers/CMSIS/Include/cmsis_gcc.h **** #endif
 757:Drivers/CMSIS/Include/cmsis_gcc.h **** }
 758:Drivers/CMSIS/Include/cmsis_gcc.h **** 
 759:Drivers/CMSIS/Include/cmsis_gcc.h **** 
 760:Drivers/CMSIS/Include/cmsis_gcc.h **** #if (defined (__ARM_FEATURE_CMSE  ) && (__ARM_FEATURE_CMSE   == 3))
 761:Drivers/CMSIS/Include/cmsis_gcc.h **** /**
 762:Drivers/CMSIS/Include/cmsis_gcc.h ****   \brief   Get Main Stack Pointer Limit (non-secure)
 763:Drivers/CMSIS/Include/cmsis_gcc.h ****   Devices without ARMv8-M Main Extensions (i.e. Cortex-M23) lack the non-secure
 764:Drivers/CMSIS/Include/cmsis_gcc.h ****   Stack Pointer Limit register hence zero is returned always.
 765:Drivers/CMSIS/Include/cmsis_gcc.h **** 
 766:Drivers/CMSIS/Include/cmsis_gcc.h ****   \details Returns the current value of the non-secure Main Stack Pointer Limit(MSPLIM) when in sec
 767:Drivers/CMSIS/Include/cmsis_gcc.h ****   \return               MSPLIM Register value
 768:Drivers/CMSIS/Include/cmsis_gcc.h ****  */
 769:Drivers/CMSIS/Include/cmsis_gcc.h **** __STATIC_FORCEINLINE uint32_t __TZ_get_MSPLIM_NS(void)
 770:Drivers/CMSIS/Include/cmsis_gcc.h **** {
 771:Drivers/CMSIS/Include/cmsis_gcc.h **** #if (!(defined (__ARM_ARCH_8M_MAIN__ ) && (__ARM_ARCH_8M_MAIN__ == 1)))
 772:Drivers/CMSIS/Include/cmsis_gcc.h ****   // without main extensions, the non-secure MSPLIM is RAZ/WI
 773:Drivers/CMSIS/Include/cmsis_gcc.h ****   return 0U;
 774:Drivers/CMSIS/Include/cmsis_gcc.h **** #else
 775:Drivers/CMSIS/Include/cmsis_gcc.h ****   uint32_t result;
ARM GAS  C:\Users\JustE\AppData\Local\Temp\ccpkykRb.s 			page 26


 776:Drivers/CMSIS/Include/cmsis_gcc.h ****   __ASM volatile ("MRS %0, msplim_ns" : "=r" (result) );
 777:Drivers/CMSIS/Include/cmsis_gcc.h ****   return result;
 778:Drivers/CMSIS/Include/cmsis_gcc.h **** #endif
 779:Drivers/CMSIS/Include/cmsis_gcc.h **** }
 780:Drivers/CMSIS/Include/cmsis_gcc.h **** #endif
 781:Drivers/CMSIS/Include/cmsis_gcc.h **** 
 782:Drivers/CMSIS/Include/cmsis_gcc.h **** 
 783:Drivers/CMSIS/Include/cmsis_gcc.h **** /**
 784:Drivers/CMSIS/Include/cmsis_gcc.h ****   \brief   Set Main Stack Pointer Limit
 785:Drivers/CMSIS/Include/cmsis_gcc.h ****   Devices without ARMv8-M Main Extensions (i.e. Cortex-M23) lack the non-secure
 786:Drivers/CMSIS/Include/cmsis_gcc.h ****   Stack Pointer Limit register hence the write is silently ignored in non-secure
 787:Drivers/CMSIS/Include/cmsis_gcc.h ****   mode.
 788:Drivers/CMSIS/Include/cmsis_gcc.h **** 
 789:Drivers/CMSIS/Include/cmsis_gcc.h ****   \details Assigns the given value to the Main Stack Pointer Limit (MSPLIM).
 790:Drivers/CMSIS/Include/cmsis_gcc.h ****   \param [in]    MainStackPtrLimit  Main Stack Pointer Limit value to set
 791:Drivers/CMSIS/Include/cmsis_gcc.h ****  */
 792:Drivers/CMSIS/Include/cmsis_gcc.h **** __STATIC_FORCEINLINE void __set_MSPLIM(uint32_t MainStackPtrLimit)
 793:Drivers/CMSIS/Include/cmsis_gcc.h **** {
 794:Drivers/CMSIS/Include/cmsis_gcc.h **** #if (!(defined (__ARM_ARCH_8M_MAIN__ ) && (__ARM_ARCH_8M_MAIN__ == 1)) && \
 795:Drivers/CMSIS/Include/cmsis_gcc.h ****     (!defined (__ARM_FEATURE_CMSE) || (__ARM_FEATURE_CMSE < 3)))
 796:Drivers/CMSIS/Include/cmsis_gcc.h ****   // without main extensions, the non-secure MSPLIM is RAZ/WI
 797:Drivers/CMSIS/Include/cmsis_gcc.h ****   (void)MainStackPtrLimit;
 798:Drivers/CMSIS/Include/cmsis_gcc.h **** #else
 799:Drivers/CMSIS/Include/cmsis_gcc.h ****   __ASM volatile ("MSR msplim, %0" : : "r" (MainStackPtrLimit));
 800:Drivers/CMSIS/Include/cmsis_gcc.h **** #endif
 801:Drivers/CMSIS/Include/cmsis_gcc.h **** }
 802:Drivers/CMSIS/Include/cmsis_gcc.h **** 
 803:Drivers/CMSIS/Include/cmsis_gcc.h **** 
 804:Drivers/CMSIS/Include/cmsis_gcc.h **** #if (defined (__ARM_FEATURE_CMSE  ) && (__ARM_FEATURE_CMSE   == 3))
 805:Drivers/CMSIS/Include/cmsis_gcc.h **** /**
 806:Drivers/CMSIS/Include/cmsis_gcc.h ****   \brief   Set Main Stack Pointer Limit (non-secure)
 807:Drivers/CMSIS/Include/cmsis_gcc.h ****   Devices without ARMv8-M Main Extensions (i.e. Cortex-M23) lack the non-secure
 808:Drivers/CMSIS/Include/cmsis_gcc.h ****   Stack Pointer Limit register hence the write is silently ignored.
 809:Drivers/CMSIS/Include/cmsis_gcc.h **** 
 810:Drivers/CMSIS/Include/cmsis_gcc.h ****   \details Assigns the given value to the non-secure Main Stack Pointer Limit (MSPLIM) when in secu
 811:Drivers/CMSIS/Include/cmsis_gcc.h ****   \param [in]    MainStackPtrLimit  Main Stack Pointer value to set
 812:Drivers/CMSIS/Include/cmsis_gcc.h ****  */
 813:Drivers/CMSIS/Include/cmsis_gcc.h **** __STATIC_FORCEINLINE void __TZ_set_MSPLIM_NS(uint32_t MainStackPtrLimit)
 814:Drivers/CMSIS/Include/cmsis_gcc.h **** {
 815:Drivers/CMSIS/Include/cmsis_gcc.h **** #if (!(defined (__ARM_ARCH_8M_MAIN__ ) && (__ARM_ARCH_8M_MAIN__ == 1)))
 816:Drivers/CMSIS/Include/cmsis_gcc.h ****   // without main extensions, the non-secure MSPLIM is RAZ/WI
 817:Drivers/CMSIS/Include/cmsis_gcc.h ****   (void)MainStackPtrLimit;
 818:Drivers/CMSIS/Include/cmsis_gcc.h **** #else
 819:Drivers/CMSIS/Include/cmsis_gcc.h ****   __ASM volatile ("MSR msplim_ns, %0" : : "r" (MainStackPtrLimit));
 820:Drivers/CMSIS/Include/cmsis_gcc.h **** #endif
 821:Drivers/CMSIS/Include/cmsis_gcc.h **** }
 822:Drivers/CMSIS/Include/cmsis_gcc.h **** #endif
 823:Drivers/CMSIS/Include/cmsis_gcc.h **** 
 824:Drivers/CMSIS/Include/cmsis_gcc.h **** #endif /* ((defined (__ARM_ARCH_8M_MAIN__ ) && (__ARM_ARCH_8M_MAIN__ == 1)) || \
 825:Drivers/CMSIS/Include/cmsis_gcc.h ****            (defined (__ARM_ARCH_8M_BASE__ ) && (__ARM_ARCH_8M_BASE__ == 1))    ) */
 826:Drivers/CMSIS/Include/cmsis_gcc.h **** 
 827:Drivers/CMSIS/Include/cmsis_gcc.h **** 
 828:Drivers/CMSIS/Include/cmsis_gcc.h **** /**
 829:Drivers/CMSIS/Include/cmsis_gcc.h ****   \brief   Get FPSCR
 830:Drivers/CMSIS/Include/cmsis_gcc.h ****   \details Returns the current value of the Floating Point Status/Control register.
 831:Drivers/CMSIS/Include/cmsis_gcc.h ****   \return               Floating Point Status/Control register value
 832:Drivers/CMSIS/Include/cmsis_gcc.h ****  */
ARM GAS  C:\Users\JustE\AppData\Local\Temp\ccpkykRb.s 			page 27


 833:Drivers/CMSIS/Include/cmsis_gcc.h **** __STATIC_FORCEINLINE uint32_t __get_FPSCR(void)
 834:Drivers/CMSIS/Include/cmsis_gcc.h **** {
 835:Drivers/CMSIS/Include/cmsis_gcc.h **** #if ((defined (__FPU_PRESENT) && (__FPU_PRESENT == 1U)) && \
 836:Drivers/CMSIS/Include/cmsis_gcc.h ****      (defined (__FPU_USED   ) && (__FPU_USED    == 1U))     )
 837:Drivers/CMSIS/Include/cmsis_gcc.h **** #if __has_builtin(__builtin_arm_get_fpscr) 
 838:Drivers/CMSIS/Include/cmsis_gcc.h **** // Re-enable using built-in when GCC has been fixed
 839:Drivers/CMSIS/Include/cmsis_gcc.h **** // || (__GNUC__ > 7) || (__GNUC__ == 7 && __GNUC_MINOR__ >= 2)
 840:Drivers/CMSIS/Include/cmsis_gcc.h ****   /* see https://gcc.gnu.org/ml/gcc-patches/2017-04/msg00443.html */
 841:Drivers/CMSIS/Include/cmsis_gcc.h ****   return __builtin_arm_get_fpscr();
 842:Drivers/CMSIS/Include/cmsis_gcc.h **** #else
 843:Drivers/CMSIS/Include/cmsis_gcc.h ****   uint32_t result;
 844:Drivers/CMSIS/Include/cmsis_gcc.h **** 
 845:Drivers/CMSIS/Include/cmsis_gcc.h ****   __ASM volatile ("VMRS %0, fpscr" : "=r" (result) );
 846:Drivers/CMSIS/Include/cmsis_gcc.h ****   return(result);
 847:Drivers/CMSIS/Include/cmsis_gcc.h **** #endif
 848:Drivers/CMSIS/Include/cmsis_gcc.h **** #else
 849:Drivers/CMSIS/Include/cmsis_gcc.h ****   return(0U);
 850:Drivers/CMSIS/Include/cmsis_gcc.h **** #endif
 851:Drivers/CMSIS/Include/cmsis_gcc.h **** }
 852:Drivers/CMSIS/Include/cmsis_gcc.h **** 
 853:Drivers/CMSIS/Include/cmsis_gcc.h **** 
 854:Drivers/CMSIS/Include/cmsis_gcc.h **** /**
 855:Drivers/CMSIS/Include/cmsis_gcc.h ****   \brief   Set FPSCR
 856:Drivers/CMSIS/Include/cmsis_gcc.h ****   \details Assigns the given value to the Floating Point Status/Control register.
 857:Drivers/CMSIS/Include/cmsis_gcc.h ****   \param [in]    fpscr  Floating Point Status/Control value to set
 858:Drivers/CMSIS/Include/cmsis_gcc.h ****  */
 859:Drivers/CMSIS/Include/cmsis_gcc.h **** __STATIC_FORCEINLINE void __set_FPSCR(uint32_t fpscr)
 860:Drivers/CMSIS/Include/cmsis_gcc.h **** {
 861:Drivers/CMSIS/Include/cmsis_gcc.h **** #if ((defined (__FPU_PRESENT) && (__FPU_PRESENT == 1U)) && \
 862:Drivers/CMSIS/Include/cmsis_gcc.h ****      (defined (__FPU_USED   ) && (__FPU_USED    == 1U))     )
 863:Drivers/CMSIS/Include/cmsis_gcc.h **** #if __has_builtin(__builtin_arm_set_fpscr)
 864:Drivers/CMSIS/Include/cmsis_gcc.h **** // Re-enable using built-in when GCC has been fixed
 865:Drivers/CMSIS/Include/cmsis_gcc.h **** // || (__GNUC__ > 7) || (__GNUC__ == 7 && __GNUC_MINOR__ >= 2)
 866:Drivers/CMSIS/Include/cmsis_gcc.h ****   /* see https://gcc.gnu.org/ml/gcc-patches/2017-04/msg00443.html */
 867:Drivers/CMSIS/Include/cmsis_gcc.h ****   __builtin_arm_set_fpscr(fpscr);
 868:Drivers/CMSIS/Include/cmsis_gcc.h **** #else
 869:Drivers/CMSIS/Include/cmsis_gcc.h ****   __ASM volatile ("VMSR fpscr, %0" : : "r" (fpscr) : "vfpcc", "memory");
 870:Drivers/CMSIS/Include/cmsis_gcc.h **** #endif
 871:Drivers/CMSIS/Include/cmsis_gcc.h **** #else
 872:Drivers/CMSIS/Include/cmsis_gcc.h ****   (void)fpscr;
 873:Drivers/CMSIS/Include/cmsis_gcc.h **** #endif
 874:Drivers/CMSIS/Include/cmsis_gcc.h **** }
 875:Drivers/CMSIS/Include/cmsis_gcc.h **** 
 876:Drivers/CMSIS/Include/cmsis_gcc.h **** 
 877:Drivers/CMSIS/Include/cmsis_gcc.h **** /*@} end of CMSIS_Core_RegAccFunctions */
 878:Drivers/CMSIS/Include/cmsis_gcc.h **** 
 879:Drivers/CMSIS/Include/cmsis_gcc.h **** 
 880:Drivers/CMSIS/Include/cmsis_gcc.h **** /* ##########################  Core Instruction Access  ######################### */
 881:Drivers/CMSIS/Include/cmsis_gcc.h **** /** \defgroup CMSIS_Core_InstructionInterface CMSIS Core Instruction Interface
 882:Drivers/CMSIS/Include/cmsis_gcc.h ****   Access to dedicated instructions
 883:Drivers/CMSIS/Include/cmsis_gcc.h ****   @{
 884:Drivers/CMSIS/Include/cmsis_gcc.h **** */
 885:Drivers/CMSIS/Include/cmsis_gcc.h **** 
 886:Drivers/CMSIS/Include/cmsis_gcc.h **** /* Define macros for porting to both thumb1 and thumb2.
 887:Drivers/CMSIS/Include/cmsis_gcc.h ****  * For thumb1, use low register (r0-r7), specified by constraint "l"
 888:Drivers/CMSIS/Include/cmsis_gcc.h ****  * Otherwise, use general registers, specified by constraint "r" */
 889:Drivers/CMSIS/Include/cmsis_gcc.h **** #if defined (__thumb__) && !defined (__thumb2__)
ARM GAS  C:\Users\JustE\AppData\Local\Temp\ccpkykRb.s 			page 28


 890:Drivers/CMSIS/Include/cmsis_gcc.h **** #define __CMSIS_GCC_OUT_REG(r) "=l" (r)
 891:Drivers/CMSIS/Include/cmsis_gcc.h **** #define __CMSIS_GCC_RW_REG(r) "+l" (r)
 892:Drivers/CMSIS/Include/cmsis_gcc.h **** #define __CMSIS_GCC_USE_REG(r) "l" (r)
 893:Drivers/CMSIS/Include/cmsis_gcc.h **** #else
 894:Drivers/CMSIS/Include/cmsis_gcc.h **** #define __CMSIS_GCC_OUT_REG(r) "=r" (r)
 895:Drivers/CMSIS/Include/cmsis_gcc.h **** #define __CMSIS_GCC_RW_REG(r) "+r" (r)
 896:Drivers/CMSIS/Include/cmsis_gcc.h **** #define __CMSIS_GCC_USE_REG(r) "r" (r)
 897:Drivers/CMSIS/Include/cmsis_gcc.h **** #endif
 898:Drivers/CMSIS/Include/cmsis_gcc.h **** 
 899:Drivers/CMSIS/Include/cmsis_gcc.h **** /**
 900:Drivers/CMSIS/Include/cmsis_gcc.h ****   \brief   No Operation
 901:Drivers/CMSIS/Include/cmsis_gcc.h ****   \details No Operation does nothing. This instruction can be used for code alignment purposes.
 902:Drivers/CMSIS/Include/cmsis_gcc.h ****  */
 903:Drivers/CMSIS/Include/cmsis_gcc.h **** #define __NOP()                             __ASM volatile ("nop")
 904:Drivers/CMSIS/Include/cmsis_gcc.h **** 
 905:Drivers/CMSIS/Include/cmsis_gcc.h **** /**
 906:Drivers/CMSIS/Include/cmsis_gcc.h ****   \brief   Wait For Interrupt
 907:Drivers/CMSIS/Include/cmsis_gcc.h ****   \details Wait For Interrupt is a hint instruction that suspends execution until one of a number o
 908:Drivers/CMSIS/Include/cmsis_gcc.h ****  */
 909:Drivers/CMSIS/Include/cmsis_gcc.h **** #define __WFI()                             __ASM volatile ("wfi")
 910:Drivers/CMSIS/Include/cmsis_gcc.h **** 
 911:Drivers/CMSIS/Include/cmsis_gcc.h **** 
 912:Drivers/CMSIS/Include/cmsis_gcc.h **** /**
 913:Drivers/CMSIS/Include/cmsis_gcc.h ****   \brief   Wait For Event
 914:Drivers/CMSIS/Include/cmsis_gcc.h ****   \details Wait For Event is a hint instruction that permits the processor to enter
 915:Drivers/CMSIS/Include/cmsis_gcc.h ****            a low-power state until one of a number of events occurs.
 916:Drivers/CMSIS/Include/cmsis_gcc.h ****  */
 917:Drivers/CMSIS/Include/cmsis_gcc.h **** #define __WFE()                             __ASM volatile ("wfe")
 918:Drivers/CMSIS/Include/cmsis_gcc.h **** 
 919:Drivers/CMSIS/Include/cmsis_gcc.h **** 
 920:Drivers/CMSIS/Include/cmsis_gcc.h **** /**
 921:Drivers/CMSIS/Include/cmsis_gcc.h ****   \brief   Send Event
 922:Drivers/CMSIS/Include/cmsis_gcc.h ****   \details Send Event is a hint instruction. It causes an event to be signaled to the CPU.
 923:Drivers/CMSIS/Include/cmsis_gcc.h ****  */
 924:Drivers/CMSIS/Include/cmsis_gcc.h **** #define __SEV()                             __ASM volatile ("sev")
 925:Drivers/CMSIS/Include/cmsis_gcc.h **** 
 926:Drivers/CMSIS/Include/cmsis_gcc.h **** 
 927:Drivers/CMSIS/Include/cmsis_gcc.h **** /**
 928:Drivers/CMSIS/Include/cmsis_gcc.h ****   \brief   Instruction Synchronization Barrier
 929:Drivers/CMSIS/Include/cmsis_gcc.h ****   \details Instruction Synchronization Barrier flushes the pipeline in the processor,
 930:Drivers/CMSIS/Include/cmsis_gcc.h ****            so that all instructions following the ISB are fetched from cache or memory,
 931:Drivers/CMSIS/Include/cmsis_gcc.h ****            after the instruction has been completed.
 932:Drivers/CMSIS/Include/cmsis_gcc.h ****  */
 933:Drivers/CMSIS/Include/cmsis_gcc.h **** __STATIC_FORCEINLINE void __ISB(void)
 934:Drivers/CMSIS/Include/cmsis_gcc.h **** {
 935:Drivers/CMSIS/Include/cmsis_gcc.h ****   __ASM volatile ("isb 0xF":::"memory");
 936:Drivers/CMSIS/Include/cmsis_gcc.h **** }
 937:Drivers/CMSIS/Include/cmsis_gcc.h **** 
 938:Drivers/CMSIS/Include/cmsis_gcc.h **** 
 939:Drivers/CMSIS/Include/cmsis_gcc.h **** /**
 940:Drivers/CMSIS/Include/cmsis_gcc.h ****   \brief   Data Synchronization Barrier
 941:Drivers/CMSIS/Include/cmsis_gcc.h ****   \details Acts as a special kind of Data Memory Barrier.
 942:Drivers/CMSIS/Include/cmsis_gcc.h ****            It completes when all explicit memory accesses before this instruction complete.
 943:Drivers/CMSIS/Include/cmsis_gcc.h ****  */
 944:Drivers/CMSIS/Include/cmsis_gcc.h **** __STATIC_FORCEINLINE void __DSB(void)
 945:Drivers/CMSIS/Include/cmsis_gcc.h **** {
 946:Drivers/CMSIS/Include/cmsis_gcc.h ****   __ASM volatile ("dsb 0xF":::"memory");
ARM GAS  C:\Users\JustE\AppData\Local\Temp\ccpkykRb.s 			page 29


 947:Drivers/CMSIS/Include/cmsis_gcc.h **** }
 948:Drivers/CMSIS/Include/cmsis_gcc.h **** 
 949:Drivers/CMSIS/Include/cmsis_gcc.h **** 
 950:Drivers/CMSIS/Include/cmsis_gcc.h **** /**
 951:Drivers/CMSIS/Include/cmsis_gcc.h ****   \brief   Data Memory Barrier
 952:Drivers/CMSIS/Include/cmsis_gcc.h ****   \details Ensures the apparent order of the explicit memory operations before
 953:Drivers/CMSIS/Include/cmsis_gcc.h ****            and after the instruction, without ensuring their completion.
 954:Drivers/CMSIS/Include/cmsis_gcc.h ****  */
 955:Drivers/CMSIS/Include/cmsis_gcc.h **** __STATIC_FORCEINLINE void __DMB(void)
 956:Drivers/CMSIS/Include/cmsis_gcc.h **** {
 957:Drivers/CMSIS/Include/cmsis_gcc.h ****   __ASM volatile ("dmb 0xF":::"memory");
 958:Drivers/CMSIS/Include/cmsis_gcc.h **** }
 959:Drivers/CMSIS/Include/cmsis_gcc.h **** 
 960:Drivers/CMSIS/Include/cmsis_gcc.h **** 
 961:Drivers/CMSIS/Include/cmsis_gcc.h **** /**
 962:Drivers/CMSIS/Include/cmsis_gcc.h ****   \brief   Reverse byte order (32 bit)
 963:Drivers/CMSIS/Include/cmsis_gcc.h ****   \details Reverses the byte order in unsigned integer value. For example, 0x12345678 becomes 0x785
 964:Drivers/CMSIS/Include/cmsis_gcc.h ****   \param [in]    value  Value to reverse
 965:Drivers/CMSIS/Include/cmsis_gcc.h ****   \return               Reversed value
 966:Drivers/CMSIS/Include/cmsis_gcc.h ****  */
 967:Drivers/CMSIS/Include/cmsis_gcc.h **** __STATIC_FORCEINLINE uint32_t __REV(uint32_t value)
 968:Drivers/CMSIS/Include/cmsis_gcc.h **** {
 969:Drivers/CMSIS/Include/cmsis_gcc.h **** #if (__GNUC__ > 4) || (__GNUC__ == 4 && __GNUC_MINOR__ >= 5)
 970:Drivers/CMSIS/Include/cmsis_gcc.h ****   return __builtin_bswap32(value);
 971:Drivers/CMSIS/Include/cmsis_gcc.h **** #else
 972:Drivers/CMSIS/Include/cmsis_gcc.h ****   uint32_t result;
 973:Drivers/CMSIS/Include/cmsis_gcc.h **** 
 974:Drivers/CMSIS/Include/cmsis_gcc.h ****   __ASM volatile ("rev %0, %1" : __CMSIS_GCC_OUT_REG (result) : __CMSIS_GCC_USE_REG (value) );
 975:Drivers/CMSIS/Include/cmsis_gcc.h ****   return result;
 976:Drivers/CMSIS/Include/cmsis_gcc.h **** #endif
 977:Drivers/CMSIS/Include/cmsis_gcc.h **** }
 978:Drivers/CMSIS/Include/cmsis_gcc.h **** 
 979:Drivers/CMSIS/Include/cmsis_gcc.h **** 
 980:Drivers/CMSIS/Include/cmsis_gcc.h **** /**
 981:Drivers/CMSIS/Include/cmsis_gcc.h ****   \brief   Reverse byte order (16 bit)
 982:Drivers/CMSIS/Include/cmsis_gcc.h ****   \details Reverses the byte order within each halfword of a word. For example, 0x12345678 becomes 
 983:Drivers/CMSIS/Include/cmsis_gcc.h ****   \param [in]    value  Value to reverse
 984:Drivers/CMSIS/Include/cmsis_gcc.h ****   \return               Reversed value
 985:Drivers/CMSIS/Include/cmsis_gcc.h ****  */
 986:Drivers/CMSIS/Include/cmsis_gcc.h **** __STATIC_FORCEINLINE uint32_t __REV16(uint32_t value)
 987:Drivers/CMSIS/Include/cmsis_gcc.h **** {
 988:Drivers/CMSIS/Include/cmsis_gcc.h ****   uint32_t result;
 989:Drivers/CMSIS/Include/cmsis_gcc.h **** 
 990:Drivers/CMSIS/Include/cmsis_gcc.h ****   __ASM volatile ("rev16 %0, %1" : __CMSIS_GCC_OUT_REG (result) : __CMSIS_GCC_USE_REG (value) );
 991:Drivers/CMSIS/Include/cmsis_gcc.h ****   return result;
 992:Drivers/CMSIS/Include/cmsis_gcc.h **** }
 993:Drivers/CMSIS/Include/cmsis_gcc.h **** 
 994:Drivers/CMSIS/Include/cmsis_gcc.h **** 
 995:Drivers/CMSIS/Include/cmsis_gcc.h **** /**
 996:Drivers/CMSIS/Include/cmsis_gcc.h ****   \brief   Reverse byte order (16 bit)
 997:Drivers/CMSIS/Include/cmsis_gcc.h ****   \details Reverses the byte order in a 16-bit value and returns the signed 16-bit result. For exam
 998:Drivers/CMSIS/Include/cmsis_gcc.h ****   \param [in]    value  Value to reverse
 999:Drivers/CMSIS/Include/cmsis_gcc.h ****   \return               Reversed value
1000:Drivers/CMSIS/Include/cmsis_gcc.h ****  */
1001:Drivers/CMSIS/Include/cmsis_gcc.h **** __STATIC_FORCEINLINE int16_t __REVSH(int16_t value)
1002:Drivers/CMSIS/Include/cmsis_gcc.h **** {
1003:Drivers/CMSIS/Include/cmsis_gcc.h **** #if (__GNUC__ > 4) || (__GNUC__ == 4 && __GNUC_MINOR__ >= 8)
ARM GAS  C:\Users\JustE\AppData\Local\Temp\ccpkykRb.s 			page 30


1004:Drivers/CMSIS/Include/cmsis_gcc.h ****   return (int16_t)__builtin_bswap16(value);
1005:Drivers/CMSIS/Include/cmsis_gcc.h **** #else
1006:Drivers/CMSIS/Include/cmsis_gcc.h ****   int16_t result;
1007:Drivers/CMSIS/Include/cmsis_gcc.h **** 
1008:Drivers/CMSIS/Include/cmsis_gcc.h ****   __ASM volatile ("revsh %0, %1" : __CMSIS_GCC_OUT_REG (result) : __CMSIS_GCC_USE_REG (value) );
1009:Drivers/CMSIS/Include/cmsis_gcc.h ****   return result;
1010:Drivers/CMSIS/Include/cmsis_gcc.h **** #endif
1011:Drivers/CMSIS/Include/cmsis_gcc.h **** }
1012:Drivers/CMSIS/Include/cmsis_gcc.h **** 
1013:Drivers/CMSIS/Include/cmsis_gcc.h **** 
1014:Drivers/CMSIS/Include/cmsis_gcc.h **** /**
1015:Drivers/CMSIS/Include/cmsis_gcc.h ****   \brief   Rotate Right in unsigned value (32 bit)
1016:Drivers/CMSIS/Include/cmsis_gcc.h ****   \details Rotate Right (immediate) provides the value of the contents of a register rotated by a v
1017:Drivers/CMSIS/Include/cmsis_gcc.h ****   \param [in]    op1  Value to rotate
1018:Drivers/CMSIS/Include/cmsis_gcc.h ****   \param [in]    op2  Number of Bits to rotate
1019:Drivers/CMSIS/Include/cmsis_gcc.h ****   \return               Rotated value
1020:Drivers/CMSIS/Include/cmsis_gcc.h ****  */
1021:Drivers/CMSIS/Include/cmsis_gcc.h **** __STATIC_FORCEINLINE uint32_t __ROR(uint32_t op1, uint32_t op2)
1022:Drivers/CMSIS/Include/cmsis_gcc.h **** {
1023:Drivers/CMSIS/Include/cmsis_gcc.h ****   op2 %= 32U;
1024:Drivers/CMSIS/Include/cmsis_gcc.h ****   if (op2 == 0U)
1025:Drivers/CMSIS/Include/cmsis_gcc.h ****   {
1026:Drivers/CMSIS/Include/cmsis_gcc.h ****     return op1;
1027:Drivers/CMSIS/Include/cmsis_gcc.h ****   }
1028:Drivers/CMSIS/Include/cmsis_gcc.h ****   return (op1 >> op2) | (op1 << (32U - op2));
1029:Drivers/CMSIS/Include/cmsis_gcc.h **** }
1030:Drivers/CMSIS/Include/cmsis_gcc.h **** 
1031:Drivers/CMSIS/Include/cmsis_gcc.h **** 
1032:Drivers/CMSIS/Include/cmsis_gcc.h **** /**
1033:Drivers/CMSIS/Include/cmsis_gcc.h ****   \brief   Breakpoint
1034:Drivers/CMSIS/Include/cmsis_gcc.h ****   \details Causes the processor to enter Debug state.
1035:Drivers/CMSIS/Include/cmsis_gcc.h ****            Debug tools can use this to investigate system state when the instruction at a particula
1036:Drivers/CMSIS/Include/cmsis_gcc.h ****   \param [in]    value  is ignored by the processor.
1037:Drivers/CMSIS/Include/cmsis_gcc.h ****                  If required, a debugger can use it to store additional information about the break
1038:Drivers/CMSIS/Include/cmsis_gcc.h ****  */
1039:Drivers/CMSIS/Include/cmsis_gcc.h **** #define __BKPT(value)                       __ASM volatile ("bkpt "#value)
1040:Drivers/CMSIS/Include/cmsis_gcc.h **** 
1041:Drivers/CMSIS/Include/cmsis_gcc.h **** 
1042:Drivers/CMSIS/Include/cmsis_gcc.h **** /**
1043:Drivers/CMSIS/Include/cmsis_gcc.h ****   \brief   Reverse bit order of value
1044:Drivers/CMSIS/Include/cmsis_gcc.h ****   \details Reverses the bit order of the given value.
1045:Drivers/CMSIS/Include/cmsis_gcc.h ****   \param [in]    value  Value to reverse
1046:Drivers/CMSIS/Include/cmsis_gcc.h ****   \return               Reversed value
1047:Drivers/CMSIS/Include/cmsis_gcc.h ****  */
1048:Drivers/CMSIS/Include/cmsis_gcc.h **** __STATIC_FORCEINLINE uint32_t __RBIT(uint32_t value)
1049:Drivers/CMSIS/Include/cmsis_gcc.h **** {
1050:Drivers/CMSIS/Include/cmsis_gcc.h ****   uint32_t result;
1051:Drivers/CMSIS/Include/cmsis_gcc.h **** 
1052:Drivers/CMSIS/Include/cmsis_gcc.h **** #if ((defined (__ARM_ARCH_7M__      ) && (__ARM_ARCH_7M__      == 1)) || \
1053:Drivers/CMSIS/Include/cmsis_gcc.h ****      (defined (__ARM_ARCH_7EM__     ) && (__ARM_ARCH_7EM__     == 1)) || \
1054:Drivers/CMSIS/Include/cmsis_gcc.h ****      (defined (__ARM_ARCH_8M_MAIN__ ) && (__ARM_ARCH_8M_MAIN__ == 1))    )
1055:Drivers/CMSIS/Include/cmsis_gcc.h ****    __ASM volatile ("rbit %0, %1" : "=r" (result) : "r" (value) );
1056:Drivers/CMSIS/Include/cmsis_gcc.h **** #else
1057:Drivers/CMSIS/Include/cmsis_gcc.h ****   uint32_t s = (4U /*sizeof(v)*/ * 8U) - 1U; /* extra shift needed at end */
1058:Drivers/CMSIS/Include/cmsis_gcc.h **** 
1059:Drivers/CMSIS/Include/cmsis_gcc.h ****   result = value;                      /* r will be reversed bits of v; first get LSB of v */
1060:Drivers/CMSIS/Include/cmsis_gcc.h ****   for (value >>= 1U; value != 0U; value >>= 1U)
ARM GAS  C:\Users\JustE\AppData\Local\Temp\ccpkykRb.s 			page 31


1061:Drivers/CMSIS/Include/cmsis_gcc.h ****   {
1062:Drivers/CMSIS/Include/cmsis_gcc.h ****     result <<= 1U;
1063:Drivers/CMSIS/Include/cmsis_gcc.h ****     result |= value & 1U;
1064:Drivers/CMSIS/Include/cmsis_gcc.h ****     s--;
1065:Drivers/CMSIS/Include/cmsis_gcc.h ****   }
1066:Drivers/CMSIS/Include/cmsis_gcc.h ****   result <<= s;                        /* shift when v's highest bits are zero */
1067:Drivers/CMSIS/Include/cmsis_gcc.h **** #endif
1068:Drivers/CMSIS/Include/cmsis_gcc.h ****   return result;
1069:Drivers/CMSIS/Include/cmsis_gcc.h **** }
1070:Drivers/CMSIS/Include/cmsis_gcc.h **** 
1071:Drivers/CMSIS/Include/cmsis_gcc.h **** 
1072:Drivers/CMSIS/Include/cmsis_gcc.h **** /**
1073:Drivers/CMSIS/Include/cmsis_gcc.h ****   \brief   Count leading zeros
1074:Drivers/CMSIS/Include/cmsis_gcc.h ****   \details Counts the number of leading zeros of a data value.
1075:Drivers/CMSIS/Include/cmsis_gcc.h ****   \param [in]  value  Value to count the leading zeros
1076:Drivers/CMSIS/Include/cmsis_gcc.h ****   \return             number of leading zeros in value
1077:Drivers/CMSIS/Include/cmsis_gcc.h ****  */
1078:Drivers/CMSIS/Include/cmsis_gcc.h **** __STATIC_FORCEINLINE uint8_t __CLZ(uint32_t value)
1079:Drivers/CMSIS/Include/cmsis_gcc.h **** {
1080:Drivers/CMSIS/Include/cmsis_gcc.h ****   /* Even though __builtin_clz produces a CLZ instruction on ARM, formally
1081:Drivers/CMSIS/Include/cmsis_gcc.h ****      __builtin_clz(0) is undefined behaviour, so handle this case specially.
1082:Drivers/CMSIS/Include/cmsis_gcc.h ****      This guarantees ARM-compatible results if happening to compile on a non-ARM
1083:Drivers/CMSIS/Include/cmsis_gcc.h ****      target, and ensures the compiler doesn't decide to activate any
1084:Drivers/CMSIS/Include/cmsis_gcc.h ****      optimisations using the logic "value was passed to __builtin_clz, so it
1085:Drivers/CMSIS/Include/cmsis_gcc.h ****      is non-zero".
1086:Drivers/CMSIS/Include/cmsis_gcc.h ****      ARM GCC 7.3 and possibly earlier will optimise this test away, leaving a
1087:Drivers/CMSIS/Include/cmsis_gcc.h ****      single CLZ instruction.
1088:Drivers/CMSIS/Include/cmsis_gcc.h ****    */
1089:Drivers/CMSIS/Include/cmsis_gcc.h ****   if (value == 0U)
1090:Drivers/CMSIS/Include/cmsis_gcc.h ****   {
1091:Drivers/CMSIS/Include/cmsis_gcc.h ****     return 32U;
1092:Drivers/CMSIS/Include/cmsis_gcc.h ****   }
1093:Drivers/CMSIS/Include/cmsis_gcc.h ****   return __builtin_clz(value);
1094:Drivers/CMSIS/Include/cmsis_gcc.h **** }
1095:Drivers/CMSIS/Include/cmsis_gcc.h **** 
1096:Drivers/CMSIS/Include/cmsis_gcc.h **** 
1097:Drivers/CMSIS/Include/cmsis_gcc.h **** #if ((defined (__ARM_ARCH_7M__      ) && (__ARM_ARCH_7M__      == 1)) || \
1098:Drivers/CMSIS/Include/cmsis_gcc.h ****      (defined (__ARM_ARCH_7EM__     ) && (__ARM_ARCH_7EM__     == 1)) || \
1099:Drivers/CMSIS/Include/cmsis_gcc.h ****      (defined (__ARM_ARCH_8M_MAIN__ ) && (__ARM_ARCH_8M_MAIN__ == 1)) || \
1100:Drivers/CMSIS/Include/cmsis_gcc.h ****      (defined (__ARM_ARCH_8M_BASE__ ) && (__ARM_ARCH_8M_BASE__ == 1))    )
1101:Drivers/CMSIS/Include/cmsis_gcc.h **** /**
1102:Drivers/CMSIS/Include/cmsis_gcc.h ****   \brief   LDR Exclusive (8 bit)
1103:Drivers/CMSIS/Include/cmsis_gcc.h ****   \details Executes a exclusive LDR instruction for 8 bit value.
1104:Drivers/CMSIS/Include/cmsis_gcc.h ****   \param [in]    ptr  Pointer to data
1105:Drivers/CMSIS/Include/cmsis_gcc.h ****   \return             value of type uint8_t at (*ptr)
1106:Drivers/CMSIS/Include/cmsis_gcc.h ****  */
1107:Drivers/CMSIS/Include/cmsis_gcc.h **** __STATIC_FORCEINLINE uint8_t __LDREXB(volatile uint8_t *addr)
1108:Drivers/CMSIS/Include/cmsis_gcc.h **** {
1109:Drivers/CMSIS/Include/cmsis_gcc.h ****     uint32_t result;
1110:Drivers/CMSIS/Include/cmsis_gcc.h **** 
1111:Drivers/CMSIS/Include/cmsis_gcc.h **** #if (__GNUC__ > 4) || (__GNUC__ == 4 && __GNUC_MINOR__ >= 8)
1112:Drivers/CMSIS/Include/cmsis_gcc.h ****    __ASM volatile ("ldrexb %0, %1" : "=r" (result) : "Q" (*addr) );
1113:Drivers/CMSIS/Include/cmsis_gcc.h **** #else
1114:Drivers/CMSIS/Include/cmsis_gcc.h ****     /* Prior to GCC 4.8, "Q" will be expanded to [rx, #0] which is not
1115:Drivers/CMSIS/Include/cmsis_gcc.h ****        accepted by assembler. So has to use following less efficient pattern.
1116:Drivers/CMSIS/Include/cmsis_gcc.h ****     */
1117:Drivers/CMSIS/Include/cmsis_gcc.h ****    __ASM volatile ("ldrexb %0, [%1]" : "=r" (result) : "r" (addr) : "memory" );
ARM GAS  C:\Users\JustE\AppData\Local\Temp\ccpkykRb.s 			page 32


1118:Drivers/CMSIS/Include/cmsis_gcc.h **** #endif
1119:Drivers/CMSIS/Include/cmsis_gcc.h ****    return ((uint8_t) result);    /* Add explicit type cast here */
1120:Drivers/CMSIS/Include/cmsis_gcc.h **** }
1121:Drivers/CMSIS/Include/cmsis_gcc.h **** 
1122:Drivers/CMSIS/Include/cmsis_gcc.h **** 
1123:Drivers/CMSIS/Include/cmsis_gcc.h **** /**
1124:Drivers/CMSIS/Include/cmsis_gcc.h ****   \brief   LDR Exclusive (16 bit)
1125:Drivers/CMSIS/Include/cmsis_gcc.h ****   \details Executes a exclusive LDR instruction for 16 bit values.
1126:Drivers/CMSIS/Include/cmsis_gcc.h ****   \param [in]    ptr  Pointer to data
1127:Drivers/CMSIS/Include/cmsis_gcc.h ****   \return        value of type uint16_t at (*ptr)
1128:Drivers/CMSIS/Include/cmsis_gcc.h ****  */
1129:Drivers/CMSIS/Include/cmsis_gcc.h **** __STATIC_FORCEINLINE uint16_t __LDREXH(volatile uint16_t *addr)
1130:Drivers/CMSIS/Include/cmsis_gcc.h **** {
1131:Drivers/CMSIS/Include/cmsis_gcc.h ****     uint32_t result;
1132:Drivers/CMSIS/Include/cmsis_gcc.h **** 
1133:Drivers/CMSIS/Include/cmsis_gcc.h **** #if (__GNUC__ > 4) || (__GNUC__ == 4 && __GNUC_MINOR__ >= 8)
1134:Drivers/CMSIS/Include/cmsis_gcc.h ****    __ASM volatile ("ldrexh %0, %1" : "=r" (result) : "Q" (*addr) );
1135:Drivers/CMSIS/Include/cmsis_gcc.h **** #else
1136:Drivers/CMSIS/Include/cmsis_gcc.h ****     /* Prior to GCC 4.8, "Q" will be expanded to [rx, #0] which is not
1137:Drivers/CMSIS/Include/cmsis_gcc.h ****        accepted by assembler. So has to use following less efficient pattern.
1138:Drivers/CMSIS/Include/cmsis_gcc.h ****     */
1139:Drivers/CMSIS/Include/cmsis_gcc.h ****    __ASM volatile ("ldrexh %0, [%1]" : "=r" (result) : "r" (addr) : "memory" );
1140:Drivers/CMSIS/Include/cmsis_gcc.h **** #endif
1141:Drivers/CMSIS/Include/cmsis_gcc.h ****    return ((uint16_t) result);    /* Add explicit type cast here */
1142:Drivers/CMSIS/Include/cmsis_gcc.h **** }
1143:Drivers/CMSIS/Include/cmsis_gcc.h **** 
1144:Drivers/CMSIS/Include/cmsis_gcc.h **** 
1145:Drivers/CMSIS/Include/cmsis_gcc.h **** /**
1146:Drivers/CMSIS/Include/cmsis_gcc.h ****   \brief   LDR Exclusive (32 bit)
1147:Drivers/CMSIS/Include/cmsis_gcc.h ****   \details Executes a exclusive LDR instruction for 32 bit values.
1148:Drivers/CMSIS/Include/cmsis_gcc.h ****   \param [in]    ptr  Pointer to data
1149:Drivers/CMSIS/Include/cmsis_gcc.h ****   \return        value of type uint32_t at (*ptr)
1150:Drivers/CMSIS/Include/cmsis_gcc.h ****  */
1151:Drivers/CMSIS/Include/cmsis_gcc.h **** __STATIC_FORCEINLINE uint32_t __LDREXW(volatile uint32_t *addr)
1152:Drivers/CMSIS/Include/cmsis_gcc.h **** {
1153:Drivers/CMSIS/Include/cmsis_gcc.h ****     uint32_t result;
1154:Drivers/CMSIS/Include/cmsis_gcc.h **** 
1155:Drivers/CMSIS/Include/cmsis_gcc.h ****    __ASM volatile ("ldrex %0, %1" : "=r" (result) : "Q" (*addr) );
1156:Drivers/CMSIS/Include/cmsis_gcc.h ****    return(result);
1157:Drivers/CMSIS/Include/cmsis_gcc.h **** }
1158:Drivers/CMSIS/Include/cmsis_gcc.h **** 
1159:Drivers/CMSIS/Include/cmsis_gcc.h **** 
1160:Drivers/CMSIS/Include/cmsis_gcc.h **** /**
1161:Drivers/CMSIS/Include/cmsis_gcc.h ****   \brief   STR Exclusive (8 bit)
1162:Drivers/CMSIS/Include/cmsis_gcc.h ****   \details Executes a exclusive STR instruction for 8 bit values.
1163:Drivers/CMSIS/Include/cmsis_gcc.h ****   \param [in]  value  Value to store
1164:Drivers/CMSIS/Include/cmsis_gcc.h ****   \param [in]    ptr  Pointer to location
1165:Drivers/CMSIS/Include/cmsis_gcc.h ****   \return          0  Function succeeded
1166:Drivers/CMSIS/Include/cmsis_gcc.h ****   \return          1  Function failed
1167:Drivers/CMSIS/Include/cmsis_gcc.h ****  */
1168:Drivers/CMSIS/Include/cmsis_gcc.h **** __STATIC_FORCEINLINE uint32_t __STREXB(uint8_t value, volatile uint8_t *addr)
1169:Drivers/CMSIS/Include/cmsis_gcc.h **** {
1170:Drivers/CMSIS/Include/cmsis_gcc.h ****    uint32_t result;
1171:Drivers/CMSIS/Include/cmsis_gcc.h **** 
1172:Drivers/CMSIS/Include/cmsis_gcc.h ****    __ASM volatile ("strexb %0, %2, %1" : "=&r" (result), "=Q" (*addr) : "r" ((uint32_t)value) );
1173:Drivers/CMSIS/Include/cmsis_gcc.h ****    return(result);
1174:Drivers/CMSIS/Include/cmsis_gcc.h **** }
ARM GAS  C:\Users\JustE\AppData\Local\Temp\ccpkykRb.s 			page 33


1175:Drivers/CMSIS/Include/cmsis_gcc.h **** 
1176:Drivers/CMSIS/Include/cmsis_gcc.h **** 
1177:Drivers/CMSIS/Include/cmsis_gcc.h **** /**
1178:Drivers/CMSIS/Include/cmsis_gcc.h ****   \brief   STR Exclusive (16 bit)
1179:Drivers/CMSIS/Include/cmsis_gcc.h ****   \details Executes a exclusive STR instruction for 16 bit values.
1180:Drivers/CMSIS/Include/cmsis_gcc.h ****   \param [in]  value  Value to store
1181:Drivers/CMSIS/Include/cmsis_gcc.h ****   \param [in]    ptr  Pointer to location
1182:Drivers/CMSIS/Include/cmsis_gcc.h ****   \return          0  Function succeeded
1183:Drivers/CMSIS/Include/cmsis_gcc.h ****   \return          1  Function failed
1184:Drivers/CMSIS/Include/cmsis_gcc.h ****  */
1185:Drivers/CMSIS/Include/cmsis_gcc.h **** __STATIC_FORCEINLINE uint32_t __STREXH(uint16_t value, volatile uint16_t *addr)
1186:Drivers/CMSIS/Include/cmsis_gcc.h **** {
1187:Drivers/CMSIS/Include/cmsis_gcc.h ****    uint32_t result;
1188:Drivers/CMSIS/Include/cmsis_gcc.h **** 
1189:Drivers/CMSIS/Include/cmsis_gcc.h ****    __ASM volatile ("strexh %0, %2, %1" : "=&r" (result), "=Q" (*addr) : "r" ((uint32_t)value) );
1190:Drivers/CMSIS/Include/cmsis_gcc.h ****    return(result);
1191:Drivers/CMSIS/Include/cmsis_gcc.h **** }
1192:Drivers/CMSIS/Include/cmsis_gcc.h **** 
1193:Drivers/CMSIS/Include/cmsis_gcc.h **** 
1194:Drivers/CMSIS/Include/cmsis_gcc.h **** /**
1195:Drivers/CMSIS/Include/cmsis_gcc.h ****   \brief   STR Exclusive (32 bit)
1196:Drivers/CMSIS/Include/cmsis_gcc.h ****   \details Executes a exclusive STR instruction for 32 bit values.
1197:Drivers/CMSIS/Include/cmsis_gcc.h ****   \param [in]  value  Value to store
1198:Drivers/CMSIS/Include/cmsis_gcc.h ****   \param [in]    ptr  Pointer to location
1199:Drivers/CMSIS/Include/cmsis_gcc.h ****   \return          0  Function succeeded
1200:Drivers/CMSIS/Include/cmsis_gcc.h ****   \return          1  Function failed
1201:Drivers/CMSIS/Include/cmsis_gcc.h ****  */
1202:Drivers/CMSIS/Include/cmsis_gcc.h **** __STATIC_FORCEINLINE uint32_t __STREXW(uint32_t value, volatile uint32_t *addr)
1203:Drivers/CMSIS/Include/cmsis_gcc.h **** {
1204:Drivers/CMSIS/Include/cmsis_gcc.h ****    uint32_t result;
1205:Drivers/CMSIS/Include/cmsis_gcc.h **** 
1206:Drivers/CMSIS/Include/cmsis_gcc.h ****    __ASM volatile ("strex %0, %2, %1" : "=&r" (result), "=Q" (*addr) : "r" (value) );
1207:Drivers/CMSIS/Include/cmsis_gcc.h ****    return(result);
1208:Drivers/CMSIS/Include/cmsis_gcc.h **** }
1209:Drivers/CMSIS/Include/cmsis_gcc.h **** 
1210:Drivers/CMSIS/Include/cmsis_gcc.h **** 
1211:Drivers/CMSIS/Include/cmsis_gcc.h **** /**
1212:Drivers/CMSIS/Include/cmsis_gcc.h ****   \brief   Remove the exclusive lock
1213:Drivers/CMSIS/Include/cmsis_gcc.h ****   \details Removes the exclusive lock which is created by LDREX.
1214:Drivers/CMSIS/Include/cmsis_gcc.h ****  */
1215:Drivers/CMSIS/Include/cmsis_gcc.h **** __STATIC_FORCEINLINE void __CLREX(void)
1216:Drivers/CMSIS/Include/cmsis_gcc.h **** {
1217:Drivers/CMSIS/Include/cmsis_gcc.h ****   __ASM volatile ("clrex" ::: "memory");
1218:Drivers/CMSIS/Include/cmsis_gcc.h **** }
1219:Drivers/CMSIS/Include/cmsis_gcc.h **** 
1220:Drivers/CMSIS/Include/cmsis_gcc.h **** #endif /* ((defined (__ARM_ARCH_7M__      ) && (__ARM_ARCH_7M__      == 1)) || \
1221:Drivers/CMSIS/Include/cmsis_gcc.h ****            (defined (__ARM_ARCH_7EM__     ) && (__ARM_ARCH_7EM__     == 1)) || \
1222:Drivers/CMSIS/Include/cmsis_gcc.h ****            (defined (__ARM_ARCH_8M_MAIN__ ) && (__ARM_ARCH_8M_MAIN__ == 1)) || \
1223:Drivers/CMSIS/Include/cmsis_gcc.h ****            (defined (__ARM_ARCH_8M_BASE__ ) && (__ARM_ARCH_8M_BASE__ == 1))    ) */
1224:Drivers/CMSIS/Include/cmsis_gcc.h **** 
1225:Drivers/CMSIS/Include/cmsis_gcc.h **** 
1226:Drivers/CMSIS/Include/cmsis_gcc.h **** #if ((defined (__ARM_ARCH_7M__      ) && (__ARM_ARCH_7M__      == 1)) || \
1227:Drivers/CMSIS/Include/cmsis_gcc.h ****      (defined (__ARM_ARCH_7EM__     ) && (__ARM_ARCH_7EM__     == 1)) || \
1228:Drivers/CMSIS/Include/cmsis_gcc.h ****      (defined (__ARM_ARCH_8M_MAIN__ ) && (__ARM_ARCH_8M_MAIN__ == 1))    )
1229:Drivers/CMSIS/Include/cmsis_gcc.h **** /**
1230:Drivers/CMSIS/Include/cmsis_gcc.h ****   \brief   Signed Saturate
1231:Drivers/CMSIS/Include/cmsis_gcc.h ****   \details Saturates a signed value.
ARM GAS  C:\Users\JustE\AppData\Local\Temp\ccpkykRb.s 			page 34


1232:Drivers/CMSIS/Include/cmsis_gcc.h ****   \param [in]  ARG1  Value to be saturated
1233:Drivers/CMSIS/Include/cmsis_gcc.h ****   \param [in]  ARG2  Bit position to saturate to (1..32)
1234:Drivers/CMSIS/Include/cmsis_gcc.h ****   \return             Saturated value
1235:Drivers/CMSIS/Include/cmsis_gcc.h ****  */
1236:Drivers/CMSIS/Include/cmsis_gcc.h **** #define __SSAT(ARG1,ARG2) \
1237:Drivers/CMSIS/Include/cmsis_gcc.h **** __extension__ \
1238:Drivers/CMSIS/Include/cmsis_gcc.h **** ({                          \
1239:Drivers/CMSIS/Include/cmsis_gcc.h ****   int32_t __RES, __ARG1 = (ARG1); \
1240:Drivers/CMSIS/Include/cmsis_gcc.h ****   __ASM ("ssat %0, %1, %2" : "=r" (__RES) :  "I" (ARG2), "r" (__ARG1) ); \
1241:Drivers/CMSIS/Include/cmsis_gcc.h ****   __RES; \
1242:Drivers/CMSIS/Include/cmsis_gcc.h ****  })
1243:Drivers/CMSIS/Include/cmsis_gcc.h **** 
1244:Drivers/CMSIS/Include/cmsis_gcc.h **** 
1245:Drivers/CMSIS/Include/cmsis_gcc.h **** /**
1246:Drivers/CMSIS/Include/cmsis_gcc.h ****   \brief   Unsigned Saturate
1247:Drivers/CMSIS/Include/cmsis_gcc.h ****   \details Saturates an unsigned value.
1248:Drivers/CMSIS/Include/cmsis_gcc.h ****   \param [in]  ARG1  Value to be saturated
1249:Drivers/CMSIS/Include/cmsis_gcc.h ****   \param [in]  ARG2  Bit position to saturate to (0..31)
1250:Drivers/CMSIS/Include/cmsis_gcc.h ****   \return             Saturated value
1251:Drivers/CMSIS/Include/cmsis_gcc.h ****  */
1252:Drivers/CMSIS/Include/cmsis_gcc.h **** #define __USAT(ARG1,ARG2) \
1253:Drivers/CMSIS/Include/cmsis_gcc.h ****  __extension__ \
1254:Drivers/CMSIS/Include/cmsis_gcc.h **** ({                          \
1255:Drivers/CMSIS/Include/cmsis_gcc.h ****   uint32_t __RES, __ARG1 = (ARG1); \
1256:Drivers/CMSIS/Include/cmsis_gcc.h ****   __ASM ("usat %0, %1, %2" : "=r" (__RES) :  "I" (ARG2), "r" (__ARG1) ); \
1257:Drivers/CMSIS/Include/cmsis_gcc.h ****   __RES; \
1258:Drivers/CMSIS/Include/cmsis_gcc.h ****  })
1259:Drivers/CMSIS/Include/cmsis_gcc.h **** 
1260:Drivers/CMSIS/Include/cmsis_gcc.h **** 
1261:Drivers/CMSIS/Include/cmsis_gcc.h **** /**
1262:Drivers/CMSIS/Include/cmsis_gcc.h ****   \brief   Rotate Right with Extend (32 bit)
1263:Drivers/CMSIS/Include/cmsis_gcc.h ****   \details Moves each bit of a bitstring right by one bit.
1264:Drivers/CMSIS/Include/cmsis_gcc.h ****            The carry input is shifted in at the left end of the bitstring.
1265:Drivers/CMSIS/Include/cmsis_gcc.h ****   \param [in]    value  Value to rotate
1266:Drivers/CMSIS/Include/cmsis_gcc.h ****   \return               Rotated value
1267:Drivers/CMSIS/Include/cmsis_gcc.h ****  */
1268:Drivers/CMSIS/Include/cmsis_gcc.h **** __STATIC_FORCEINLINE uint32_t __RRX(uint32_t value)
1269:Drivers/CMSIS/Include/cmsis_gcc.h **** {
1270:Drivers/CMSIS/Include/cmsis_gcc.h ****   uint32_t result;
1271:Drivers/CMSIS/Include/cmsis_gcc.h **** 
1272:Drivers/CMSIS/Include/cmsis_gcc.h ****   __ASM volatile ("rrx %0, %1" : __CMSIS_GCC_OUT_REG (result) : __CMSIS_GCC_USE_REG (value) );
1273:Drivers/CMSIS/Include/cmsis_gcc.h ****   return(result);
1274:Drivers/CMSIS/Include/cmsis_gcc.h **** }
1275:Drivers/CMSIS/Include/cmsis_gcc.h **** 
1276:Drivers/CMSIS/Include/cmsis_gcc.h **** 
1277:Drivers/CMSIS/Include/cmsis_gcc.h **** /**
1278:Drivers/CMSIS/Include/cmsis_gcc.h ****   \brief   LDRT Unprivileged (8 bit)
1279:Drivers/CMSIS/Include/cmsis_gcc.h ****   \details Executes a Unprivileged LDRT instruction for 8 bit value.
1280:Drivers/CMSIS/Include/cmsis_gcc.h ****   \param [in]    ptr  Pointer to data
1281:Drivers/CMSIS/Include/cmsis_gcc.h ****   \return             value of type uint8_t at (*ptr)
1282:Drivers/CMSIS/Include/cmsis_gcc.h ****  */
1283:Drivers/CMSIS/Include/cmsis_gcc.h **** __STATIC_FORCEINLINE uint8_t __LDRBT(volatile uint8_t *ptr)
1284:Drivers/CMSIS/Include/cmsis_gcc.h **** {
1285:Drivers/CMSIS/Include/cmsis_gcc.h ****     uint32_t result;
1286:Drivers/CMSIS/Include/cmsis_gcc.h **** 
1287:Drivers/CMSIS/Include/cmsis_gcc.h **** #if (__GNUC__ > 4) || (__GNUC__ == 4 && __GNUC_MINOR__ >= 8)
1288:Drivers/CMSIS/Include/cmsis_gcc.h ****    __ASM volatile ("ldrbt %0, %1" : "=r" (result) : "Q" (*ptr) );
ARM GAS  C:\Users\JustE\AppData\Local\Temp\ccpkykRb.s 			page 35


1289:Drivers/CMSIS/Include/cmsis_gcc.h **** #else
1290:Drivers/CMSIS/Include/cmsis_gcc.h ****     /* Prior to GCC 4.8, "Q" will be expanded to [rx, #0] which is not
1291:Drivers/CMSIS/Include/cmsis_gcc.h ****        accepted by assembler. So has to use following less efficient pattern.
1292:Drivers/CMSIS/Include/cmsis_gcc.h ****     */
1293:Drivers/CMSIS/Include/cmsis_gcc.h ****    __ASM volatile ("ldrbt %0, [%1]" : "=r" (result) : "r" (ptr) : "memory" );
1294:Drivers/CMSIS/Include/cmsis_gcc.h **** #endif
1295:Drivers/CMSIS/Include/cmsis_gcc.h ****    return ((uint8_t) result);    /* Add explicit type cast here */
1296:Drivers/CMSIS/Include/cmsis_gcc.h **** }
1297:Drivers/CMSIS/Include/cmsis_gcc.h **** 
1298:Drivers/CMSIS/Include/cmsis_gcc.h **** 
1299:Drivers/CMSIS/Include/cmsis_gcc.h **** /**
1300:Drivers/CMSIS/Include/cmsis_gcc.h ****   \brief   LDRT Unprivileged (16 bit)
1301:Drivers/CMSIS/Include/cmsis_gcc.h ****   \details Executes a Unprivileged LDRT instruction for 16 bit values.
1302:Drivers/CMSIS/Include/cmsis_gcc.h ****   \param [in]    ptr  Pointer to data
1303:Drivers/CMSIS/Include/cmsis_gcc.h ****   \return        value of type uint16_t at (*ptr)
1304:Drivers/CMSIS/Include/cmsis_gcc.h ****  */
1305:Drivers/CMSIS/Include/cmsis_gcc.h **** __STATIC_FORCEINLINE uint16_t __LDRHT(volatile uint16_t *ptr)
1306:Drivers/CMSIS/Include/cmsis_gcc.h **** {
1307:Drivers/CMSIS/Include/cmsis_gcc.h ****     uint32_t result;
1308:Drivers/CMSIS/Include/cmsis_gcc.h **** 
1309:Drivers/CMSIS/Include/cmsis_gcc.h **** #if (__GNUC__ > 4) || (__GNUC__ == 4 && __GNUC_MINOR__ >= 8)
1310:Drivers/CMSIS/Include/cmsis_gcc.h ****    __ASM volatile ("ldrht %0, %1" : "=r" (result) : "Q" (*ptr) );
1311:Drivers/CMSIS/Include/cmsis_gcc.h **** #else
1312:Drivers/CMSIS/Include/cmsis_gcc.h ****     /* Prior to GCC 4.8, "Q" will be expanded to [rx, #0] which is not
1313:Drivers/CMSIS/Include/cmsis_gcc.h ****        accepted by assembler. So has to use following less efficient pattern.
1314:Drivers/CMSIS/Include/cmsis_gcc.h ****     */
1315:Drivers/CMSIS/Include/cmsis_gcc.h ****    __ASM volatile ("ldrht %0, [%1]" : "=r" (result) : "r" (ptr) : "memory" );
1316:Drivers/CMSIS/Include/cmsis_gcc.h **** #endif
1317:Drivers/CMSIS/Include/cmsis_gcc.h ****    return ((uint16_t) result);    /* Add explicit type cast here */
1318:Drivers/CMSIS/Include/cmsis_gcc.h **** }
1319:Drivers/CMSIS/Include/cmsis_gcc.h **** 
1320:Drivers/CMSIS/Include/cmsis_gcc.h **** 
1321:Drivers/CMSIS/Include/cmsis_gcc.h **** /**
1322:Drivers/CMSIS/Include/cmsis_gcc.h ****   \brief   LDRT Unprivileged (32 bit)
1323:Drivers/CMSIS/Include/cmsis_gcc.h ****   \details Executes a Unprivileged LDRT instruction for 32 bit values.
1324:Drivers/CMSIS/Include/cmsis_gcc.h ****   \param [in]    ptr  Pointer to data
1325:Drivers/CMSIS/Include/cmsis_gcc.h ****   \return        value of type uint32_t at (*ptr)
1326:Drivers/CMSIS/Include/cmsis_gcc.h ****  */
1327:Drivers/CMSIS/Include/cmsis_gcc.h **** __STATIC_FORCEINLINE uint32_t __LDRT(volatile uint32_t *ptr)
1328:Drivers/CMSIS/Include/cmsis_gcc.h **** {
1329:Drivers/CMSIS/Include/cmsis_gcc.h ****     uint32_t result;
1330:Drivers/CMSIS/Include/cmsis_gcc.h **** 
1331:Drivers/CMSIS/Include/cmsis_gcc.h ****    __ASM volatile ("ldrt %0, %1" : "=r" (result) : "Q" (*ptr) );
1332:Drivers/CMSIS/Include/cmsis_gcc.h ****    return(result);
1333:Drivers/CMSIS/Include/cmsis_gcc.h **** }
1334:Drivers/CMSIS/Include/cmsis_gcc.h **** 
1335:Drivers/CMSIS/Include/cmsis_gcc.h **** 
1336:Drivers/CMSIS/Include/cmsis_gcc.h **** /**
1337:Drivers/CMSIS/Include/cmsis_gcc.h ****   \brief   STRT Unprivileged (8 bit)
1338:Drivers/CMSIS/Include/cmsis_gcc.h ****   \details Executes a Unprivileged STRT instruction for 8 bit values.
1339:Drivers/CMSIS/Include/cmsis_gcc.h ****   \param [in]  value  Value to store
1340:Drivers/CMSIS/Include/cmsis_gcc.h ****   \param [in]    ptr  Pointer to location
1341:Drivers/CMSIS/Include/cmsis_gcc.h ****  */
1342:Drivers/CMSIS/Include/cmsis_gcc.h **** __STATIC_FORCEINLINE void __STRBT(uint8_t value, volatile uint8_t *ptr)
1343:Drivers/CMSIS/Include/cmsis_gcc.h **** {
1344:Drivers/CMSIS/Include/cmsis_gcc.h ****    __ASM volatile ("strbt %1, %0" : "=Q" (*ptr) : "r" ((uint32_t)value) );
1345:Drivers/CMSIS/Include/cmsis_gcc.h **** }
ARM GAS  C:\Users\JustE\AppData\Local\Temp\ccpkykRb.s 			page 36


1346:Drivers/CMSIS/Include/cmsis_gcc.h **** 
1347:Drivers/CMSIS/Include/cmsis_gcc.h **** 
1348:Drivers/CMSIS/Include/cmsis_gcc.h **** /**
1349:Drivers/CMSIS/Include/cmsis_gcc.h ****   \brief   STRT Unprivileged (16 bit)
1350:Drivers/CMSIS/Include/cmsis_gcc.h ****   \details Executes a Unprivileged STRT instruction for 16 bit values.
1351:Drivers/CMSIS/Include/cmsis_gcc.h ****   \param [in]  value  Value to store
1352:Drivers/CMSIS/Include/cmsis_gcc.h ****   \param [in]    ptr  Pointer to location
1353:Drivers/CMSIS/Include/cmsis_gcc.h ****  */
1354:Drivers/CMSIS/Include/cmsis_gcc.h **** __STATIC_FORCEINLINE void __STRHT(uint16_t value, volatile uint16_t *ptr)
1355:Drivers/CMSIS/Include/cmsis_gcc.h **** {
1356:Drivers/CMSIS/Include/cmsis_gcc.h ****    __ASM volatile ("strht %1, %0" : "=Q" (*ptr) : "r" ((uint32_t)value) );
1357:Drivers/CMSIS/Include/cmsis_gcc.h **** }
1358:Drivers/CMSIS/Include/cmsis_gcc.h **** 
1359:Drivers/CMSIS/Include/cmsis_gcc.h **** 
1360:Drivers/CMSIS/Include/cmsis_gcc.h **** /**
1361:Drivers/CMSIS/Include/cmsis_gcc.h ****   \brief   STRT Unprivileged (32 bit)
1362:Drivers/CMSIS/Include/cmsis_gcc.h ****   \details Executes a Unprivileged STRT instruction for 32 bit values.
1363:Drivers/CMSIS/Include/cmsis_gcc.h ****   \param [in]  value  Value to store
1364:Drivers/CMSIS/Include/cmsis_gcc.h ****   \param [in]    ptr  Pointer to location
1365:Drivers/CMSIS/Include/cmsis_gcc.h ****  */
1366:Drivers/CMSIS/Include/cmsis_gcc.h **** __STATIC_FORCEINLINE void __STRT(uint32_t value, volatile uint32_t *ptr)
1367:Drivers/CMSIS/Include/cmsis_gcc.h **** {
1368:Drivers/CMSIS/Include/cmsis_gcc.h ****    __ASM volatile ("strt %1, %0" : "=Q" (*ptr) : "r" (value) );
1369:Drivers/CMSIS/Include/cmsis_gcc.h **** }
1370:Drivers/CMSIS/Include/cmsis_gcc.h **** 
1371:Drivers/CMSIS/Include/cmsis_gcc.h **** #else  /* ((defined (__ARM_ARCH_7M__      ) && (__ARM_ARCH_7M__      == 1)) || \
1372:Drivers/CMSIS/Include/cmsis_gcc.h ****            (defined (__ARM_ARCH_7EM__     ) && (__ARM_ARCH_7EM__     == 1)) || \
1373:Drivers/CMSIS/Include/cmsis_gcc.h ****            (defined (__ARM_ARCH_8M_MAIN__ ) && (__ARM_ARCH_8M_MAIN__ == 1))    ) */
1374:Drivers/CMSIS/Include/cmsis_gcc.h **** 
1375:Drivers/CMSIS/Include/cmsis_gcc.h **** /**
1376:Drivers/CMSIS/Include/cmsis_gcc.h ****   \brief   Signed Saturate
1377:Drivers/CMSIS/Include/cmsis_gcc.h ****   \details Saturates a signed value.
1378:Drivers/CMSIS/Include/cmsis_gcc.h ****   \param [in]  value  Value to be saturated
1379:Drivers/CMSIS/Include/cmsis_gcc.h ****   \param [in]    sat  Bit position to saturate to (1..32)
1380:Drivers/CMSIS/Include/cmsis_gcc.h ****   \return             Saturated value
1381:Drivers/CMSIS/Include/cmsis_gcc.h ****  */
1382:Drivers/CMSIS/Include/cmsis_gcc.h **** __STATIC_FORCEINLINE int32_t __SSAT(int32_t val, uint32_t sat)
1383:Drivers/CMSIS/Include/cmsis_gcc.h **** {
1384:Drivers/CMSIS/Include/cmsis_gcc.h ****   if ((sat >= 1U) && (sat <= 32U))
1385:Drivers/CMSIS/Include/cmsis_gcc.h ****   {
1386:Drivers/CMSIS/Include/cmsis_gcc.h ****     const int32_t max = (int32_t)((1U << (sat - 1U)) - 1U);
1387:Drivers/CMSIS/Include/cmsis_gcc.h ****     const int32_t min = -1 - max ;
1388:Drivers/CMSIS/Include/cmsis_gcc.h ****     if (val > max)
1389:Drivers/CMSIS/Include/cmsis_gcc.h ****     {
1390:Drivers/CMSIS/Include/cmsis_gcc.h ****       return max;
1391:Drivers/CMSIS/Include/cmsis_gcc.h ****     }
1392:Drivers/CMSIS/Include/cmsis_gcc.h ****     else if (val < min)
1393:Drivers/CMSIS/Include/cmsis_gcc.h ****     {
1394:Drivers/CMSIS/Include/cmsis_gcc.h ****       return min;
1395:Drivers/CMSIS/Include/cmsis_gcc.h ****     }
1396:Drivers/CMSIS/Include/cmsis_gcc.h ****   }
1397:Drivers/CMSIS/Include/cmsis_gcc.h ****   return val;
1398:Drivers/CMSIS/Include/cmsis_gcc.h **** }
1399:Drivers/CMSIS/Include/cmsis_gcc.h **** 
1400:Drivers/CMSIS/Include/cmsis_gcc.h **** /**
1401:Drivers/CMSIS/Include/cmsis_gcc.h ****   \brief   Unsigned Saturate
1402:Drivers/CMSIS/Include/cmsis_gcc.h ****   \details Saturates an unsigned value.
ARM GAS  C:\Users\JustE\AppData\Local\Temp\ccpkykRb.s 			page 37


1403:Drivers/CMSIS/Include/cmsis_gcc.h ****   \param [in]  value  Value to be saturated
1404:Drivers/CMSIS/Include/cmsis_gcc.h ****   \param [in]    sat  Bit position to saturate to (0..31)
1405:Drivers/CMSIS/Include/cmsis_gcc.h ****   \return             Saturated value
1406:Drivers/CMSIS/Include/cmsis_gcc.h ****  */
1407:Drivers/CMSIS/Include/cmsis_gcc.h **** __STATIC_FORCEINLINE uint32_t __USAT(int32_t val, uint32_t sat)
1408:Drivers/CMSIS/Include/cmsis_gcc.h **** {
1409:Drivers/CMSIS/Include/cmsis_gcc.h ****   if (sat <= 31U)
1410:Drivers/CMSIS/Include/cmsis_gcc.h ****   {
1411:Drivers/CMSIS/Include/cmsis_gcc.h ****     const uint32_t max = ((1U << sat) - 1U);
1412:Drivers/CMSIS/Include/cmsis_gcc.h ****     if (val > (int32_t)max)
1413:Drivers/CMSIS/Include/cmsis_gcc.h ****     {
1414:Drivers/CMSIS/Include/cmsis_gcc.h ****       return max;
1415:Drivers/CMSIS/Include/cmsis_gcc.h ****     }
1416:Drivers/CMSIS/Include/cmsis_gcc.h ****     else if (val < 0)
1417:Drivers/CMSIS/Include/cmsis_gcc.h ****     {
1418:Drivers/CMSIS/Include/cmsis_gcc.h ****       return 0U;
1419:Drivers/CMSIS/Include/cmsis_gcc.h ****     }
1420:Drivers/CMSIS/Include/cmsis_gcc.h ****   }
1421:Drivers/CMSIS/Include/cmsis_gcc.h ****   return (uint32_t)val;
1422:Drivers/CMSIS/Include/cmsis_gcc.h **** }
1423:Drivers/CMSIS/Include/cmsis_gcc.h **** 
1424:Drivers/CMSIS/Include/cmsis_gcc.h **** #endif /* ((defined (__ARM_ARCH_7M__      ) && (__ARM_ARCH_7M__      == 1)) || \
1425:Drivers/CMSIS/Include/cmsis_gcc.h ****            (defined (__ARM_ARCH_7EM__     ) && (__ARM_ARCH_7EM__     == 1)) || \
1426:Drivers/CMSIS/Include/cmsis_gcc.h ****            (defined (__ARM_ARCH_8M_MAIN__ ) && (__ARM_ARCH_8M_MAIN__ == 1))    ) */
1427:Drivers/CMSIS/Include/cmsis_gcc.h **** 
1428:Drivers/CMSIS/Include/cmsis_gcc.h **** 
1429:Drivers/CMSIS/Include/cmsis_gcc.h **** #if ((defined (__ARM_ARCH_8M_MAIN__ ) && (__ARM_ARCH_8M_MAIN__ == 1)) || \
1430:Drivers/CMSIS/Include/cmsis_gcc.h ****      (defined (__ARM_ARCH_8M_BASE__ ) && (__ARM_ARCH_8M_BASE__ == 1))    )
1431:Drivers/CMSIS/Include/cmsis_gcc.h **** /**
1432:Drivers/CMSIS/Include/cmsis_gcc.h ****   \brief   Load-Acquire (8 bit)
1433:Drivers/CMSIS/Include/cmsis_gcc.h ****   \details Executes a LDAB instruction for 8 bit value.
1434:Drivers/CMSIS/Include/cmsis_gcc.h ****   \param [in]    ptr  Pointer to data
1435:Drivers/CMSIS/Include/cmsis_gcc.h ****   \return             value of type uint8_t at (*ptr)
1436:Drivers/CMSIS/Include/cmsis_gcc.h ****  */
1437:Drivers/CMSIS/Include/cmsis_gcc.h **** __STATIC_FORCEINLINE uint8_t __LDAB(volatile uint8_t *ptr)
1438:Drivers/CMSIS/Include/cmsis_gcc.h **** {
1439:Drivers/CMSIS/Include/cmsis_gcc.h ****     uint32_t result;
1440:Drivers/CMSIS/Include/cmsis_gcc.h **** 
1441:Drivers/CMSIS/Include/cmsis_gcc.h ****    __ASM volatile ("ldab %0, %1" : "=r" (result) : "Q" (*ptr) );
1442:Drivers/CMSIS/Include/cmsis_gcc.h ****    return ((uint8_t) result);
1443:Drivers/CMSIS/Include/cmsis_gcc.h **** }
1444:Drivers/CMSIS/Include/cmsis_gcc.h **** 
1445:Drivers/CMSIS/Include/cmsis_gcc.h **** 
1446:Drivers/CMSIS/Include/cmsis_gcc.h **** /**
1447:Drivers/CMSIS/Include/cmsis_gcc.h ****   \brief   Load-Acquire (16 bit)
1448:Drivers/CMSIS/Include/cmsis_gcc.h ****   \details Executes a LDAH instruction for 16 bit values.
1449:Drivers/CMSIS/Include/cmsis_gcc.h ****   \param [in]    ptr  Pointer to data
1450:Drivers/CMSIS/Include/cmsis_gcc.h ****   \return        value of type uint16_t at (*ptr)
1451:Drivers/CMSIS/Include/cmsis_gcc.h ****  */
1452:Drivers/CMSIS/Include/cmsis_gcc.h **** __STATIC_FORCEINLINE uint16_t __LDAH(volatile uint16_t *ptr)
1453:Drivers/CMSIS/Include/cmsis_gcc.h **** {
1454:Drivers/CMSIS/Include/cmsis_gcc.h ****     uint32_t result;
1455:Drivers/CMSIS/Include/cmsis_gcc.h **** 
1456:Drivers/CMSIS/Include/cmsis_gcc.h ****    __ASM volatile ("ldah %0, %1" : "=r" (result) : "Q" (*ptr) );
1457:Drivers/CMSIS/Include/cmsis_gcc.h ****    return ((uint16_t) result);
1458:Drivers/CMSIS/Include/cmsis_gcc.h **** }
1459:Drivers/CMSIS/Include/cmsis_gcc.h **** 
ARM GAS  C:\Users\JustE\AppData\Local\Temp\ccpkykRb.s 			page 38


1460:Drivers/CMSIS/Include/cmsis_gcc.h **** 
1461:Drivers/CMSIS/Include/cmsis_gcc.h **** /**
1462:Drivers/CMSIS/Include/cmsis_gcc.h ****   \brief   Load-Acquire (32 bit)
1463:Drivers/CMSIS/Include/cmsis_gcc.h ****   \details Executes a LDA instruction for 32 bit values.
1464:Drivers/CMSIS/Include/cmsis_gcc.h ****   \param [in]    ptr  Pointer to data
1465:Drivers/CMSIS/Include/cmsis_gcc.h ****   \return        value of type uint32_t at (*ptr)
1466:Drivers/CMSIS/Include/cmsis_gcc.h ****  */
1467:Drivers/CMSIS/Include/cmsis_gcc.h **** __STATIC_FORCEINLINE uint32_t __LDA(volatile uint32_t *ptr)
1468:Drivers/CMSIS/Include/cmsis_gcc.h **** {
1469:Drivers/CMSIS/Include/cmsis_gcc.h ****     uint32_t result;
1470:Drivers/CMSIS/Include/cmsis_gcc.h **** 
1471:Drivers/CMSIS/Include/cmsis_gcc.h ****    __ASM volatile ("lda %0, %1" : "=r" (result) : "Q" (*ptr) );
1472:Drivers/CMSIS/Include/cmsis_gcc.h ****    return(result);
1473:Drivers/CMSIS/Include/cmsis_gcc.h **** }
1474:Drivers/CMSIS/Include/cmsis_gcc.h **** 
1475:Drivers/CMSIS/Include/cmsis_gcc.h **** 
1476:Drivers/CMSIS/Include/cmsis_gcc.h **** /**
1477:Drivers/CMSIS/Include/cmsis_gcc.h ****   \brief   Store-Release (8 bit)
1478:Drivers/CMSIS/Include/cmsis_gcc.h ****   \details Executes a STLB instruction for 8 bit values.
1479:Drivers/CMSIS/Include/cmsis_gcc.h ****   \param [in]  value  Value to store
1480:Drivers/CMSIS/Include/cmsis_gcc.h ****   \param [in]    ptr  Pointer to location
1481:Drivers/CMSIS/Include/cmsis_gcc.h ****  */
1482:Drivers/CMSIS/Include/cmsis_gcc.h **** __STATIC_FORCEINLINE void __STLB(uint8_t value, volatile uint8_t *ptr)
1483:Drivers/CMSIS/Include/cmsis_gcc.h **** {
1484:Drivers/CMSIS/Include/cmsis_gcc.h ****    __ASM volatile ("stlb %1, %0" : "=Q" (*ptr) : "r" ((uint32_t)value) );
1485:Drivers/CMSIS/Include/cmsis_gcc.h **** }
1486:Drivers/CMSIS/Include/cmsis_gcc.h **** 
1487:Drivers/CMSIS/Include/cmsis_gcc.h **** 
1488:Drivers/CMSIS/Include/cmsis_gcc.h **** /**
1489:Drivers/CMSIS/Include/cmsis_gcc.h ****   \brief   Store-Release (16 bit)
1490:Drivers/CMSIS/Include/cmsis_gcc.h ****   \details Executes a STLH instruction for 16 bit values.
1491:Drivers/CMSIS/Include/cmsis_gcc.h ****   \param [in]  value  Value to store
1492:Drivers/CMSIS/Include/cmsis_gcc.h ****   \param [in]    ptr  Pointer to location
1493:Drivers/CMSIS/Include/cmsis_gcc.h ****  */
1494:Drivers/CMSIS/Include/cmsis_gcc.h **** __STATIC_FORCEINLINE void __STLH(uint16_t value, volatile uint16_t *ptr)
1495:Drivers/CMSIS/Include/cmsis_gcc.h **** {
1496:Drivers/CMSIS/Include/cmsis_gcc.h ****    __ASM volatile ("stlh %1, %0" : "=Q" (*ptr) : "r" ((uint32_t)value) );
1497:Drivers/CMSIS/Include/cmsis_gcc.h **** }
1498:Drivers/CMSIS/Include/cmsis_gcc.h **** 
1499:Drivers/CMSIS/Include/cmsis_gcc.h **** 
1500:Drivers/CMSIS/Include/cmsis_gcc.h **** /**
1501:Drivers/CMSIS/Include/cmsis_gcc.h ****   \brief   Store-Release (32 bit)
1502:Drivers/CMSIS/Include/cmsis_gcc.h ****   \details Executes a STL instruction for 32 bit values.
1503:Drivers/CMSIS/Include/cmsis_gcc.h ****   \param [in]  value  Value to store
1504:Drivers/CMSIS/Include/cmsis_gcc.h ****   \param [in]    ptr  Pointer to location
1505:Drivers/CMSIS/Include/cmsis_gcc.h ****  */
1506:Drivers/CMSIS/Include/cmsis_gcc.h **** __STATIC_FORCEINLINE void __STL(uint32_t value, volatile uint32_t *ptr)
1507:Drivers/CMSIS/Include/cmsis_gcc.h **** {
1508:Drivers/CMSIS/Include/cmsis_gcc.h ****    __ASM volatile ("stl %1, %0" : "=Q" (*ptr) : "r" ((uint32_t)value) );
1509:Drivers/CMSIS/Include/cmsis_gcc.h **** }
1510:Drivers/CMSIS/Include/cmsis_gcc.h **** 
1511:Drivers/CMSIS/Include/cmsis_gcc.h **** 
1512:Drivers/CMSIS/Include/cmsis_gcc.h **** /**
1513:Drivers/CMSIS/Include/cmsis_gcc.h ****   \brief   Load-Acquire Exclusive (8 bit)
1514:Drivers/CMSIS/Include/cmsis_gcc.h ****   \details Executes a LDAB exclusive instruction for 8 bit value.
1515:Drivers/CMSIS/Include/cmsis_gcc.h ****   \param [in]    ptr  Pointer to data
1516:Drivers/CMSIS/Include/cmsis_gcc.h ****   \return             value of type uint8_t at (*ptr)
ARM GAS  C:\Users\JustE\AppData\Local\Temp\ccpkykRb.s 			page 39


1517:Drivers/CMSIS/Include/cmsis_gcc.h ****  */
1518:Drivers/CMSIS/Include/cmsis_gcc.h **** __STATIC_FORCEINLINE uint8_t __LDAEXB(volatile uint8_t *ptr)
1519:Drivers/CMSIS/Include/cmsis_gcc.h **** {
1520:Drivers/CMSIS/Include/cmsis_gcc.h ****     uint32_t result;
1521:Drivers/CMSIS/Include/cmsis_gcc.h **** 
1522:Drivers/CMSIS/Include/cmsis_gcc.h ****    __ASM volatile ("ldaexb %0, %1" : "=r" (result) : "Q" (*ptr) );
1523:Drivers/CMSIS/Include/cmsis_gcc.h ****    return ((uint8_t) result);
1524:Drivers/CMSIS/Include/cmsis_gcc.h **** }
1525:Drivers/CMSIS/Include/cmsis_gcc.h **** 
1526:Drivers/CMSIS/Include/cmsis_gcc.h **** 
1527:Drivers/CMSIS/Include/cmsis_gcc.h **** /**
1528:Drivers/CMSIS/Include/cmsis_gcc.h ****   \brief   Load-Acquire Exclusive (16 bit)
1529:Drivers/CMSIS/Include/cmsis_gcc.h ****   \details Executes a LDAH exclusive instruction for 16 bit values.
1530:Drivers/CMSIS/Include/cmsis_gcc.h ****   \param [in]    ptr  Pointer to data
1531:Drivers/CMSIS/Include/cmsis_gcc.h ****   \return        value of type uint16_t at (*ptr)
1532:Drivers/CMSIS/Include/cmsis_gcc.h ****  */
1533:Drivers/CMSIS/Include/cmsis_gcc.h **** __STATIC_FORCEINLINE uint16_t __LDAEXH(volatile uint16_t *ptr)
1534:Drivers/CMSIS/Include/cmsis_gcc.h **** {
1535:Drivers/CMSIS/Include/cmsis_gcc.h ****     uint32_t result;
1536:Drivers/CMSIS/Include/cmsis_gcc.h **** 
1537:Drivers/CMSIS/Include/cmsis_gcc.h ****    __ASM volatile ("ldaexh %0, %1" : "=r" (result) : "Q" (*ptr) );
1538:Drivers/CMSIS/Include/cmsis_gcc.h ****    return ((uint16_t) result);
1539:Drivers/CMSIS/Include/cmsis_gcc.h **** }
1540:Drivers/CMSIS/Include/cmsis_gcc.h **** 
1541:Drivers/CMSIS/Include/cmsis_gcc.h **** 
1542:Drivers/CMSIS/Include/cmsis_gcc.h **** /**
1543:Drivers/CMSIS/Include/cmsis_gcc.h ****   \brief   Load-Acquire Exclusive (32 bit)
1544:Drivers/CMSIS/Include/cmsis_gcc.h ****   \details Executes a LDA exclusive instruction for 32 bit values.
1545:Drivers/CMSIS/Include/cmsis_gcc.h ****   \param [in]    ptr  Pointer to data
1546:Drivers/CMSIS/Include/cmsis_gcc.h ****   \return        value of type uint32_t at (*ptr)
1547:Drivers/CMSIS/Include/cmsis_gcc.h ****  */
1548:Drivers/CMSIS/Include/cmsis_gcc.h **** __STATIC_FORCEINLINE uint32_t __LDAEX(volatile uint32_t *ptr)
1549:Drivers/CMSIS/Include/cmsis_gcc.h **** {
1550:Drivers/CMSIS/Include/cmsis_gcc.h ****     uint32_t result;
1551:Drivers/CMSIS/Include/cmsis_gcc.h **** 
1552:Drivers/CMSIS/Include/cmsis_gcc.h ****    __ASM volatile ("ldaex %0, %1" : "=r" (result) : "Q" (*ptr) );
1553:Drivers/CMSIS/Include/cmsis_gcc.h ****    return(result);
1554:Drivers/CMSIS/Include/cmsis_gcc.h **** }
1555:Drivers/CMSIS/Include/cmsis_gcc.h **** 
1556:Drivers/CMSIS/Include/cmsis_gcc.h **** 
1557:Drivers/CMSIS/Include/cmsis_gcc.h **** /**
1558:Drivers/CMSIS/Include/cmsis_gcc.h ****   \brief   Store-Release Exclusive (8 bit)
1559:Drivers/CMSIS/Include/cmsis_gcc.h ****   \details Executes a STLB exclusive instruction for 8 bit values.
1560:Drivers/CMSIS/Include/cmsis_gcc.h ****   \param [in]  value  Value to store
1561:Drivers/CMSIS/Include/cmsis_gcc.h ****   \param [in]    ptr  Pointer to location
1562:Drivers/CMSIS/Include/cmsis_gcc.h ****   \return          0  Function succeeded
1563:Drivers/CMSIS/Include/cmsis_gcc.h ****   \return          1  Function failed
1564:Drivers/CMSIS/Include/cmsis_gcc.h ****  */
1565:Drivers/CMSIS/Include/cmsis_gcc.h **** __STATIC_FORCEINLINE uint32_t __STLEXB(uint8_t value, volatile uint8_t *ptr)
1566:Drivers/CMSIS/Include/cmsis_gcc.h **** {
1567:Drivers/CMSIS/Include/cmsis_gcc.h ****    uint32_t result;
1568:Drivers/CMSIS/Include/cmsis_gcc.h **** 
1569:Drivers/CMSIS/Include/cmsis_gcc.h ****    __ASM volatile ("stlexb %0, %2, %1" : "=&r" (result), "=Q" (*ptr) : "r" ((uint32_t)value) );
1570:Drivers/CMSIS/Include/cmsis_gcc.h ****    return(result);
1571:Drivers/CMSIS/Include/cmsis_gcc.h **** }
1572:Drivers/CMSIS/Include/cmsis_gcc.h **** 
1573:Drivers/CMSIS/Include/cmsis_gcc.h **** 
ARM GAS  C:\Users\JustE\AppData\Local\Temp\ccpkykRb.s 			page 40


1574:Drivers/CMSIS/Include/cmsis_gcc.h **** /**
1575:Drivers/CMSIS/Include/cmsis_gcc.h ****   \brief   Store-Release Exclusive (16 bit)
1576:Drivers/CMSIS/Include/cmsis_gcc.h ****   \details Executes a STLH exclusive instruction for 16 bit values.
1577:Drivers/CMSIS/Include/cmsis_gcc.h ****   \param [in]  value  Value to store
1578:Drivers/CMSIS/Include/cmsis_gcc.h ****   \param [in]    ptr  Pointer to location
1579:Drivers/CMSIS/Include/cmsis_gcc.h ****   \return          0  Function succeeded
1580:Drivers/CMSIS/Include/cmsis_gcc.h ****   \return          1  Function failed
1581:Drivers/CMSIS/Include/cmsis_gcc.h ****  */
1582:Drivers/CMSIS/Include/cmsis_gcc.h **** __STATIC_FORCEINLINE uint32_t __STLEXH(uint16_t value, volatile uint16_t *ptr)
1583:Drivers/CMSIS/Include/cmsis_gcc.h **** {
1584:Drivers/CMSIS/Include/cmsis_gcc.h ****    uint32_t result;
1585:Drivers/CMSIS/Include/cmsis_gcc.h **** 
1586:Drivers/CMSIS/Include/cmsis_gcc.h ****    __ASM volatile ("stlexh %0, %2, %1" : "=&r" (result), "=Q" (*ptr) : "r" ((uint32_t)value) );
1587:Drivers/CMSIS/Include/cmsis_gcc.h ****    return(result);
1588:Drivers/CMSIS/Include/cmsis_gcc.h **** }
1589:Drivers/CMSIS/Include/cmsis_gcc.h **** 
1590:Drivers/CMSIS/Include/cmsis_gcc.h **** 
1591:Drivers/CMSIS/Include/cmsis_gcc.h **** /**
1592:Drivers/CMSIS/Include/cmsis_gcc.h ****   \brief   Store-Release Exclusive (32 bit)
1593:Drivers/CMSIS/Include/cmsis_gcc.h ****   \details Executes a STL exclusive instruction for 32 bit values.
1594:Drivers/CMSIS/Include/cmsis_gcc.h ****   \param [in]  value  Value to store
1595:Drivers/CMSIS/Include/cmsis_gcc.h ****   \param [in]    ptr  Pointer to location
1596:Drivers/CMSIS/Include/cmsis_gcc.h ****   \return          0  Function succeeded
1597:Drivers/CMSIS/Include/cmsis_gcc.h ****   \return          1  Function failed
1598:Drivers/CMSIS/Include/cmsis_gcc.h ****  */
1599:Drivers/CMSIS/Include/cmsis_gcc.h **** __STATIC_FORCEINLINE uint32_t __STLEX(uint32_t value, volatile uint32_t *ptr)
1600:Drivers/CMSIS/Include/cmsis_gcc.h **** {
1601:Drivers/CMSIS/Include/cmsis_gcc.h ****    uint32_t result;
1602:Drivers/CMSIS/Include/cmsis_gcc.h **** 
1603:Drivers/CMSIS/Include/cmsis_gcc.h ****    __ASM volatile ("stlex %0, %2, %1" : "=&r" (result), "=Q" (*ptr) : "r" ((uint32_t)value) );
1604:Drivers/CMSIS/Include/cmsis_gcc.h ****    return(result);
1605:Drivers/CMSIS/Include/cmsis_gcc.h **** }
1606:Drivers/CMSIS/Include/cmsis_gcc.h **** 
1607:Drivers/CMSIS/Include/cmsis_gcc.h **** #endif /* ((defined (__ARM_ARCH_8M_MAIN__ ) && (__ARM_ARCH_8M_MAIN__ == 1)) || \
1608:Drivers/CMSIS/Include/cmsis_gcc.h ****            (defined (__ARM_ARCH_8M_BASE__ ) && (__ARM_ARCH_8M_BASE__ == 1))    ) */
1609:Drivers/CMSIS/Include/cmsis_gcc.h **** 
1610:Drivers/CMSIS/Include/cmsis_gcc.h **** /*@}*/ /* end of group CMSIS_Core_InstructionInterface */
1611:Drivers/CMSIS/Include/cmsis_gcc.h **** 
1612:Drivers/CMSIS/Include/cmsis_gcc.h **** 
1613:Drivers/CMSIS/Include/cmsis_gcc.h **** /* ###################  Compiler specific Intrinsics  ########################### */
1614:Drivers/CMSIS/Include/cmsis_gcc.h **** /** \defgroup CMSIS_SIMD_intrinsics CMSIS SIMD Intrinsics
1615:Drivers/CMSIS/Include/cmsis_gcc.h ****   Access to dedicated SIMD instructions
1616:Drivers/CMSIS/Include/cmsis_gcc.h ****   @{
1617:Drivers/CMSIS/Include/cmsis_gcc.h **** */
1618:Drivers/CMSIS/Include/cmsis_gcc.h **** 
1619:Drivers/CMSIS/Include/cmsis_gcc.h **** #if (defined (__ARM_FEATURE_DSP) && (__ARM_FEATURE_DSP == 1))
1620:Drivers/CMSIS/Include/cmsis_gcc.h **** 
1621:Drivers/CMSIS/Include/cmsis_gcc.h **** __STATIC_FORCEINLINE uint32_t __SADD8(uint32_t op1, uint32_t op2)
1622:Drivers/CMSIS/Include/cmsis_gcc.h **** {
1623:Drivers/CMSIS/Include/cmsis_gcc.h ****   uint32_t result;
1624:Drivers/CMSIS/Include/cmsis_gcc.h **** 
1625:Drivers/CMSIS/Include/cmsis_gcc.h ****   __ASM volatile ("sadd8 %0, %1, %2" : "=r" (result) : "r" (op1), "r" (op2) );
1626:Drivers/CMSIS/Include/cmsis_gcc.h ****   return(result);
1627:Drivers/CMSIS/Include/cmsis_gcc.h **** }
1628:Drivers/CMSIS/Include/cmsis_gcc.h **** 
1629:Drivers/CMSIS/Include/cmsis_gcc.h **** __STATIC_FORCEINLINE uint32_t __QADD8(uint32_t op1, uint32_t op2)
1630:Drivers/CMSIS/Include/cmsis_gcc.h **** {
ARM GAS  C:\Users\JustE\AppData\Local\Temp\ccpkykRb.s 			page 41


1631:Drivers/CMSIS/Include/cmsis_gcc.h ****   uint32_t result;
1632:Drivers/CMSIS/Include/cmsis_gcc.h **** 
1633:Drivers/CMSIS/Include/cmsis_gcc.h ****   __ASM volatile ("qadd8 %0, %1, %2" : "=r" (result) : "r" (op1), "r" (op2) );
1634:Drivers/CMSIS/Include/cmsis_gcc.h ****   return(result);
1635:Drivers/CMSIS/Include/cmsis_gcc.h **** }
1636:Drivers/CMSIS/Include/cmsis_gcc.h **** 
1637:Drivers/CMSIS/Include/cmsis_gcc.h **** __STATIC_FORCEINLINE uint32_t __SHADD8(uint32_t op1, uint32_t op2)
1638:Drivers/CMSIS/Include/cmsis_gcc.h **** {
1639:Drivers/CMSIS/Include/cmsis_gcc.h ****   uint32_t result;
1640:Drivers/CMSIS/Include/cmsis_gcc.h **** 
1641:Drivers/CMSIS/Include/cmsis_gcc.h ****   __ASM volatile ("shadd8 %0, %1, %2" : "=r" (result) : "r" (op1), "r" (op2) );
1642:Drivers/CMSIS/Include/cmsis_gcc.h ****   return(result);
1643:Drivers/CMSIS/Include/cmsis_gcc.h **** }
1644:Drivers/CMSIS/Include/cmsis_gcc.h **** 
1645:Drivers/CMSIS/Include/cmsis_gcc.h **** __STATIC_FORCEINLINE uint32_t __UADD8(uint32_t op1, uint32_t op2)
1646:Drivers/CMSIS/Include/cmsis_gcc.h **** {
1647:Drivers/CMSIS/Include/cmsis_gcc.h ****   uint32_t result;
1648:Drivers/CMSIS/Include/cmsis_gcc.h **** 
1649:Drivers/CMSIS/Include/cmsis_gcc.h ****   __ASM volatile ("uadd8 %0, %1, %2" : "=r" (result) : "r" (op1), "r" (op2) );
1650:Drivers/CMSIS/Include/cmsis_gcc.h ****   return(result);
1651:Drivers/CMSIS/Include/cmsis_gcc.h **** }
1652:Drivers/CMSIS/Include/cmsis_gcc.h **** 
1653:Drivers/CMSIS/Include/cmsis_gcc.h **** __STATIC_FORCEINLINE uint32_t __UQADD8(uint32_t op1, uint32_t op2)
1654:Drivers/CMSIS/Include/cmsis_gcc.h **** {
1655:Drivers/CMSIS/Include/cmsis_gcc.h ****   uint32_t result;
1656:Drivers/CMSIS/Include/cmsis_gcc.h **** 
1657:Drivers/CMSIS/Include/cmsis_gcc.h ****   __ASM volatile ("uqadd8 %0, %1, %2" : "=r" (result) : "r" (op1), "r" (op2) );
1658:Drivers/CMSIS/Include/cmsis_gcc.h ****   return(result);
1659:Drivers/CMSIS/Include/cmsis_gcc.h **** }
1660:Drivers/CMSIS/Include/cmsis_gcc.h **** 
1661:Drivers/CMSIS/Include/cmsis_gcc.h **** __STATIC_FORCEINLINE uint32_t __UHADD8(uint32_t op1, uint32_t op2)
1662:Drivers/CMSIS/Include/cmsis_gcc.h **** {
1663:Drivers/CMSIS/Include/cmsis_gcc.h ****   uint32_t result;
1664:Drivers/CMSIS/Include/cmsis_gcc.h **** 
1665:Drivers/CMSIS/Include/cmsis_gcc.h ****   __ASM volatile ("uhadd8 %0, %1, %2" : "=r" (result) : "r" (op1), "r" (op2) );
1666:Drivers/CMSIS/Include/cmsis_gcc.h ****   return(result);
1667:Drivers/CMSIS/Include/cmsis_gcc.h **** }
1668:Drivers/CMSIS/Include/cmsis_gcc.h **** 
1669:Drivers/CMSIS/Include/cmsis_gcc.h **** 
1670:Drivers/CMSIS/Include/cmsis_gcc.h **** __STATIC_FORCEINLINE uint32_t __SSUB8(uint32_t op1, uint32_t op2)
1671:Drivers/CMSIS/Include/cmsis_gcc.h **** {
1672:Drivers/CMSIS/Include/cmsis_gcc.h ****   uint32_t result;
1673:Drivers/CMSIS/Include/cmsis_gcc.h **** 
1674:Drivers/CMSIS/Include/cmsis_gcc.h ****   __ASM volatile ("ssub8 %0, %1, %2" : "=r" (result) : "r" (op1), "r" (op2) );
1675:Drivers/CMSIS/Include/cmsis_gcc.h ****   return(result);
1676:Drivers/CMSIS/Include/cmsis_gcc.h **** }
1677:Drivers/CMSIS/Include/cmsis_gcc.h **** 
1678:Drivers/CMSIS/Include/cmsis_gcc.h **** __STATIC_FORCEINLINE uint32_t __QSUB8(uint32_t op1, uint32_t op2)
1679:Drivers/CMSIS/Include/cmsis_gcc.h **** {
1680:Drivers/CMSIS/Include/cmsis_gcc.h ****   uint32_t result;
1681:Drivers/CMSIS/Include/cmsis_gcc.h **** 
1682:Drivers/CMSIS/Include/cmsis_gcc.h ****   __ASM volatile ("qsub8 %0, %1, %2" : "=r" (result) : "r" (op1), "r" (op2) );
1683:Drivers/CMSIS/Include/cmsis_gcc.h ****   return(result);
1684:Drivers/CMSIS/Include/cmsis_gcc.h **** }
1685:Drivers/CMSIS/Include/cmsis_gcc.h **** 
1686:Drivers/CMSIS/Include/cmsis_gcc.h **** __STATIC_FORCEINLINE uint32_t __SHSUB8(uint32_t op1, uint32_t op2)
1687:Drivers/CMSIS/Include/cmsis_gcc.h **** {
ARM GAS  C:\Users\JustE\AppData\Local\Temp\ccpkykRb.s 			page 42


1688:Drivers/CMSIS/Include/cmsis_gcc.h ****   uint32_t result;
1689:Drivers/CMSIS/Include/cmsis_gcc.h **** 
1690:Drivers/CMSIS/Include/cmsis_gcc.h ****   __ASM volatile ("shsub8 %0, %1, %2" : "=r" (result) : "r" (op1), "r" (op2) );
1691:Drivers/CMSIS/Include/cmsis_gcc.h ****   return(result);
1692:Drivers/CMSIS/Include/cmsis_gcc.h **** }
1693:Drivers/CMSIS/Include/cmsis_gcc.h **** 
1694:Drivers/CMSIS/Include/cmsis_gcc.h **** __STATIC_FORCEINLINE uint32_t __USUB8(uint32_t op1, uint32_t op2)
1695:Drivers/CMSIS/Include/cmsis_gcc.h **** {
1696:Drivers/CMSIS/Include/cmsis_gcc.h ****   uint32_t result;
1697:Drivers/CMSIS/Include/cmsis_gcc.h **** 
1698:Drivers/CMSIS/Include/cmsis_gcc.h ****   __ASM volatile ("usub8 %0, %1, %2" : "=r" (result) : "r" (op1), "r" (op2) );
1699:Drivers/CMSIS/Include/cmsis_gcc.h ****   return(result);
1700:Drivers/CMSIS/Include/cmsis_gcc.h **** }
1701:Drivers/CMSIS/Include/cmsis_gcc.h **** 
1702:Drivers/CMSIS/Include/cmsis_gcc.h **** __STATIC_FORCEINLINE uint32_t __UQSUB8(uint32_t op1, uint32_t op2)
1703:Drivers/CMSIS/Include/cmsis_gcc.h **** {
1704:Drivers/CMSIS/Include/cmsis_gcc.h ****   uint32_t result;
1705:Drivers/CMSIS/Include/cmsis_gcc.h **** 
1706:Drivers/CMSIS/Include/cmsis_gcc.h ****   __ASM volatile ("uqsub8 %0, %1, %2" : "=r" (result) : "r" (op1), "r" (op2) );
1707:Drivers/CMSIS/Include/cmsis_gcc.h ****   return(result);
1708:Drivers/CMSIS/Include/cmsis_gcc.h **** }
1709:Drivers/CMSIS/Include/cmsis_gcc.h **** 
1710:Drivers/CMSIS/Include/cmsis_gcc.h **** __STATIC_FORCEINLINE uint32_t __UHSUB8(uint32_t op1, uint32_t op2)
1711:Drivers/CMSIS/Include/cmsis_gcc.h **** {
1712:Drivers/CMSIS/Include/cmsis_gcc.h ****   uint32_t result;
1713:Drivers/CMSIS/Include/cmsis_gcc.h **** 
1714:Drivers/CMSIS/Include/cmsis_gcc.h ****   __ASM volatile ("uhsub8 %0, %1, %2" : "=r" (result) : "r" (op1), "r" (op2) );
1715:Drivers/CMSIS/Include/cmsis_gcc.h ****   return(result);
1716:Drivers/CMSIS/Include/cmsis_gcc.h **** }
1717:Drivers/CMSIS/Include/cmsis_gcc.h **** 
1718:Drivers/CMSIS/Include/cmsis_gcc.h **** 
1719:Drivers/CMSIS/Include/cmsis_gcc.h **** __STATIC_FORCEINLINE uint32_t __SADD16(uint32_t op1, uint32_t op2)
1720:Drivers/CMSIS/Include/cmsis_gcc.h **** {
1721:Drivers/CMSIS/Include/cmsis_gcc.h ****   uint32_t result;
1722:Drivers/CMSIS/Include/cmsis_gcc.h **** 
1723:Drivers/CMSIS/Include/cmsis_gcc.h ****   __ASM volatile ("sadd16 %0, %1, %2" : "=r" (result) : "r" (op1), "r" (op2) );
1724:Drivers/CMSIS/Include/cmsis_gcc.h ****   return(result);
1725:Drivers/CMSIS/Include/cmsis_gcc.h **** }
1726:Drivers/CMSIS/Include/cmsis_gcc.h **** 
1727:Drivers/CMSIS/Include/cmsis_gcc.h **** __STATIC_FORCEINLINE uint32_t __QADD16(uint32_t op1, uint32_t op2)
1728:Drivers/CMSIS/Include/cmsis_gcc.h **** {
1729:Drivers/CMSIS/Include/cmsis_gcc.h ****   uint32_t result;
1730:Drivers/CMSIS/Include/cmsis_gcc.h **** 
1731:Drivers/CMSIS/Include/cmsis_gcc.h ****   __ASM volatile ("qadd16 %0, %1, %2" : "=r" (result) : "r" (op1), "r" (op2) );
1732:Drivers/CMSIS/Include/cmsis_gcc.h ****   return(result);
1733:Drivers/CMSIS/Include/cmsis_gcc.h **** }
1734:Drivers/CMSIS/Include/cmsis_gcc.h **** 
1735:Drivers/CMSIS/Include/cmsis_gcc.h **** __STATIC_FORCEINLINE uint32_t __SHADD16(uint32_t op1, uint32_t op2)
1736:Drivers/CMSIS/Include/cmsis_gcc.h **** {
1737:Drivers/CMSIS/Include/cmsis_gcc.h ****   uint32_t result;
1738:Drivers/CMSIS/Include/cmsis_gcc.h **** 
1739:Drivers/CMSIS/Include/cmsis_gcc.h ****   __ASM volatile ("shadd16 %0, %1, %2" : "=r" (result) : "r" (op1), "r" (op2) );
1740:Drivers/CMSIS/Include/cmsis_gcc.h ****   return(result);
1741:Drivers/CMSIS/Include/cmsis_gcc.h **** }
1742:Drivers/CMSIS/Include/cmsis_gcc.h **** 
1743:Drivers/CMSIS/Include/cmsis_gcc.h **** __STATIC_FORCEINLINE uint32_t __UADD16(uint32_t op1, uint32_t op2)
1744:Drivers/CMSIS/Include/cmsis_gcc.h **** {
ARM GAS  C:\Users\JustE\AppData\Local\Temp\ccpkykRb.s 			page 43


1745:Drivers/CMSIS/Include/cmsis_gcc.h ****   uint32_t result;
1746:Drivers/CMSIS/Include/cmsis_gcc.h **** 
1747:Drivers/CMSIS/Include/cmsis_gcc.h ****   __ASM volatile ("uadd16 %0, %1, %2" : "=r" (result) : "r" (op1), "r" (op2) );
1748:Drivers/CMSIS/Include/cmsis_gcc.h ****   return(result);
1749:Drivers/CMSIS/Include/cmsis_gcc.h **** }
1750:Drivers/CMSIS/Include/cmsis_gcc.h **** 
1751:Drivers/CMSIS/Include/cmsis_gcc.h **** __STATIC_FORCEINLINE uint32_t __UQADD16(uint32_t op1, uint32_t op2)
1752:Drivers/CMSIS/Include/cmsis_gcc.h **** {
1753:Drivers/CMSIS/Include/cmsis_gcc.h ****   uint32_t result;
1754:Drivers/CMSIS/Include/cmsis_gcc.h **** 
1755:Drivers/CMSIS/Include/cmsis_gcc.h ****   __ASM volatile ("uqadd16 %0, %1, %2" : "=r" (result) : "r" (op1), "r" (op2) );
1756:Drivers/CMSIS/Include/cmsis_gcc.h ****   return(result);
1757:Drivers/CMSIS/Include/cmsis_gcc.h **** }
1758:Drivers/CMSIS/Include/cmsis_gcc.h **** 
1759:Drivers/CMSIS/Include/cmsis_gcc.h **** __STATIC_FORCEINLINE uint32_t __UHADD16(uint32_t op1, uint32_t op2)
1760:Drivers/CMSIS/Include/cmsis_gcc.h **** {
1761:Drivers/CMSIS/Include/cmsis_gcc.h ****   uint32_t result;
1762:Drivers/CMSIS/Include/cmsis_gcc.h **** 
1763:Drivers/CMSIS/Include/cmsis_gcc.h ****   __ASM volatile ("uhadd16 %0, %1, %2" : "=r" (result) : "r" (op1), "r" (op2) );
1764:Drivers/CMSIS/Include/cmsis_gcc.h ****   return(result);
1765:Drivers/CMSIS/Include/cmsis_gcc.h **** }
1766:Drivers/CMSIS/Include/cmsis_gcc.h **** 
1767:Drivers/CMSIS/Include/cmsis_gcc.h **** __STATIC_FORCEINLINE uint32_t __SSUB16(uint32_t op1, uint32_t op2)
1768:Drivers/CMSIS/Include/cmsis_gcc.h **** {
1769:Drivers/CMSIS/Include/cmsis_gcc.h ****   uint32_t result;
1770:Drivers/CMSIS/Include/cmsis_gcc.h **** 
1771:Drivers/CMSIS/Include/cmsis_gcc.h ****   __ASM volatile ("ssub16 %0, %1, %2" : "=r" (result) : "r" (op1), "r" (op2) );
1772:Drivers/CMSIS/Include/cmsis_gcc.h ****   return(result);
1773:Drivers/CMSIS/Include/cmsis_gcc.h **** }
1774:Drivers/CMSIS/Include/cmsis_gcc.h **** 
1775:Drivers/CMSIS/Include/cmsis_gcc.h **** __STATIC_FORCEINLINE uint32_t __QSUB16(uint32_t op1, uint32_t op2)
1776:Drivers/CMSIS/Include/cmsis_gcc.h **** {
1777:Drivers/CMSIS/Include/cmsis_gcc.h ****   uint32_t result;
1778:Drivers/CMSIS/Include/cmsis_gcc.h **** 
1779:Drivers/CMSIS/Include/cmsis_gcc.h ****   __ASM volatile ("qsub16 %0, %1, %2" : "=r" (result) : "r" (op1), "r" (op2) );
1780:Drivers/CMSIS/Include/cmsis_gcc.h ****   return(result);
1781:Drivers/CMSIS/Include/cmsis_gcc.h **** }
1782:Drivers/CMSIS/Include/cmsis_gcc.h **** 
1783:Drivers/CMSIS/Include/cmsis_gcc.h **** __STATIC_FORCEINLINE uint32_t __SHSUB16(uint32_t op1, uint32_t op2)
1784:Drivers/CMSIS/Include/cmsis_gcc.h **** {
1785:Drivers/CMSIS/Include/cmsis_gcc.h ****   uint32_t result;
1786:Drivers/CMSIS/Include/cmsis_gcc.h **** 
1787:Drivers/CMSIS/Include/cmsis_gcc.h ****   __ASM volatile ("shsub16 %0, %1, %2" : "=r" (result) : "r" (op1), "r" (op2) );
1788:Drivers/CMSIS/Include/cmsis_gcc.h ****   return(result);
1789:Drivers/CMSIS/Include/cmsis_gcc.h **** }
1790:Drivers/CMSIS/Include/cmsis_gcc.h **** 
1791:Drivers/CMSIS/Include/cmsis_gcc.h **** __STATIC_FORCEINLINE uint32_t __USUB16(uint32_t op1, uint32_t op2)
1792:Drivers/CMSIS/Include/cmsis_gcc.h **** {
1793:Drivers/CMSIS/Include/cmsis_gcc.h ****   uint32_t result;
1794:Drivers/CMSIS/Include/cmsis_gcc.h **** 
1795:Drivers/CMSIS/Include/cmsis_gcc.h ****   __ASM volatile ("usub16 %0, %1, %2" : "=r" (result) : "r" (op1), "r" (op2) );
1796:Drivers/CMSIS/Include/cmsis_gcc.h ****   return(result);
1797:Drivers/CMSIS/Include/cmsis_gcc.h **** }
1798:Drivers/CMSIS/Include/cmsis_gcc.h **** 
1799:Drivers/CMSIS/Include/cmsis_gcc.h **** __STATIC_FORCEINLINE uint32_t __UQSUB16(uint32_t op1, uint32_t op2)
1800:Drivers/CMSIS/Include/cmsis_gcc.h **** {
1801:Drivers/CMSIS/Include/cmsis_gcc.h ****   uint32_t result;
ARM GAS  C:\Users\JustE\AppData\Local\Temp\ccpkykRb.s 			page 44


1802:Drivers/CMSIS/Include/cmsis_gcc.h **** 
1803:Drivers/CMSIS/Include/cmsis_gcc.h ****   __ASM volatile ("uqsub16 %0, %1, %2" : "=r" (result) : "r" (op1), "r" (op2) );
1804:Drivers/CMSIS/Include/cmsis_gcc.h ****   return(result);
1805:Drivers/CMSIS/Include/cmsis_gcc.h **** }
1806:Drivers/CMSIS/Include/cmsis_gcc.h **** 
1807:Drivers/CMSIS/Include/cmsis_gcc.h **** __STATIC_FORCEINLINE uint32_t __UHSUB16(uint32_t op1, uint32_t op2)
1808:Drivers/CMSIS/Include/cmsis_gcc.h **** {
1809:Drivers/CMSIS/Include/cmsis_gcc.h ****   uint32_t result;
1810:Drivers/CMSIS/Include/cmsis_gcc.h **** 
1811:Drivers/CMSIS/Include/cmsis_gcc.h ****   __ASM volatile ("uhsub16 %0, %1, %2" : "=r" (result) : "r" (op1), "r" (op2) );
1812:Drivers/CMSIS/Include/cmsis_gcc.h ****   return(result);
1813:Drivers/CMSIS/Include/cmsis_gcc.h **** }
1814:Drivers/CMSIS/Include/cmsis_gcc.h **** 
1815:Drivers/CMSIS/Include/cmsis_gcc.h **** __STATIC_FORCEINLINE uint32_t __SASX(uint32_t op1, uint32_t op2)
1816:Drivers/CMSIS/Include/cmsis_gcc.h **** {
1817:Drivers/CMSIS/Include/cmsis_gcc.h ****   uint32_t result;
1818:Drivers/CMSIS/Include/cmsis_gcc.h **** 
1819:Drivers/CMSIS/Include/cmsis_gcc.h ****   __ASM volatile ("sasx %0, %1, %2" : "=r" (result) : "r" (op1), "r" (op2) );
1820:Drivers/CMSIS/Include/cmsis_gcc.h ****   return(result);
1821:Drivers/CMSIS/Include/cmsis_gcc.h **** }
1822:Drivers/CMSIS/Include/cmsis_gcc.h **** 
1823:Drivers/CMSIS/Include/cmsis_gcc.h **** __STATIC_FORCEINLINE uint32_t __QASX(uint32_t op1, uint32_t op2)
1824:Drivers/CMSIS/Include/cmsis_gcc.h **** {
1825:Drivers/CMSIS/Include/cmsis_gcc.h ****   uint32_t result;
1826:Drivers/CMSIS/Include/cmsis_gcc.h **** 
1827:Drivers/CMSIS/Include/cmsis_gcc.h ****   __ASM volatile ("qasx %0, %1, %2" : "=r" (result) : "r" (op1), "r" (op2) );
1828:Drivers/CMSIS/Include/cmsis_gcc.h ****   return(result);
1829:Drivers/CMSIS/Include/cmsis_gcc.h **** }
1830:Drivers/CMSIS/Include/cmsis_gcc.h **** 
1831:Drivers/CMSIS/Include/cmsis_gcc.h **** __STATIC_FORCEINLINE uint32_t __SHASX(uint32_t op1, uint32_t op2)
1832:Drivers/CMSIS/Include/cmsis_gcc.h **** {
1833:Drivers/CMSIS/Include/cmsis_gcc.h ****   uint32_t result;
1834:Drivers/CMSIS/Include/cmsis_gcc.h **** 
1835:Drivers/CMSIS/Include/cmsis_gcc.h ****   __ASM volatile ("shasx %0, %1, %2" : "=r" (result) : "r" (op1), "r" (op2) );
1836:Drivers/CMSIS/Include/cmsis_gcc.h ****   return(result);
1837:Drivers/CMSIS/Include/cmsis_gcc.h **** }
1838:Drivers/CMSIS/Include/cmsis_gcc.h **** 
1839:Drivers/CMSIS/Include/cmsis_gcc.h **** __STATIC_FORCEINLINE uint32_t __UASX(uint32_t op1, uint32_t op2)
1840:Drivers/CMSIS/Include/cmsis_gcc.h **** {
1841:Drivers/CMSIS/Include/cmsis_gcc.h ****   uint32_t result;
1842:Drivers/CMSIS/Include/cmsis_gcc.h **** 
1843:Drivers/CMSIS/Include/cmsis_gcc.h ****   __ASM volatile ("uasx %0, %1, %2" : "=r" (result) : "r" (op1), "r" (op2) );
1844:Drivers/CMSIS/Include/cmsis_gcc.h ****   return(result);
1845:Drivers/CMSIS/Include/cmsis_gcc.h **** }
1846:Drivers/CMSIS/Include/cmsis_gcc.h **** 
1847:Drivers/CMSIS/Include/cmsis_gcc.h **** __STATIC_FORCEINLINE uint32_t __UQASX(uint32_t op1, uint32_t op2)
1848:Drivers/CMSIS/Include/cmsis_gcc.h **** {
1849:Drivers/CMSIS/Include/cmsis_gcc.h ****   uint32_t result;
1850:Drivers/CMSIS/Include/cmsis_gcc.h **** 
1851:Drivers/CMSIS/Include/cmsis_gcc.h ****   __ASM volatile ("uqasx %0, %1, %2" : "=r" (result) : "r" (op1), "r" (op2) );
1852:Drivers/CMSIS/Include/cmsis_gcc.h ****   return(result);
1853:Drivers/CMSIS/Include/cmsis_gcc.h **** }
1854:Drivers/CMSIS/Include/cmsis_gcc.h **** 
1855:Drivers/CMSIS/Include/cmsis_gcc.h **** __STATIC_FORCEINLINE uint32_t __UHASX(uint32_t op1, uint32_t op2)
1856:Drivers/CMSIS/Include/cmsis_gcc.h **** {
1857:Drivers/CMSIS/Include/cmsis_gcc.h ****   uint32_t result;
1858:Drivers/CMSIS/Include/cmsis_gcc.h **** 
ARM GAS  C:\Users\JustE\AppData\Local\Temp\ccpkykRb.s 			page 45


1859:Drivers/CMSIS/Include/cmsis_gcc.h ****   __ASM volatile ("uhasx %0, %1, %2" : "=r" (result) : "r" (op1), "r" (op2) );
1860:Drivers/CMSIS/Include/cmsis_gcc.h ****   return(result);
1861:Drivers/CMSIS/Include/cmsis_gcc.h **** }
1862:Drivers/CMSIS/Include/cmsis_gcc.h **** 
1863:Drivers/CMSIS/Include/cmsis_gcc.h **** __STATIC_FORCEINLINE uint32_t __SSAX(uint32_t op1, uint32_t op2)
1864:Drivers/CMSIS/Include/cmsis_gcc.h **** {
1865:Drivers/CMSIS/Include/cmsis_gcc.h ****   uint32_t result;
1866:Drivers/CMSIS/Include/cmsis_gcc.h **** 
1867:Drivers/CMSIS/Include/cmsis_gcc.h ****   __ASM volatile ("ssax %0, %1, %2" : "=r" (result) : "r" (op1), "r" (op2) );
1868:Drivers/CMSIS/Include/cmsis_gcc.h ****   return(result);
1869:Drivers/CMSIS/Include/cmsis_gcc.h **** }
1870:Drivers/CMSIS/Include/cmsis_gcc.h **** 
1871:Drivers/CMSIS/Include/cmsis_gcc.h **** __STATIC_FORCEINLINE uint32_t __QSAX(uint32_t op1, uint32_t op2)
1872:Drivers/CMSIS/Include/cmsis_gcc.h **** {
1873:Drivers/CMSIS/Include/cmsis_gcc.h ****   uint32_t result;
1874:Drivers/CMSIS/Include/cmsis_gcc.h **** 
1875:Drivers/CMSIS/Include/cmsis_gcc.h ****   __ASM volatile ("qsax %0, %1, %2" : "=r" (result) : "r" (op1), "r" (op2) );
1876:Drivers/CMSIS/Include/cmsis_gcc.h ****   return(result);
1877:Drivers/CMSIS/Include/cmsis_gcc.h **** }
1878:Drivers/CMSIS/Include/cmsis_gcc.h **** 
1879:Drivers/CMSIS/Include/cmsis_gcc.h **** __STATIC_FORCEINLINE uint32_t __SHSAX(uint32_t op1, uint32_t op2)
1880:Drivers/CMSIS/Include/cmsis_gcc.h **** {
1881:Drivers/CMSIS/Include/cmsis_gcc.h ****   uint32_t result;
1882:Drivers/CMSIS/Include/cmsis_gcc.h **** 
1883:Drivers/CMSIS/Include/cmsis_gcc.h ****   __ASM volatile ("shsax %0, %1, %2" : "=r" (result) : "r" (op1), "r" (op2) );
1884:Drivers/CMSIS/Include/cmsis_gcc.h ****   return(result);
1885:Drivers/CMSIS/Include/cmsis_gcc.h **** }
1886:Drivers/CMSIS/Include/cmsis_gcc.h **** 
1887:Drivers/CMSIS/Include/cmsis_gcc.h **** __STATIC_FORCEINLINE uint32_t __USAX(uint32_t op1, uint32_t op2)
1888:Drivers/CMSIS/Include/cmsis_gcc.h **** {
1889:Drivers/CMSIS/Include/cmsis_gcc.h ****   uint32_t result;
1890:Drivers/CMSIS/Include/cmsis_gcc.h **** 
1891:Drivers/CMSIS/Include/cmsis_gcc.h ****   __ASM volatile ("usax %0, %1, %2" : "=r" (result) : "r" (op1), "r" (op2) );
1892:Drivers/CMSIS/Include/cmsis_gcc.h ****   return(result);
1893:Drivers/CMSIS/Include/cmsis_gcc.h **** }
1894:Drivers/CMSIS/Include/cmsis_gcc.h **** 
1895:Drivers/CMSIS/Include/cmsis_gcc.h **** __STATIC_FORCEINLINE uint32_t __UQSAX(uint32_t op1, uint32_t op2)
1896:Drivers/CMSIS/Include/cmsis_gcc.h **** {
1897:Drivers/CMSIS/Include/cmsis_gcc.h ****   uint32_t result;
1898:Drivers/CMSIS/Include/cmsis_gcc.h **** 
1899:Drivers/CMSIS/Include/cmsis_gcc.h ****   __ASM volatile ("uqsax %0, %1, %2" : "=r" (result) : "r" (op1), "r" (op2) );
1900:Drivers/CMSIS/Include/cmsis_gcc.h ****   return(result);
1901:Drivers/CMSIS/Include/cmsis_gcc.h **** }
1902:Drivers/CMSIS/Include/cmsis_gcc.h **** 
1903:Drivers/CMSIS/Include/cmsis_gcc.h **** __STATIC_FORCEINLINE uint32_t __UHSAX(uint32_t op1, uint32_t op2)
1904:Drivers/CMSIS/Include/cmsis_gcc.h **** {
1905:Drivers/CMSIS/Include/cmsis_gcc.h ****   uint32_t result;
1906:Drivers/CMSIS/Include/cmsis_gcc.h **** 
1907:Drivers/CMSIS/Include/cmsis_gcc.h ****   __ASM volatile ("uhsax %0, %1, %2" : "=r" (result) : "r" (op1), "r" (op2) );
1908:Drivers/CMSIS/Include/cmsis_gcc.h ****   return(result);
1909:Drivers/CMSIS/Include/cmsis_gcc.h **** }
1910:Drivers/CMSIS/Include/cmsis_gcc.h **** 
1911:Drivers/CMSIS/Include/cmsis_gcc.h **** __STATIC_FORCEINLINE uint32_t __USAD8(uint32_t op1, uint32_t op2)
1912:Drivers/CMSIS/Include/cmsis_gcc.h **** {
1913:Drivers/CMSIS/Include/cmsis_gcc.h ****   uint32_t result;
1914:Drivers/CMSIS/Include/cmsis_gcc.h **** 
1915:Drivers/CMSIS/Include/cmsis_gcc.h ****   __ASM volatile ("usad8 %0, %1, %2" : "=r" (result) : "r" (op1), "r" (op2) );
ARM GAS  C:\Users\JustE\AppData\Local\Temp\ccpkykRb.s 			page 46


1916:Drivers/CMSIS/Include/cmsis_gcc.h ****   return(result);
1917:Drivers/CMSIS/Include/cmsis_gcc.h **** }
1918:Drivers/CMSIS/Include/cmsis_gcc.h **** 
1919:Drivers/CMSIS/Include/cmsis_gcc.h **** __STATIC_FORCEINLINE uint32_t __USADA8(uint32_t op1, uint32_t op2, uint32_t op3)
1920:Drivers/CMSIS/Include/cmsis_gcc.h **** {
1921:Drivers/CMSIS/Include/cmsis_gcc.h ****   uint32_t result;
1922:Drivers/CMSIS/Include/cmsis_gcc.h **** 
1923:Drivers/CMSIS/Include/cmsis_gcc.h ****   __ASM volatile ("usada8 %0, %1, %2, %3" : "=r" (result) : "r" (op1), "r" (op2), "r" (op3) );
1924:Drivers/CMSIS/Include/cmsis_gcc.h ****   return(result);
1925:Drivers/CMSIS/Include/cmsis_gcc.h **** }
1926:Drivers/CMSIS/Include/cmsis_gcc.h **** 
1927:Drivers/CMSIS/Include/cmsis_gcc.h **** #define __SSAT16(ARG1,ARG2) \
1928:Drivers/CMSIS/Include/cmsis_gcc.h **** ({                          \
1929:Drivers/CMSIS/Include/cmsis_gcc.h ****   int32_t __RES, __ARG1 = (ARG1); \
1930:Drivers/CMSIS/Include/cmsis_gcc.h ****   __ASM ("ssat16 %0, %1, %2" : "=r" (__RES) :  "I" (ARG2), "r" (__ARG1) ); \
1931:Drivers/CMSIS/Include/cmsis_gcc.h ****   __RES; \
1932:Drivers/CMSIS/Include/cmsis_gcc.h ****  })
1933:Drivers/CMSIS/Include/cmsis_gcc.h **** 
1934:Drivers/CMSIS/Include/cmsis_gcc.h **** #define __USAT16(ARG1,ARG2) \
1935:Drivers/CMSIS/Include/cmsis_gcc.h **** ({                          \
1936:Drivers/CMSIS/Include/cmsis_gcc.h ****   uint32_t __RES, __ARG1 = (ARG1); \
1937:Drivers/CMSIS/Include/cmsis_gcc.h ****   __ASM ("usat16 %0, %1, %2" : "=r" (__RES) :  "I" (ARG2), "r" (__ARG1) ); \
1938:Drivers/CMSIS/Include/cmsis_gcc.h ****   __RES; \
1939:Drivers/CMSIS/Include/cmsis_gcc.h ****  })
1940:Drivers/CMSIS/Include/cmsis_gcc.h **** 
1941:Drivers/CMSIS/Include/cmsis_gcc.h **** __STATIC_FORCEINLINE uint32_t __UXTB16(uint32_t op1)
1942:Drivers/CMSIS/Include/cmsis_gcc.h **** {
1943:Drivers/CMSIS/Include/cmsis_gcc.h ****   uint32_t result;
1944:Drivers/CMSIS/Include/cmsis_gcc.h **** 
1945:Drivers/CMSIS/Include/cmsis_gcc.h ****   __ASM volatile ("uxtb16 %0, %1" : "=r" (result) : "r" (op1));
1946:Drivers/CMSIS/Include/cmsis_gcc.h ****   return(result);
1947:Drivers/CMSIS/Include/cmsis_gcc.h **** }
1948:Drivers/CMSIS/Include/cmsis_gcc.h **** 
1949:Drivers/CMSIS/Include/cmsis_gcc.h **** __STATIC_FORCEINLINE uint32_t __UXTAB16(uint32_t op1, uint32_t op2)
1950:Drivers/CMSIS/Include/cmsis_gcc.h **** {
1951:Drivers/CMSIS/Include/cmsis_gcc.h ****   uint32_t result;
1952:Drivers/CMSIS/Include/cmsis_gcc.h **** 
1953:Drivers/CMSIS/Include/cmsis_gcc.h ****   __ASM volatile ("uxtab16 %0, %1, %2" : "=r" (result) : "r" (op1), "r" (op2) );
1954:Drivers/CMSIS/Include/cmsis_gcc.h ****   return(result);
1955:Drivers/CMSIS/Include/cmsis_gcc.h **** }
1956:Drivers/CMSIS/Include/cmsis_gcc.h **** 
1957:Drivers/CMSIS/Include/cmsis_gcc.h **** __STATIC_FORCEINLINE uint32_t __SXTB16(uint32_t op1)
1958:Drivers/CMSIS/Include/cmsis_gcc.h **** {
1959:Drivers/CMSIS/Include/cmsis_gcc.h ****   uint32_t result;
1960:Drivers/CMSIS/Include/cmsis_gcc.h **** 
1961:Drivers/CMSIS/Include/cmsis_gcc.h ****   __ASM volatile ("sxtb16 %0, %1" : "=r" (result) : "r" (op1));
1962:Drivers/CMSIS/Include/cmsis_gcc.h ****   return(result);
1963:Drivers/CMSIS/Include/cmsis_gcc.h **** }
1964:Drivers/CMSIS/Include/cmsis_gcc.h **** 
1965:Drivers/CMSIS/Include/cmsis_gcc.h **** __STATIC_FORCEINLINE uint32_t __SXTAB16(uint32_t op1, uint32_t op2)
1966:Drivers/CMSIS/Include/cmsis_gcc.h **** {
1967:Drivers/CMSIS/Include/cmsis_gcc.h ****   uint32_t result;
1968:Drivers/CMSIS/Include/cmsis_gcc.h **** 
1969:Drivers/CMSIS/Include/cmsis_gcc.h ****   __ASM volatile ("sxtab16 %0, %1, %2" : "=r" (result) : "r" (op1), "r" (op2) );
1970:Drivers/CMSIS/Include/cmsis_gcc.h ****   return(result);
1971:Drivers/CMSIS/Include/cmsis_gcc.h **** }
1972:Drivers/CMSIS/Include/cmsis_gcc.h **** 
ARM GAS  C:\Users\JustE\AppData\Local\Temp\ccpkykRb.s 			page 47


1973:Drivers/CMSIS/Include/cmsis_gcc.h **** __STATIC_FORCEINLINE uint32_t __SMUAD  (uint32_t op1, uint32_t op2)
1974:Drivers/CMSIS/Include/cmsis_gcc.h **** {
1975:Drivers/CMSIS/Include/cmsis_gcc.h ****   uint32_t result;
1976:Drivers/CMSIS/Include/cmsis_gcc.h **** 
1977:Drivers/CMSIS/Include/cmsis_gcc.h ****   __ASM volatile ("smuad %0, %1, %2" : "=r" (result) : "r" (op1), "r" (op2) );
1978:Drivers/CMSIS/Include/cmsis_gcc.h ****   return(result);
1979:Drivers/CMSIS/Include/cmsis_gcc.h **** }
1980:Drivers/CMSIS/Include/cmsis_gcc.h **** 
1981:Drivers/CMSIS/Include/cmsis_gcc.h **** __STATIC_FORCEINLINE uint32_t __SMUADX (uint32_t op1, uint32_t op2)
1982:Drivers/CMSIS/Include/cmsis_gcc.h **** {
1983:Drivers/CMSIS/Include/cmsis_gcc.h ****   uint32_t result;
1984:Drivers/CMSIS/Include/cmsis_gcc.h **** 
1985:Drivers/CMSIS/Include/cmsis_gcc.h ****   __ASM volatile ("smuadx %0, %1, %2" : "=r" (result) : "r" (op1), "r" (op2) );
1986:Drivers/CMSIS/Include/cmsis_gcc.h ****   return(result);
1987:Drivers/CMSIS/Include/cmsis_gcc.h **** }
1988:Drivers/CMSIS/Include/cmsis_gcc.h **** 
1989:Drivers/CMSIS/Include/cmsis_gcc.h **** __STATIC_FORCEINLINE uint32_t __SMLAD (uint32_t op1, uint32_t op2, uint32_t op3)
1990:Drivers/CMSIS/Include/cmsis_gcc.h **** {
1991:Drivers/CMSIS/Include/cmsis_gcc.h ****   uint32_t result;
1992:Drivers/CMSIS/Include/cmsis_gcc.h **** 
1993:Drivers/CMSIS/Include/cmsis_gcc.h ****   __ASM volatile ("smlad %0, %1, %2, %3" : "=r" (result) : "r" (op1), "r" (op2), "r" (op3) );
1994:Drivers/CMSIS/Include/cmsis_gcc.h ****   return(result);
1995:Drivers/CMSIS/Include/cmsis_gcc.h **** }
1996:Drivers/CMSIS/Include/cmsis_gcc.h **** 
1997:Drivers/CMSIS/Include/cmsis_gcc.h **** __STATIC_FORCEINLINE uint32_t __SMLADX (uint32_t op1, uint32_t op2, uint32_t op3)
1998:Drivers/CMSIS/Include/cmsis_gcc.h **** {
1999:Drivers/CMSIS/Include/cmsis_gcc.h ****   uint32_t result;
2000:Drivers/CMSIS/Include/cmsis_gcc.h **** 
2001:Drivers/CMSIS/Include/cmsis_gcc.h ****   __ASM volatile ("smladx %0, %1, %2, %3" : "=r" (result) : "r" (op1), "r" (op2), "r" (op3) );
2002:Drivers/CMSIS/Include/cmsis_gcc.h ****   return(result);
2003:Drivers/CMSIS/Include/cmsis_gcc.h **** }
2004:Drivers/CMSIS/Include/cmsis_gcc.h **** 
2005:Drivers/CMSIS/Include/cmsis_gcc.h **** __STATIC_FORCEINLINE uint64_t __SMLALD (uint32_t op1, uint32_t op2, uint64_t acc)
2006:Drivers/CMSIS/Include/cmsis_gcc.h **** {
2007:Drivers/CMSIS/Include/cmsis_gcc.h ****   union llreg_u{
2008:Drivers/CMSIS/Include/cmsis_gcc.h ****     uint32_t w32[2];
2009:Drivers/CMSIS/Include/cmsis_gcc.h ****     uint64_t w64;
2010:Drivers/CMSIS/Include/cmsis_gcc.h ****   } llr;
2011:Drivers/CMSIS/Include/cmsis_gcc.h ****   llr.w64 = acc;
2012:Drivers/CMSIS/Include/cmsis_gcc.h **** 
2013:Drivers/CMSIS/Include/cmsis_gcc.h **** #ifndef __ARMEB__   /* Little endian */
2014:Drivers/CMSIS/Include/cmsis_gcc.h ****   __ASM volatile ("smlald %0, %1, %2, %3" : "=r" (llr.w32[0]), "=r" (llr.w32[1]): "r" (op1), "r" (o
2015:Drivers/CMSIS/Include/cmsis_gcc.h **** #else               /* Big endian */
2016:Drivers/CMSIS/Include/cmsis_gcc.h ****   __ASM volatile ("smlald %0, %1, %2, %3" : "=r" (llr.w32[1]), "=r" (llr.w32[0]): "r" (op1), "r" (o
2017:Drivers/CMSIS/Include/cmsis_gcc.h **** #endif
2018:Drivers/CMSIS/Include/cmsis_gcc.h **** 
2019:Drivers/CMSIS/Include/cmsis_gcc.h ****   return(llr.w64);
2020:Drivers/CMSIS/Include/cmsis_gcc.h **** }
2021:Drivers/CMSIS/Include/cmsis_gcc.h **** 
2022:Drivers/CMSIS/Include/cmsis_gcc.h **** __STATIC_FORCEINLINE uint64_t __SMLALDX (uint32_t op1, uint32_t op2, uint64_t acc)
2023:Drivers/CMSIS/Include/cmsis_gcc.h **** {
2024:Drivers/CMSIS/Include/cmsis_gcc.h ****   union llreg_u{
2025:Drivers/CMSIS/Include/cmsis_gcc.h ****     uint32_t w32[2];
2026:Drivers/CMSIS/Include/cmsis_gcc.h ****     uint64_t w64;
2027:Drivers/CMSIS/Include/cmsis_gcc.h ****   } llr;
2028:Drivers/CMSIS/Include/cmsis_gcc.h ****   llr.w64 = acc;
2029:Drivers/CMSIS/Include/cmsis_gcc.h **** 
ARM GAS  C:\Users\JustE\AppData\Local\Temp\ccpkykRb.s 			page 48


2030:Drivers/CMSIS/Include/cmsis_gcc.h **** #ifndef __ARMEB__   /* Little endian */
2031:Drivers/CMSIS/Include/cmsis_gcc.h ****   __ASM volatile ("smlaldx %0, %1, %2, %3" : "=r" (llr.w32[0]), "=r" (llr.w32[1]): "r" (op1), "r" (
2032:Drivers/CMSIS/Include/cmsis_gcc.h **** #else               /* Big endian */
2033:Drivers/CMSIS/Include/cmsis_gcc.h ****   __ASM volatile ("smlaldx %0, %1, %2, %3" : "=r" (llr.w32[1]), "=r" (llr.w32[0]): "r" (op1), "r" (
2034:Drivers/CMSIS/Include/cmsis_gcc.h **** #endif
2035:Drivers/CMSIS/Include/cmsis_gcc.h **** 
2036:Drivers/CMSIS/Include/cmsis_gcc.h ****   return(llr.w64);
2037:Drivers/CMSIS/Include/cmsis_gcc.h **** }
2038:Drivers/CMSIS/Include/cmsis_gcc.h **** 
2039:Drivers/CMSIS/Include/cmsis_gcc.h **** __STATIC_FORCEINLINE uint32_t __SMUSD  (uint32_t op1, uint32_t op2)
2040:Drivers/CMSIS/Include/cmsis_gcc.h **** {
2041:Drivers/CMSIS/Include/cmsis_gcc.h ****   uint32_t result;
2042:Drivers/CMSIS/Include/cmsis_gcc.h **** 
2043:Drivers/CMSIS/Include/cmsis_gcc.h ****   __ASM volatile ("smusd %0, %1, %2" : "=r" (result) : "r" (op1), "r" (op2) );
2044:Drivers/CMSIS/Include/cmsis_gcc.h ****   return(result);
2045:Drivers/CMSIS/Include/cmsis_gcc.h **** }
2046:Drivers/CMSIS/Include/cmsis_gcc.h **** 
2047:Drivers/CMSIS/Include/cmsis_gcc.h **** __STATIC_FORCEINLINE uint32_t __SMUSDX (uint32_t op1, uint32_t op2)
2048:Drivers/CMSIS/Include/cmsis_gcc.h **** {
2049:Drivers/CMSIS/Include/cmsis_gcc.h ****   uint32_t result;
2050:Drivers/CMSIS/Include/cmsis_gcc.h **** 
2051:Drivers/CMSIS/Include/cmsis_gcc.h ****   __ASM volatile ("smusdx %0, %1, %2" : "=r" (result) : "r" (op1), "r" (op2) );
2052:Drivers/CMSIS/Include/cmsis_gcc.h ****   return(result);
2053:Drivers/CMSIS/Include/cmsis_gcc.h **** }
2054:Drivers/CMSIS/Include/cmsis_gcc.h **** 
2055:Drivers/CMSIS/Include/cmsis_gcc.h **** __STATIC_FORCEINLINE uint32_t __SMLSD (uint32_t op1, uint32_t op2, uint32_t op3)
2056:Drivers/CMSIS/Include/cmsis_gcc.h **** {
2057:Drivers/CMSIS/Include/cmsis_gcc.h ****   uint32_t result;
2058:Drivers/CMSIS/Include/cmsis_gcc.h **** 
2059:Drivers/CMSIS/Include/cmsis_gcc.h ****   __ASM volatile ("smlsd %0, %1, %2, %3" : "=r" (result) : "r" (op1), "r" (op2), "r" (op3) );
2060:Drivers/CMSIS/Include/cmsis_gcc.h ****   return(result);
2061:Drivers/CMSIS/Include/cmsis_gcc.h **** }
2062:Drivers/CMSIS/Include/cmsis_gcc.h **** 
2063:Drivers/CMSIS/Include/cmsis_gcc.h **** __STATIC_FORCEINLINE uint32_t __SMLSDX (uint32_t op1, uint32_t op2, uint32_t op3)
2064:Drivers/CMSIS/Include/cmsis_gcc.h **** {
2065:Drivers/CMSIS/Include/cmsis_gcc.h ****   uint32_t result;
2066:Drivers/CMSIS/Include/cmsis_gcc.h **** 
2067:Drivers/CMSIS/Include/cmsis_gcc.h ****   __ASM volatile ("smlsdx %0, %1, %2, %3" : "=r" (result) : "r" (op1), "r" (op2), "r" (op3) );
2068:Drivers/CMSIS/Include/cmsis_gcc.h ****   return(result);
2069:Drivers/CMSIS/Include/cmsis_gcc.h **** }
2070:Drivers/CMSIS/Include/cmsis_gcc.h **** 
2071:Drivers/CMSIS/Include/cmsis_gcc.h **** __STATIC_FORCEINLINE uint64_t __SMLSLD (uint32_t op1, uint32_t op2, uint64_t acc)
2072:Drivers/CMSIS/Include/cmsis_gcc.h **** {
2073:Drivers/CMSIS/Include/cmsis_gcc.h ****   union llreg_u{
2074:Drivers/CMSIS/Include/cmsis_gcc.h ****     uint32_t w32[2];
2075:Drivers/CMSIS/Include/cmsis_gcc.h ****     uint64_t w64;
2076:Drivers/CMSIS/Include/cmsis_gcc.h ****   } llr;
2077:Drivers/CMSIS/Include/cmsis_gcc.h ****   llr.w64 = acc;
2078:Drivers/CMSIS/Include/cmsis_gcc.h **** 
2079:Drivers/CMSIS/Include/cmsis_gcc.h **** #ifndef __ARMEB__   /* Little endian */
2080:Drivers/CMSIS/Include/cmsis_gcc.h ****   __ASM volatile ("smlsld %0, %1, %2, %3" : "=r" (llr.w32[0]), "=r" (llr.w32[1]): "r" (op1), "r" (o
2081:Drivers/CMSIS/Include/cmsis_gcc.h **** #else               /* Big endian */
2082:Drivers/CMSIS/Include/cmsis_gcc.h ****   __ASM volatile ("smlsld %0, %1, %2, %3" : "=r" (llr.w32[1]), "=r" (llr.w32[0]): "r" (op1), "r" (o
2083:Drivers/CMSIS/Include/cmsis_gcc.h **** #endif
2084:Drivers/CMSIS/Include/cmsis_gcc.h **** 
2085:Drivers/CMSIS/Include/cmsis_gcc.h ****   return(llr.w64);
2086:Drivers/CMSIS/Include/cmsis_gcc.h **** }
ARM GAS  C:\Users\JustE\AppData\Local\Temp\ccpkykRb.s 			page 49


2087:Drivers/CMSIS/Include/cmsis_gcc.h **** 
2088:Drivers/CMSIS/Include/cmsis_gcc.h **** __STATIC_FORCEINLINE uint64_t __SMLSLDX (uint32_t op1, uint32_t op2, uint64_t acc)
2089:Drivers/CMSIS/Include/cmsis_gcc.h **** {
2090:Drivers/CMSIS/Include/cmsis_gcc.h ****   union llreg_u{
2091:Drivers/CMSIS/Include/cmsis_gcc.h ****     uint32_t w32[2];
2092:Drivers/CMSIS/Include/cmsis_gcc.h ****     uint64_t w64;
2093:Drivers/CMSIS/Include/cmsis_gcc.h ****   } llr;
2094:Drivers/CMSIS/Include/cmsis_gcc.h ****   llr.w64 = acc;
2095:Drivers/CMSIS/Include/cmsis_gcc.h **** 
2096:Drivers/CMSIS/Include/cmsis_gcc.h **** #ifndef __ARMEB__   /* Little endian */
2097:Drivers/CMSIS/Include/cmsis_gcc.h ****   __ASM volatile ("smlsldx %0, %1, %2, %3" : "=r" (llr.w32[0]), "=r" (llr.w32[1]): "r" (op1), "r" (
2098:Drivers/CMSIS/Include/cmsis_gcc.h **** #else               /* Big endian */
2099:Drivers/CMSIS/Include/cmsis_gcc.h ****   __ASM volatile ("smlsldx %0, %1, %2, %3" : "=r" (llr.w32[1]), "=r" (llr.w32[0]): "r" (op1), "r" (
2100:Drivers/CMSIS/Include/cmsis_gcc.h **** #endif
2101:Drivers/CMSIS/Include/cmsis_gcc.h **** 
2102:Drivers/CMSIS/Include/cmsis_gcc.h ****   return(llr.w64);
2103:Drivers/CMSIS/Include/cmsis_gcc.h **** }
2104:Drivers/CMSIS/Include/cmsis_gcc.h **** 
2105:Drivers/CMSIS/Include/cmsis_gcc.h **** __STATIC_FORCEINLINE uint32_t __SEL  (uint32_t op1, uint32_t op2)
2106:Drivers/CMSIS/Include/cmsis_gcc.h **** {
2107:Drivers/CMSIS/Include/cmsis_gcc.h ****   uint32_t result;
2108:Drivers/CMSIS/Include/cmsis_gcc.h **** 
2109:Drivers/CMSIS/Include/cmsis_gcc.h ****   __ASM volatile ("sel %0, %1, %2" : "=r" (result) : "r" (op1), "r" (op2) );
2110:Drivers/CMSIS/Include/cmsis_gcc.h ****   return(result);
2111:Drivers/CMSIS/Include/cmsis_gcc.h **** }
2112:Drivers/CMSIS/Include/cmsis_gcc.h **** 
2113:Drivers/CMSIS/Include/cmsis_gcc.h **** __STATIC_FORCEINLINE  int32_t __QADD( int32_t op1,  int32_t op2)
2114:Drivers/CMSIS/Include/cmsis_gcc.h **** {
2115:Drivers/CMSIS/Include/cmsis_gcc.h ****   int32_t result;
2116:Drivers/CMSIS/Include/cmsis_gcc.h **** 
2117:Drivers/CMSIS/Include/cmsis_gcc.h ****   __ASM volatile ("qadd %0, %1, %2" : "=r" (result) : "r" (op1), "r" (op2) );
2118:Drivers/CMSIS/Include/cmsis_gcc.h ****   return(result);
2119:Drivers/CMSIS/Include/cmsis_gcc.h **** }
2120:Drivers/CMSIS/Include/cmsis_gcc.h **** 
2121:Drivers/CMSIS/Include/cmsis_gcc.h **** __STATIC_FORCEINLINE  int32_t __QSUB( int32_t op1,  int32_t op2)
 213              		.loc 5 2121 31 view .LVU58
 214              	.LBB16:
2122:Drivers/CMSIS/Include/cmsis_gcc.h **** {
2123:Drivers/CMSIS/Include/cmsis_gcc.h ****   int32_t result;
 215              		.loc 5 2123 3 view .LVU59
2124:Drivers/CMSIS/Include/cmsis_gcc.h **** 
2125:Drivers/CMSIS/Include/cmsis_gcc.h ****   __ASM volatile ("qsub %0, %1, %2" : "=r" (result) : "r" (op1), "r" (op2) );
 216              		.loc 5 2125 3 view .LVU60
 217 0012 0020     		movs	r0, #0
 218              		.syntax unified
 219              	@ 2125 "Drivers/CMSIS/Include/cmsis_gcc.h" 1
 220 0014 84FAA0F0 		qsub r0, r0, r4
 221              	@ 0 "" 2
 222              	.LVL19:
2126:Drivers/CMSIS/Include/cmsis_gcc.h ****   return(result);
 223              		.loc 5 2126 3 view .LVU61
 224              		.loc 5 2126 3 is_stmt 0 view .LVU62
 225              		.thumb
 226              		.syntax unified
 227              	.LBE16:
 228              	.LBE15:
 229              		.loc 4 124 13 view .LVU63
ARM GAS  C:\Users\JustE\AppData\Local\Temp\ccpkykRb.s 			page 50


 230 0018 4860     		str	r0, [r1, #4]
 125:Drivers/CMSIS/DSP/Source/ComplexMathFunctions/arm_cmplx_conj_q31.c **** #else
 126:Drivers/CMSIS/DSP/Source/ComplexMathFunctions/arm_cmplx_conj_q31.c ****     *pDst++ = (in == INT32_MIN) ? INT32_MAX : -in;
 127:Drivers/CMSIS/DSP/Source/ComplexMathFunctions/arm_cmplx_conj_q31.c **** #endif
 128:Drivers/CMSIS/DSP/Source/ComplexMathFunctions/arm_cmplx_conj_q31.c **** 
 129:Drivers/CMSIS/DSP/Source/ComplexMathFunctions/arm_cmplx_conj_q31.c ****     /* Decrement loop counter */
 130:Drivers/CMSIS/DSP/Source/ComplexMathFunctions/arm_cmplx_conj_q31.c ****     blkCnt--;
 231              		.loc 4 130 5 is_stmt 1 view .LVU64
 232              		.loc 4 130 11 is_stmt 0 view .LVU65
 233 001a 013A     		subs	r2, r2, #1
 234              	.LVL20:
 124:Drivers/CMSIS/DSP/Source/ComplexMathFunctions/arm_cmplx_conj_q31.c **** #else
 235              		.loc 4 124 10 view .LVU66
 236 001c 6146     		mov	r1, ip
 122:Drivers/CMSIS/DSP/Source/ComplexMathFunctions/arm_cmplx_conj_q31.c **** #if defined (ARM_MATH_DSP)
 237              		.loc 4 122 15 view .LVU67
 238 001e 1846     		mov	r0, r3
 116:Drivers/CMSIS/DSP/Source/ComplexMathFunctions/arm_cmplx_conj_q31.c ****   {
 239              		.loc 4 116 17 is_stmt 1 view .LVU68
 240 0020 002A     		cmp	r2, #0
 241 0022 EFD1     		bne	.L17
 131:Drivers/CMSIS/DSP/Source/ComplexMathFunctions/arm_cmplx_conj_q31.c ****   }
 132:Drivers/CMSIS/DSP/Source/ComplexMathFunctions/arm_cmplx_conj_q31.c **** 
 133:Drivers/CMSIS/DSP/Source/ComplexMathFunctions/arm_cmplx_conj_q31.c **** }
 242              		.loc 4 133 1 is_stmt 0 view .LVU69
 243 0024 5DF8044B 		ldr	r4, [sp], #4
 244              	.LCFI5:
 245              		.cfi_restore 4
 246              		.cfi_def_cfa_offset 0
 247              	.LVL21:
 248              		.loc 4 133 1 view .LVU70
 249 0028 7047     		bx	lr
 250              	.LVL22:
 251              	.L21:
 252              		.loc 4 133 1 view .LVU71
 253 002a 7047     		bx	lr
 254              		.cfi_endproc
 255              	.LFE147:
 257              		.section	.text.arm_cmplx_dot_prod_f32,"ax",%progbits
 258              		.align	1
 259              		.global	arm_cmplx_dot_prod_f32
 260              		.syntax unified
 261              		.thumb
 262              		.thumb_func
 264              	arm_cmplx_dot_prod_f32:
 265              	.LVL23:
 266              	.LFB148:
 267              		.file 6 "Drivers/CMSIS/DSP/Source/ComplexMathFunctions/arm_cmplx_dot_prod_f32.c"
   1:Drivers/CMSIS/DSP/Source/ComplexMathFunctions/arm_cmplx_dot_prod_f32.c **** /* ----------------------------------------------------------------------
   2:Drivers/CMSIS/DSP/Source/ComplexMathFunctions/arm_cmplx_dot_prod_f32.c ****  * Project:      CMSIS DSP Library
   3:Drivers/CMSIS/DSP/Source/ComplexMathFunctions/arm_cmplx_dot_prod_f32.c ****  * Title:        arm_cmplx_dot_prod_f32.c
   4:Drivers/CMSIS/DSP/Source/ComplexMathFunctions/arm_cmplx_dot_prod_f32.c ****  * Description:  Floating-point complex dot product
   5:Drivers/CMSIS/DSP/Source/ComplexMathFunctions/arm_cmplx_dot_prod_f32.c ****  *
   6:Drivers/CMSIS/DSP/Source/ComplexMathFunctions/arm_cmplx_dot_prod_f32.c ****  * $Date:        18. March 2019
   7:Drivers/CMSIS/DSP/Source/ComplexMathFunctions/arm_cmplx_dot_prod_f32.c ****  * $Revision:    V1.6.0
   8:Drivers/CMSIS/DSP/Source/ComplexMathFunctions/arm_cmplx_dot_prod_f32.c ****  *
   9:Drivers/CMSIS/DSP/Source/ComplexMathFunctions/arm_cmplx_dot_prod_f32.c ****  * Target Processor: Cortex-M cores
ARM GAS  C:\Users\JustE\AppData\Local\Temp\ccpkykRb.s 			page 51


  10:Drivers/CMSIS/DSP/Source/ComplexMathFunctions/arm_cmplx_dot_prod_f32.c ****  * -------------------------------------------------------------------- */
  11:Drivers/CMSIS/DSP/Source/ComplexMathFunctions/arm_cmplx_dot_prod_f32.c **** /*
  12:Drivers/CMSIS/DSP/Source/ComplexMathFunctions/arm_cmplx_dot_prod_f32.c ****  * Copyright (C) 2010-2019 ARM Limited or its affiliates. All rights reserved.
  13:Drivers/CMSIS/DSP/Source/ComplexMathFunctions/arm_cmplx_dot_prod_f32.c ****  *
  14:Drivers/CMSIS/DSP/Source/ComplexMathFunctions/arm_cmplx_dot_prod_f32.c ****  * SPDX-License-Identifier: Apache-2.0
  15:Drivers/CMSIS/DSP/Source/ComplexMathFunctions/arm_cmplx_dot_prod_f32.c ****  *
  16:Drivers/CMSIS/DSP/Source/ComplexMathFunctions/arm_cmplx_dot_prod_f32.c ****  * Licensed under the Apache License, Version 2.0 (the License); you may
  17:Drivers/CMSIS/DSP/Source/ComplexMathFunctions/arm_cmplx_dot_prod_f32.c ****  * not use this file except in compliance with the License.
  18:Drivers/CMSIS/DSP/Source/ComplexMathFunctions/arm_cmplx_dot_prod_f32.c ****  * You may obtain a copy of the License at
  19:Drivers/CMSIS/DSP/Source/ComplexMathFunctions/arm_cmplx_dot_prod_f32.c ****  *
  20:Drivers/CMSIS/DSP/Source/ComplexMathFunctions/arm_cmplx_dot_prod_f32.c ****  * www.apache.org/licenses/LICENSE-2.0
  21:Drivers/CMSIS/DSP/Source/ComplexMathFunctions/arm_cmplx_dot_prod_f32.c ****  *
  22:Drivers/CMSIS/DSP/Source/ComplexMathFunctions/arm_cmplx_dot_prod_f32.c ****  * Unless required by applicable law or agreed to in writing, software
  23:Drivers/CMSIS/DSP/Source/ComplexMathFunctions/arm_cmplx_dot_prod_f32.c ****  * distributed under the License is distributed on an AS IS BASIS, WITHOUT
  24:Drivers/CMSIS/DSP/Source/ComplexMathFunctions/arm_cmplx_dot_prod_f32.c ****  * WARRANTIES OR CONDITIONS OF ANY KIND, either express or implied.
  25:Drivers/CMSIS/DSP/Source/ComplexMathFunctions/arm_cmplx_dot_prod_f32.c ****  * See the License for the specific language governing permissions and
  26:Drivers/CMSIS/DSP/Source/ComplexMathFunctions/arm_cmplx_dot_prod_f32.c ****  * limitations under the License.
  27:Drivers/CMSIS/DSP/Source/ComplexMathFunctions/arm_cmplx_dot_prod_f32.c ****  */
  28:Drivers/CMSIS/DSP/Source/ComplexMathFunctions/arm_cmplx_dot_prod_f32.c **** 
  29:Drivers/CMSIS/DSP/Source/ComplexMathFunctions/arm_cmplx_dot_prod_f32.c **** #include "arm_math.h"
  30:Drivers/CMSIS/DSP/Source/ComplexMathFunctions/arm_cmplx_dot_prod_f32.c **** 
  31:Drivers/CMSIS/DSP/Source/ComplexMathFunctions/arm_cmplx_dot_prod_f32.c **** /**
  32:Drivers/CMSIS/DSP/Source/ComplexMathFunctions/arm_cmplx_dot_prod_f32.c ****   @ingroup groupCmplxMath
  33:Drivers/CMSIS/DSP/Source/ComplexMathFunctions/arm_cmplx_dot_prod_f32.c ****  */
  34:Drivers/CMSIS/DSP/Source/ComplexMathFunctions/arm_cmplx_dot_prod_f32.c **** 
  35:Drivers/CMSIS/DSP/Source/ComplexMathFunctions/arm_cmplx_dot_prod_f32.c **** /**
  36:Drivers/CMSIS/DSP/Source/ComplexMathFunctions/arm_cmplx_dot_prod_f32.c ****   @defgroup cmplx_dot_prod Complex Dot Product
  37:Drivers/CMSIS/DSP/Source/ComplexMathFunctions/arm_cmplx_dot_prod_f32.c **** 
  38:Drivers/CMSIS/DSP/Source/ComplexMathFunctions/arm_cmplx_dot_prod_f32.c ****   Computes the dot product of two complex vectors.
  39:Drivers/CMSIS/DSP/Source/ComplexMathFunctions/arm_cmplx_dot_prod_f32.c ****   The vectors are multiplied element-by-element and then summed.
  40:Drivers/CMSIS/DSP/Source/ComplexMathFunctions/arm_cmplx_dot_prod_f32.c **** 
  41:Drivers/CMSIS/DSP/Source/ComplexMathFunctions/arm_cmplx_dot_prod_f32.c ****   The <code>pSrcA</code> points to the first complex input vector and
  42:Drivers/CMSIS/DSP/Source/ComplexMathFunctions/arm_cmplx_dot_prod_f32.c ****   <code>pSrcB</code> points to the second complex input vector.
  43:Drivers/CMSIS/DSP/Source/ComplexMathFunctions/arm_cmplx_dot_prod_f32.c ****   <code>numSamples</code> specifies the number of complex samples
  44:Drivers/CMSIS/DSP/Source/ComplexMathFunctions/arm_cmplx_dot_prod_f32.c ****   and the data in each array is stored in an interleaved fashion
  45:Drivers/CMSIS/DSP/Source/ComplexMathFunctions/arm_cmplx_dot_prod_f32.c ****   (real, imag, real, imag, ...).
  46:Drivers/CMSIS/DSP/Source/ComplexMathFunctions/arm_cmplx_dot_prod_f32.c ****   Each array has a total of <code>2*numSamples</code> values.
  47:Drivers/CMSIS/DSP/Source/ComplexMathFunctions/arm_cmplx_dot_prod_f32.c **** 
  48:Drivers/CMSIS/DSP/Source/ComplexMathFunctions/arm_cmplx_dot_prod_f32.c ****   The underlying algorithm is used:
  49:Drivers/CMSIS/DSP/Source/ComplexMathFunctions/arm_cmplx_dot_prod_f32.c **** 
  50:Drivers/CMSIS/DSP/Source/ComplexMathFunctions/arm_cmplx_dot_prod_f32.c ****   <pre>
  51:Drivers/CMSIS/DSP/Source/ComplexMathFunctions/arm_cmplx_dot_prod_f32.c ****   realResult = 0;
  52:Drivers/CMSIS/DSP/Source/ComplexMathFunctions/arm_cmplx_dot_prod_f32.c ****   imagResult = 0;
  53:Drivers/CMSIS/DSP/Source/ComplexMathFunctions/arm_cmplx_dot_prod_f32.c ****   for (n = 0; n < numSamples; n++) {
  54:Drivers/CMSIS/DSP/Source/ComplexMathFunctions/arm_cmplx_dot_prod_f32.c ****       realResult += pSrcA[(2*n)+0] * pSrcB[(2*n)+0] - pSrcA[(2*n)+1] * pSrcB[(2*n)+1];
  55:Drivers/CMSIS/DSP/Source/ComplexMathFunctions/arm_cmplx_dot_prod_f32.c ****       imagResult += pSrcA[(2*n)+0] * pSrcB[(2*n)+1] + pSrcA[(2*n)+1] * pSrcB[(2*n)+0];
  56:Drivers/CMSIS/DSP/Source/ComplexMathFunctions/arm_cmplx_dot_prod_f32.c ****   }
  57:Drivers/CMSIS/DSP/Source/ComplexMathFunctions/arm_cmplx_dot_prod_f32.c ****   </pre>
  58:Drivers/CMSIS/DSP/Source/ComplexMathFunctions/arm_cmplx_dot_prod_f32.c **** 
  59:Drivers/CMSIS/DSP/Source/ComplexMathFunctions/arm_cmplx_dot_prod_f32.c ****   There are separate functions for floating-point, Q15, and Q31 data types.
  60:Drivers/CMSIS/DSP/Source/ComplexMathFunctions/arm_cmplx_dot_prod_f32.c ****  */
  61:Drivers/CMSIS/DSP/Source/ComplexMathFunctions/arm_cmplx_dot_prod_f32.c **** 
  62:Drivers/CMSIS/DSP/Source/ComplexMathFunctions/arm_cmplx_dot_prod_f32.c **** /**
  63:Drivers/CMSIS/DSP/Source/ComplexMathFunctions/arm_cmplx_dot_prod_f32.c ****   @addtogroup cmplx_dot_prod
  64:Drivers/CMSIS/DSP/Source/ComplexMathFunctions/arm_cmplx_dot_prod_f32.c ****   @{
  65:Drivers/CMSIS/DSP/Source/ComplexMathFunctions/arm_cmplx_dot_prod_f32.c ****  */
  66:Drivers/CMSIS/DSP/Source/ComplexMathFunctions/arm_cmplx_dot_prod_f32.c **** 
ARM GAS  C:\Users\JustE\AppData\Local\Temp\ccpkykRb.s 			page 52


  67:Drivers/CMSIS/DSP/Source/ComplexMathFunctions/arm_cmplx_dot_prod_f32.c **** /**
  68:Drivers/CMSIS/DSP/Source/ComplexMathFunctions/arm_cmplx_dot_prod_f32.c ****   @brief         Floating-point complex dot product.
  69:Drivers/CMSIS/DSP/Source/ComplexMathFunctions/arm_cmplx_dot_prod_f32.c ****   @param[in]     pSrcA       points to the first input vector
  70:Drivers/CMSIS/DSP/Source/ComplexMathFunctions/arm_cmplx_dot_prod_f32.c ****   @param[in]     pSrcB       points to the second input vector
  71:Drivers/CMSIS/DSP/Source/ComplexMathFunctions/arm_cmplx_dot_prod_f32.c ****   @param[in]     numSamples  number of samples in each vector
  72:Drivers/CMSIS/DSP/Source/ComplexMathFunctions/arm_cmplx_dot_prod_f32.c ****   @param[out]    realResult  real part of the result returned here
  73:Drivers/CMSIS/DSP/Source/ComplexMathFunctions/arm_cmplx_dot_prod_f32.c ****   @param[out]    imagResult  imaginary part of the result returned here
  74:Drivers/CMSIS/DSP/Source/ComplexMathFunctions/arm_cmplx_dot_prod_f32.c ****   @return        none
  75:Drivers/CMSIS/DSP/Source/ComplexMathFunctions/arm_cmplx_dot_prod_f32.c ****  */
  76:Drivers/CMSIS/DSP/Source/ComplexMathFunctions/arm_cmplx_dot_prod_f32.c **** 
  77:Drivers/CMSIS/DSP/Source/ComplexMathFunctions/arm_cmplx_dot_prod_f32.c **** void arm_cmplx_dot_prod_f32(
  78:Drivers/CMSIS/DSP/Source/ComplexMathFunctions/arm_cmplx_dot_prod_f32.c ****   const float32_t * pSrcA,
  79:Drivers/CMSIS/DSP/Source/ComplexMathFunctions/arm_cmplx_dot_prod_f32.c ****   const float32_t * pSrcB,
  80:Drivers/CMSIS/DSP/Source/ComplexMathFunctions/arm_cmplx_dot_prod_f32.c ****         uint32_t numSamples,
  81:Drivers/CMSIS/DSP/Source/ComplexMathFunctions/arm_cmplx_dot_prod_f32.c ****         float32_t * realResult,
  82:Drivers/CMSIS/DSP/Source/ComplexMathFunctions/arm_cmplx_dot_prod_f32.c ****         float32_t * imagResult)
  83:Drivers/CMSIS/DSP/Source/ComplexMathFunctions/arm_cmplx_dot_prod_f32.c **** {
 268              		.loc 6 83 1 is_stmt 1 view -0
 269              		.cfi_startproc
 270              		@ args = 4, pretend = 0, frame = 0
 271              		@ frame_needed = 0, uses_anonymous_args = 0
 272              		.loc 6 83 1 is_stmt 0 view .LVU73
 273 0000 00B5     		push	{lr}
 274              	.LCFI6:
 275              		.cfi_def_cfa_offset 4
 276              		.cfi_offset 14, -4
  84:Drivers/CMSIS/DSP/Source/ComplexMathFunctions/arm_cmplx_dot_prod_f32.c ****         uint32_t blkCnt;                               /* Loop counter */
 277              		.loc 6 84 9 is_stmt 1 view .LVU74
  85:Drivers/CMSIS/DSP/Source/ComplexMathFunctions/arm_cmplx_dot_prod_f32.c ****         float32_t real_sum = 0.0f, imag_sum = 0.0f;    /* Temporary result variables */
 278              		.loc 6 85 9 view .LVU75
 279              	.LVL24:
  86:Drivers/CMSIS/DSP/Source/ComplexMathFunctions/arm_cmplx_dot_prod_f32.c ****         float32_t a0,b0,c0,d0;
 280              		.loc 6 86 9 view .LVU76
  87:Drivers/CMSIS/DSP/Source/ComplexMathFunctions/arm_cmplx_dot_prod_f32.c **** 
  88:Drivers/CMSIS/DSP/Source/ComplexMathFunctions/arm_cmplx_dot_prod_f32.c **** #if defined(ARM_MATH_NEON)
  89:Drivers/CMSIS/DSP/Source/ComplexMathFunctions/arm_cmplx_dot_prod_f32.c ****     float32x4x2_t vec1,vec2,vec3,vec4;
  90:Drivers/CMSIS/DSP/Source/ComplexMathFunctions/arm_cmplx_dot_prod_f32.c ****     float32x4_t accR,accI;
  91:Drivers/CMSIS/DSP/Source/ComplexMathFunctions/arm_cmplx_dot_prod_f32.c ****     float32x2_t accum = vdup_n_f32(0);
  92:Drivers/CMSIS/DSP/Source/ComplexMathFunctions/arm_cmplx_dot_prod_f32.c **** 
  93:Drivers/CMSIS/DSP/Source/ComplexMathFunctions/arm_cmplx_dot_prod_f32.c ****     accR = vdupq_n_f32(0.0);
  94:Drivers/CMSIS/DSP/Source/ComplexMathFunctions/arm_cmplx_dot_prod_f32.c ****     accI = vdupq_n_f32(0.0);
  95:Drivers/CMSIS/DSP/Source/ComplexMathFunctions/arm_cmplx_dot_prod_f32.c **** 
  96:Drivers/CMSIS/DSP/Source/ComplexMathFunctions/arm_cmplx_dot_prod_f32.c ****     /* Loop unrolling: Compute 8 outputs at a time */
  97:Drivers/CMSIS/DSP/Source/ComplexMathFunctions/arm_cmplx_dot_prod_f32.c ****     blkCnt = numSamples >> 3U;
  98:Drivers/CMSIS/DSP/Source/ComplexMathFunctions/arm_cmplx_dot_prod_f32.c **** 
  99:Drivers/CMSIS/DSP/Source/ComplexMathFunctions/arm_cmplx_dot_prod_f32.c ****     while (blkCnt > 0U)
 100:Drivers/CMSIS/DSP/Source/ComplexMathFunctions/arm_cmplx_dot_prod_f32.c ****     {
 101:Drivers/CMSIS/DSP/Source/ComplexMathFunctions/arm_cmplx_dot_prod_f32.c **** 	/* C = (A[0]+jA[1])*(B[0]+jB[1]) + ...  */
 102:Drivers/CMSIS/DSP/Source/ComplexMathFunctions/arm_cmplx_dot_prod_f32.c ****         /* Calculate dot product and then store the result in a temporary buffer. */
 103:Drivers/CMSIS/DSP/Source/ComplexMathFunctions/arm_cmplx_dot_prod_f32.c **** 
 104:Drivers/CMSIS/DSP/Source/ComplexMathFunctions/arm_cmplx_dot_prod_f32.c **** 	vec1 = vld2q_f32(pSrcA);
 105:Drivers/CMSIS/DSP/Source/ComplexMathFunctions/arm_cmplx_dot_prod_f32.c ****         vec2 = vld2q_f32(pSrcB);
 106:Drivers/CMSIS/DSP/Source/ComplexMathFunctions/arm_cmplx_dot_prod_f32.c **** 
 107:Drivers/CMSIS/DSP/Source/ComplexMathFunctions/arm_cmplx_dot_prod_f32.c **** 	/* Increment pointers */
 108:Drivers/CMSIS/DSP/Source/ComplexMathFunctions/arm_cmplx_dot_prod_f32.c ****         pSrcA += 8;
 109:Drivers/CMSIS/DSP/Source/ComplexMathFunctions/arm_cmplx_dot_prod_f32.c ****         pSrcB += 8;
 110:Drivers/CMSIS/DSP/Source/ComplexMathFunctions/arm_cmplx_dot_prod_f32.c **** 
ARM GAS  C:\Users\JustE\AppData\Local\Temp\ccpkykRb.s 			page 53


 111:Drivers/CMSIS/DSP/Source/ComplexMathFunctions/arm_cmplx_dot_prod_f32.c **** 	/* Re{C} = Re{A}*Re{B} - Im{A}*Im{B} */
 112:Drivers/CMSIS/DSP/Source/ComplexMathFunctions/arm_cmplx_dot_prod_f32.c ****         accR = vmlaq_f32(accR,vec1.val[0],vec2.val[0]);
 113:Drivers/CMSIS/DSP/Source/ComplexMathFunctions/arm_cmplx_dot_prod_f32.c ****         accR = vmlsq_f32(accR,vec1.val[1],vec2.val[1]);
 114:Drivers/CMSIS/DSP/Source/ComplexMathFunctions/arm_cmplx_dot_prod_f32.c **** 
 115:Drivers/CMSIS/DSP/Source/ComplexMathFunctions/arm_cmplx_dot_prod_f32.c **** 	/* Im{C} = Re{A}*Im{B} + Im{A}*Re{B} */
 116:Drivers/CMSIS/DSP/Source/ComplexMathFunctions/arm_cmplx_dot_prod_f32.c ****         accI = vmlaq_f32(accI,vec1.val[1],vec2.val[0]);
 117:Drivers/CMSIS/DSP/Source/ComplexMathFunctions/arm_cmplx_dot_prod_f32.c ****         accI = vmlaq_f32(accI,vec1.val[0],vec2.val[1]);
 118:Drivers/CMSIS/DSP/Source/ComplexMathFunctions/arm_cmplx_dot_prod_f32.c **** 
 119:Drivers/CMSIS/DSP/Source/ComplexMathFunctions/arm_cmplx_dot_prod_f32.c ****         vec3 = vld2q_f32(pSrcA);
 120:Drivers/CMSIS/DSP/Source/ComplexMathFunctions/arm_cmplx_dot_prod_f32.c ****         vec4 = vld2q_f32(pSrcB);
 121:Drivers/CMSIS/DSP/Source/ComplexMathFunctions/arm_cmplx_dot_prod_f32.c **** 	
 122:Drivers/CMSIS/DSP/Source/ComplexMathFunctions/arm_cmplx_dot_prod_f32.c **** 	/* Increment pointers */
 123:Drivers/CMSIS/DSP/Source/ComplexMathFunctions/arm_cmplx_dot_prod_f32.c ****         pSrcA += 8;
 124:Drivers/CMSIS/DSP/Source/ComplexMathFunctions/arm_cmplx_dot_prod_f32.c ****         pSrcB += 8;
 125:Drivers/CMSIS/DSP/Source/ComplexMathFunctions/arm_cmplx_dot_prod_f32.c **** 
 126:Drivers/CMSIS/DSP/Source/ComplexMathFunctions/arm_cmplx_dot_prod_f32.c **** 	/* Re{C} = Re{A}*Re{B} - Im{A}*Im{B} */
 127:Drivers/CMSIS/DSP/Source/ComplexMathFunctions/arm_cmplx_dot_prod_f32.c ****         accR = vmlaq_f32(accR,vec3.val[0],vec4.val[0]);
 128:Drivers/CMSIS/DSP/Source/ComplexMathFunctions/arm_cmplx_dot_prod_f32.c ****         accR = vmlsq_f32(accR,vec3.val[1],vec4.val[1]);
 129:Drivers/CMSIS/DSP/Source/ComplexMathFunctions/arm_cmplx_dot_prod_f32.c **** 
 130:Drivers/CMSIS/DSP/Source/ComplexMathFunctions/arm_cmplx_dot_prod_f32.c **** 	/* Im{C} = Re{A}*Im{B} + Im{A}*Re{B} */
 131:Drivers/CMSIS/DSP/Source/ComplexMathFunctions/arm_cmplx_dot_prod_f32.c ****         accI = vmlaq_f32(accI,vec3.val[1],vec4.val[0]);
 132:Drivers/CMSIS/DSP/Source/ComplexMathFunctions/arm_cmplx_dot_prod_f32.c ****         accI = vmlaq_f32(accI,vec3.val[0],vec4.val[1]);
 133:Drivers/CMSIS/DSP/Source/ComplexMathFunctions/arm_cmplx_dot_prod_f32.c **** 
 134:Drivers/CMSIS/DSP/Source/ComplexMathFunctions/arm_cmplx_dot_prod_f32.c ****         /* Decrement the loop counter */
 135:Drivers/CMSIS/DSP/Source/ComplexMathFunctions/arm_cmplx_dot_prod_f32.c ****         blkCnt--;
 136:Drivers/CMSIS/DSP/Source/ComplexMathFunctions/arm_cmplx_dot_prod_f32.c ****     }
 137:Drivers/CMSIS/DSP/Source/ComplexMathFunctions/arm_cmplx_dot_prod_f32.c **** 
 138:Drivers/CMSIS/DSP/Source/ComplexMathFunctions/arm_cmplx_dot_prod_f32.c ****     accum = vpadd_f32(vget_low_f32(accR), vget_high_f32(accR));
 139:Drivers/CMSIS/DSP/Source/ComplexMathFunctions/arm_cmplx_dot_prod_f32.c ****     real_sum += accum[0] + accum[1];
 140:Drivers/CMSIS/DSP/Source/ComplexMathFunctions/arm_cmplx_dot_prod_f32.c **** 
 141:Drivers/CMSIS/DSP/Source/ComplexMathFunctions/arm_cmplx_dot_prod_f32.c ****     accum = vpadd_f32(vget_low_f32(accI), vget_high_f32(accI));
 142:Drivers/CMSIS/DSP/Source/ComplexMathFunctions/arm_cmplx_dot_prod_f32.c ****     imag_sum += accum[0] + accum[1];
 143:Drivers/CMSIS/DSP/Source/ComplexMathFunctions/arm_cmplx_dot_prod_f32.c **** 
 144:Drivers/CMSIS/DSP/Source/ComplexMathFunctions/arm_cmplx_dot_prod_f32.c ****     /* Tail */
 145:Drivers/CMSIS/DSP/Source/ComplexMathFunctions/arm_cmplx_dot_prod_f32.c ****     blkCnt = numSamples & 0x7;
 146:Drivers/CMSIS/DSP/Source/ComplexMathFunctions/arm_cmplx_dot_prod_f32.c **** 
 147:Drivers/CMSIS/DSP/Source/ComplexMathFunctions/arm_cmplx_dot_prod_f32.c **** #else
 148:Drivers/CMSIS/DSP/Source/ComplexMathFunctions/arm_cmplx_dot_prod_f32.c **** #if defined (ARM_MATH_LOOPUNROLL)
 149:Drivers/CMSIS/DSP/Source/ComplexMathFunctions/arm_cmplx_dot_prod_f32.c **** 
 150:Drivers/CMSIS/DSP/Source/ComplexMathFunctions/arm_cmplx_dot_prod_f32.c ****   /* Loop unrolling: Compute 4 outputs at a time */
 151:Drivers/CMSIS/DSP/Source/ComplexMathFunctions/arm_cmplx_dot_prod_f32.c ****   blkCnt = numSamples >> 2U;
 152:Drivers/CMSIS/DSP/Source/ComplexMathFunctions/arm_cmplx_dot_prod_f32.c **** 
 153:Drivers/CMSIS/DSP/Source/ComplexMathFunctions/arm_cmplx_dot_prod_f32.c ****   while (blkCnt > 0U)
 154:Drivers/CMSIS/DSP/Source/ComplexMathFunctions/arm_cmplx_dot_prod_f32.c ****   {
 155:Drivers/CMSIS/DSP/Source/ComplexMathFunctions/arm_cmplx_dot_prod_f32.c ****     a0 = *pSrcA++;
 156:Drivers/CMSIS/DSP/Source/ComplexMathFunctions/arm_cmplx_dot_prod_f32.c ****     b0 = *pSrcA++;
 157:Drivers/CMSIS/DSP/Source/ComplexMathFunctions/arm_cmplx_dot_prod_f32.c ****     c0 = *pSrcB++;
 158:Drivers/CMSIS/DSP/Source/ComplexMathFunctions/arm_cmplx_dot_prod_f32.c ****     d0 = *pSrcB++;
 159:Drivers/CMSIS/DSP/Source/ComplexMathFunctions/arm_cmplx_dot_prod_f32.c **** 
 160:Drivers/CMSIS/DSP/Source/ComplexMathFunctions/arm_cmplx_dot_prod_f32.c ****     real_sum += a0 * c0;
 161:Drivers/CMSIS/DSP/Source/ComplexMathFunctions/arm_cmplx_dot_prod_f32.c ****     imag_sum += a0 * d0;
 162:Drivers/CMSIS/DSP/Source/ComplexMathFunctions/arm_cmplx_dot_prod_f32.c ****     real_sum -= b0 * d0;
 163:Drivers/CMSIS/DSP/Source/ComplexMathFunctions/arm_cmplx_dot_prod_f32.c ****     imag_sum += b0 * c0;
 164:Drivers/CMSIS/DSP/Source/ComplexMathFunctions/arm_cmplx_dot_prod_f32.c **** 
 165:Drivers/CMSIS/DSP/Source/ComplexMathFunctions/arm_cmplx_dot_prod_f32.c ****     a0 = *pSrcA++;
 166:Drivers/CMSIS/DSP/Source/ComplexMathFunctions/arm_cmplx_dot_prod_f32.c ****     b0 = *pSrcA++;
 167:Drivers/CMSIS/DSP/Source/ComplexMathFunctions/arm_cmplx_dot_prod_f32.c ****     c0 = *pSrcB++;
ARM GAS  C:\Users\JustE\AppData\Local\Temp\ccpkykRb.s 			page 54


 168:Drivers/CMSIS/DSP/Source/ComplexMathFunctions/arm_cmplx_dot_prod_f32.c ****     d0 = *pSrcB++;
 169:Drivers/CMSIS/DSP/Source/ComplexMathFunctions/arm_cmplx_dot_prod_f32.c **** 
 170:Drivers/CMSIS/DSP/Source/ComplexMathFunctions/arm_cmplx_dot_prod_f32.c ****     real_sum += a0 * c0;
 171:Drivers/CMSIS/DSP/Source/ComplexMathFunctions/arm_cmplx_dot_prod_f32.c ****     imag_sum += a0 * d0;
 172:Drivers/CMSIS/DSP/Source/ComplexMathFunctions/arm_cmplx_dot_prod_f32.c ****     real_sum -= b0 * d0;
 173:Drivers/CMSIS/DSP/Source/ComplexMathFunctions/arm_cmplx_dot_prod_f32.c ****     imag_sum += b0 * c0;
 174:Drivers/CMSIS/DSP/Source/ComplexMathFunctions/arm_cmplx_dot_prod_f32.c **** 
 175:Drivers/CMSIS/DSP/Source/ComplexMathFunctions/arm_cmplx_dot_prod_f32.c ****     a0 = *pSrcA++;
 176:Drivers/CMSIS/DSP/Source/ComplexMathFunctions/arm_cmplx_dot_prod_f32.c ****     b0 = *pSrcA++;
 177:Drivers/CMSIS/DSP/Source/ComplexMathFunctions/arm_cmplx_dot_prod_f32.c ****     c0 = *pSrcB++;
 178:Drivers/CMSIS/DSP/Source/ComplexMathFunctions/arm_cmplx_dot_prod_f32.c ****     d0 = *pSrcB++;
 179:Drivers/CMSIS/DSP/Source/ComplexMathFunctions/arm_cmplx_dot_prod_f32.c **** 
 180:Drivers/CMSIS/DSP/Source/ComplexMathFunctions/arm_cmplx_dot_prod_f32.c ****     real_sum += a0 * c0;
 181:Drivers/CMSIS/DSP/Source/ComplexMathFunctions/arm_cmplx_dot_prod_f32.c ****     imag_sum += a0 * d0;
 182:Drivers/CMSIS/DSP/Source/ComplexMathFunctions/arm_cmplx_dot_prod_f32.c ****     real_sum -= b0 * d0;
 183:Drivers/CMSIS/DSP/Source/ComplexMathFunctions/arm_cmplx_dot_prod_f32.c ****     imag_sum += b0 * c0;
 184:Drivers/CMSIS/DSP/Source/ComplexMathFunctions/arm_cmplx_dot_prod_f32.c **** 
 185:Drivers/CMSIS/DSP/Source/ComplexMathFunctions/arm_cmplx_dot_prod_f32.c ****     a0 = *pSrcA++;
 186:Drivers/CMSIS/DSP/Source/ComplexMathFunctions/arm_cmplx_dot_prod_f32.c ****     b0 = *pSrcA++;
 187:Drivers/CMSIS/DSP/Source/ComplexMathFunctions/arm_cmplx_dot_prod_f32.c ****     c0 = *pSrcB++;
 188:Drivers/CMSIS/DSP/Source/ComplexMathFunctions/arm_cmplx_dot_prod_f32.c ****     d0 = *pSrcB++;
 189:Drivers/CMSIS/DSP/Source/ComplexMathFunctions/arm_cmplx_dot_prod_f32.c **** 
 190:Drivers/CMSIS/DSP/Source/ComplexMathFunctions/arm_cmplx_dot_prod_f32.c ****     real_sum += a0 * c0;
 191:Drivers/CMSIS/DSP/Source/ComplexMathFunctions/arm_cmplx_dot_prod_f32.c ****     imag_sum += a0 * d0;
 192:Drivers/CMSIS/DSP/Source/ComplexMathFunctions/arm_cmplx_dot_prod_f32.c ****     real_sum -= b0 * d0;
 193:Drivers/CMSIS/DSP/Source/ComplexMathFunctions/arm_cmplx_dot_prod_f32.c ****     imag_sum += b0 * c0;
 194:Drivers/CMSIS/DSP/Source/ComplexMathFunctions/arm_cmplx_dot_prod_f32.c **** 
 195:Drivers/CMSIS/DSP/Source/ComplexMathFunctions/arm_cmplx_dot_prod_f32.c ****     /* Decrement loop counter */
 196:Drivers/CMSIS/DSP/Source/ComplexMathFunctions/arm_cmplx_dot_prod_f32.c ****     blkCnt--;
 197:Drivers/CMSIS/DSP/Source/ComplexMathFunctions/arm_cmplx_dot_prod_f32.c ****   }
 198:Drivers/CMSIS/DSP/Source/ComplexMathFunctions/arm_cmplx_dot_prod_f32.c **** 
 199:Drivers/CMSIS/DSP/Source/ComplexMathFunctions/arm_cmplx_dot_prod_f32.c ****   /* Loop unrolling: Compute remaining outputs */
 200:Drivers/CMSIS/DSP/Source/ComplexMathFunctions/arm_cmplx_dot_prod_f32.c ****   blkCnt = numSamples % 0x4U;
 201:Drivers/CMSIS/DSP/Source/ComplexMathFunctions/arm_cmplx_dot_prod_f32.c **** 
 202:Drivers/CMSIS/DSP/Source/ComplexMathFunctions/arm_cmplx_dot_prod_f32.c **** #else
 203:Drivers/CMSIS/DSP/Source/ComplexMathFunctions/arm_cmplx_dot_prod_f32.c **** 
 204:Drivers/CMSIS/DSP/Source/ComplexMathFunctions/arm_cmplx_dot_prod_f32.c ****   /* Initialize blkCnt with number of samples */
 205:Drivers/CMSIS/DSP/Source/ComplexMathFunctions/arm_cmplx_dot_prod_f32.c ****   blkCnt = numSamples;
 281              		.loc 6 205 3 view .LVU77
 206:Drivers/CMSIS/DSP/Source/ComplexMathFunctions/arm_cmplx_dot_prod_f32.c **** 
 207:Drivers/CMSIS/DSP/Source/ComplexMathFunctions/arm_cmplx_dot_prod_f32.c **** #endif /* #if defined (ARM_MATH_LOOPUNROLL) */
 208:Drivers/CMSIS/DSP/Source/ComplexMathFunctions/arm_cmplx_dot_prod_f32.c **** #endif /* #if defined(ARM_MATH_NEON) */
 209:Drivers/CMSIS/DSP/Source/ComplexMathFunctions/arm_cmplx_dot_prod_f32.c **** 
 210:Drivers/CMSIS/DSP/Source/ComplexMathFunctions/arm_cmplx_dot_prod_f32.c ****   while (blkCnt > 0U)
 282              		.loc 6 210 3 view .LVU78
  85:Drivers/CMSIS/DSP/Source/ComplexMathFunctions/arm_cmplx_dot_prod_f32.c ****         float32_t a0,b0,c0,d0;
 283              		.loc 6 85 36 is_stmt 0 view .LVU79
 284 0002 9FED176A 		vldr.32	s12, .L26
  85:Drivers/CMSIS/DSP/Source/ComplexMathFunctions/arm_cmplx_dot_prod_f32.c ****         float32_t a0,b0,c0,d0;
 285              		.loc 6 85 19 view .LVU80
 286 0006 F0EE465A 		vmov.f32	s11, s12
 287              		.loc 6 210 9 view .LVU81
 288 000a 1FE0     		b	.L23
 289              	.LVL25:
 290              	.L24:
 211:Drivers/CMSIS/DSP/Source/ComplexMathFunctions/arm_cmplx_dot_prod_f32.c ****   {
 212:Drivers/CMSIS/DSP/Source/ComplexMathFunctions/arm_cmplx_dot_prod_f32.c ****     a0 = *pSrcA++;
ARM GAS  C:\Users\JustE\AppData\Local\Temp\ccpkykRb.s 			page 55


 291              		.loc 6 212 5 is_stmt 1 view .LVU82
 292              		.loc 6 212 8 is_stmt 0 view .LVU83
 293 000c 00F1080C 		add	ip, r0, #8
 294 0010 D0ED006A 		vldr.32	s13, [r0]
 295              	.LVL26:
 213:Drivers/CMSIS/DSP/Source/ComplexMathFunctions/arm_cmplx_dot_prod_f32.c ****     b0 = *pSrcA++;
 296              		.loc 6 213 5 is_stmt 1 view .LVU84
 297              		.loc 6 213 8 is_stmt 0 view .LVU85
 298 0014 D0ED017A 		vldr.32	s15, [r0, #4]
 299              	.LVL27:
 214:Drivers/CMSIS/DSP/Source/ComplexMathFunctions/arm_cmplx_dot_prod_f32.c ****     c0 = *pSrcB++;
 300              		.loc 6 214 5 is_stmt 1 view .LVU86
 301              		.loc 6 214 8 is_stmt 0 view .LVU87
 302 0018 0846     		mov	r0, r1
 303 001a 8E46     		mov	lr, r1
 304 001c 0830     		adds	r0, r0, #8
 305 001e 91ED005A 		vldr.32	s10, [r1]
 306              	.LVL28:
 215:Drivers/CMSIS/DSP/Source/ComplexMathFunctions/arm_cmplx_dot_prod_f32.c ****     d0 = *pSrcB++;
 307              		.loc 6 215 5 is_stmt 1 view .LVU88
 308              		.loc 6 215 8 is_stmt 0 view .LVU89
 309 0022 91ED017A 		vldr.32	s14, [r1, #4]
 310              	.LVL29:
 216:Drivers/CMSIS/DSP/Source/ComplexMathFunctions/arm_cmplx_dot_prod_f32.c **** 
 217:Drivers/CMSIS/DSP/Source/ComplexMathFunctions/arm_cmplx_dot_prod_f32.c ****     real_sum += a0 * c0;
 311              		.loc 6 217 5 is_stmt 1 view .LVU90
 312              		.loc 6 217 20 is_stmt 0 view .LVU91
 313 0026 66EE854A 		vmul.f32	s9, s13, s10
 314              		.loc 6 217 14 view .LVU92
 315 002a 74EEA55A 		vadd.f32	s11, s9, s11
 316              	.LVL30:
 218:Drivers/CMSIS/DSP/Source/ComplexMathFunctions/arm_cmplx_dot_prod_f32.c ****     imag_sum += a0 * d0;
 317              		.loc 6 218 5 is_stmt 1 view .LVU93
 318              		.loc 6 218 20 is_stmt 0 view .LVU94
 319 002e 66EE876A 		vmul.f32	s13, s13, s14
 320              	.LVL31:
 321              		.loc 6 218 14 view .LVU95
 322 0032 36EE866A 		vadd.f32	s12, s13, s12
 323              	.LVL32:
 219:Drivers/CMSIS/DSP/Source/ComplexMathFunctions/arm_cmplx_dot_prod_f32.c ****     real_sum -= b0 * d0;
 324              		.loc 6 219 5 is_stmt 1 view .LVU96
 325              		.loc 6 219 20 is_stmt 0 view .LVU97
 326 0036 27EE877A 		vmul.f32	s14, s15, s14
 327              	.LVL33:
 328              		.loc 6 219 14 view .LVU98
 329 003a 75EEC75A 		vsub.f32	s11, s11, s14
 330              	.LVL34:
 220:Drivers/CMSIS/DSP/Source/ComplexMathFunctions/arm_cmplx_dot_prod_f32.c ****     imag_sum += b0 * c0;
 331              		.loc 6 220 5 is_stmt 1 view .LVU99
 332              		.loc 6 220 20 is_stmt 0 view .LVU100
 333 003e 67EE857A 		vmul.f32	s15, s15, s10
 334              	.LVL35:
 335              		.loc 6 220 14 view .LVU101
 336 0042 37EE866A 		vadd.f32	s12, s15, s12
 337              	.LVL36:
 221:Drivers/CMSIS/DSP/Source/ComplexMathFunctions/arm_cmplx_dot_prod_f32.c **** 
 222:Drivers/CMSIS/DSP/Source/ComplexMathFunctions/arm_cmplx_dot_prod_f32.c ****     /* Decrement loop counter */
ARM GAS  C:\Users\JustE\AppData\Local\Temp\ccpkykRb.s 			page 56


 223:Drivers/CMSIS/DSP/Source/ComplexMathFunctions/arm_cmplx_dot_prod_f32.c ****     blkCnt--;
 338              		.loc 6 223 5 is_stmt 1 view .LVU102
 339              		.loc 6 223 11 is_stmt 0 view .LVU103
 340 0046 013A     		subs	r2, r2, #1
 341              	.LVL37:
 215:Drivers/CMSIS/DSP/Source/ComplexMathFunctions/arm_cmplx_dot_prod_f32.c **** 
 342              		.loc 6 215 16 view .LVU104
 343 0048 0146     		mov	r1, r0
 344              	.LVL38:
 213:Drivers/CMSIS/DSP/Source/ComplexMathFunctions/arm_cmplx_dot_prod_f32.c ****     c0 = *pSrcB++;
 345              		.loc 6 213 16 view .LVU105
 346 004a 6046     		mov	r0, ip
 347              	.LVL39:
 348              	.L23:
 210:Drivers/CMSIS/DSP/Source/ComplexMathFunctions/arm_cmplx_dot_prod_f32.c ****   {
 349              		.loc 6 210 17 is_stmt 1 view .LVU106
 350 004c 002A     		cmp	r2, #0
 351 004e DDD1     		bne	.L24
 224:Drivers/CMSIS/DSP/Source/ComplexMathFunctions/arm_cmplx_dot_prod_f32.c ****   }
 225:Drivers/CMSIS/DSP/Source/ComplexMathFunctions/arm_cmplx_dot_prod_f32.c **** 
 226:Drivers/CMSIS/DSP/Source/ComplexMathFunctions/arm_cmplx_dot_prod_f32.c ****   /* Store real and imaginary result in destination buffer. */
 227:Drivers/CMSIS/DSP/Source/ComplexMathFunctions/arm_cmplx_dot_prod_f32.c ****   *realResult = real_sum;
 352              		.loc 6 227 3 view .LVU107
 353              		.loc 6 227 15 is_stmt 0 view .LVU108
 354 0050 C3ED005A 		vstr.32	s11, [r3]
 228:Drivers/CMSIS/DSP/Source/ComplexMathFunctions/arm_cmplx_dot_prod_f32.c ****   *imagResult = imag_sum;
 355              		.loc 6 228 3 is_stmt 1 view .LVU109
 356              		.loc 6 228 15 is_stmt 0 view .LVU110
 357 0054 019B     		ldr	r3, [sp, #4]
 358              	.LVL40:
 359              		.loc 6 228 15 view .LVU111
 360 0056 83ED006A 		vstr.32	s12, [r3]
 229:Drivers/CMSIS/DSP/Source/ComplexMathFunctions/arm_cmplx_dot_prod_f32.c **** }
 361              		.loc 6 229 1 view .LVU112
 362 005a 5DF804FB 		ldr	pc, [sp], #4
 363              	.LVL41:
 364              	.L27:
 365              		.loc 6 229 1 view .LVU113
 366 005e 00BF     		.align	2
 367              	.L26:
 368 0060 00000000 		.word	0
 369              		.cfi_endproc
 370              	.LFE148:
 372              		.section	.text.arm_cmplx_dot_prod_q15,"ax",%progbits
 373              		.align	1
 374              		.global	arm_cmplx_dot_prod_q15
 375              		.syntax unified
 376              		.thumb
 377              		.thumb_func
 379              	arm_cmplx_dot_prod_q15:
 380              	.LVL42:
 381              	.LFB149:
 382              		.file 7 "Drivers/CMSIS/DSP/Source/ComplexMathFunctions/arm_cmplx_dot_prod_q15.c"
   1:Drivers/CMSIS/DSP/Source/ComplexMathFunctions/arm_cmplx_dot_prod_q15.c **** /* ----------------------------------------------------------------------
   2:Drivers/CMSIS/DSP/Source/ComplexMathFunctions/arm_cmplx_dot_prod_q15.c ****  * Project:      CMSIS DSP Library
   3:Drivers/CMSIS/DSP/Source/ComplexMathFunctions/arm_cmplx_dot_prod_q15.c ****  * Title:        arm_cmplx_dot_prod_q15.c
   4:Drivers/CMSIS/DSP/Source/ComplexMathFunctions/arm_cmplx_dot_prod_q15.c ****  * Description:  Processing function for the Q15 Complex Dot product
ARM GAS  C:\Users\JustE\AppData\Local\Temp\ccpkykRb.s 			page 57


   5:Drivers/CMSIS/DSP/Source/ComplexMathFunctions/arm_cmplx_dot_prod_q15.c ****  *
   6:Drivers/CMSIS/DSP/Source/ComplexMathFunctions/arm_cmplx_dot_prod_q15.c ****  * $Date:        18. March 2019
   7:Drivers/CMSIS/DSP/Source/ComplexMathFunctions/arm_cmplx_dot_prod_q15.c ****  * $Revision:    V1.6.0
   8:Drivers/CMSIS/DSP/Source/ComplexMathFunctions/arm_cmplx_dot_prod_q15.c ****  *
   9:Drivers/CMSIS/DSP/Source/ComplexMathFunctions/arm_cmplx_dot_prod_q15.c ****  * Target Processor: Cortex-M cores
  10:Drivers/CMSIS/DSP/Source/ComplexMathFunctions/arm_cmplx_dot_prod_q15.c ****  * -------------------------------------------------------------------- */
  11:Drivers/CMSIS/DSP/Source/ComplexMathFunctions/arm_cmplx_dot_prod_q15.c **** /*
  12:Drivers/CMSIS/DSP/Source/ComplexMathFunctions/arm_cmplx_dot_prod_q15.c ****  * Copyright (C) 2010-2019 ARM Limited or its affiliates. All rights reserved.
  13:Drivers/CMSIS/DSP/Source/ComplexMathFunctions/arm_cmplx_dot_prod_q15.c ****  *
  14:Drivers/CMSIS/DSP/Source/ComplexMathFunctions/arm_cmplx_dot_prod_q15.c ****  * SPDX-License-Identifier: Apache-2.0
  15:Drivers/CMSIS/DSP/Source/ComplexMathFunctions/arm_cmplx_dot_prod_q15.c ****  *
  16:Drivers/CMSIS/DSP/Source/ComplexMathFunctions/arm_cmplx_dot_prod_q15.c ****  * Licensed under the Apache License, Version 2.0 (the License); you may
  17:Drivers/CMSIS/DSP/Source/ComplexMathFunctions/arm_cmplx_dot_prod_q15.c ****  * not use this file except in compliance with the License.
  18:Drivers/CMSIS/DSP/Source/ComplexMathFunctions/arm_cmplx_dot_prod_q15.c ****  * You may obtain a copy of the License at
  19:Drivers/CMSIS/DSP/Source/ComplexMathFunctions/arm_cmplx_dot_prod_q15.c ****  *
  20:Drivers/CMSIS/DSP/Source/ComplexMathFunctions/arm_cmplx_dot_prod_q15.c ****  * www.apache.org/licenses/LICENSE-2.0
  21:Drivers/CMSIS/DSP/Source/ComplexMathFunctions/arm_cmplx_dot_prod_q15.c ****  *
  22:Drivers/CMSIS/DSP/Source/ComplexMathFunctions/arm_cmplx_dot_prod_q15.c ****  * Unless required by applicable law or agreed to in writing, software
  23:Drivers/CMSIS/DSP/Source/ComplexMathFunctions/arm_cmplx_dot_prod_q15.c ****  * distributed under the License is distributed on an AS IS BASIS, WITHOUT
  24:Drivers/CMSIS/DSP/Source/ComplexMathFunctions/arm_cmplx_dot_prod_q15.c ****  * WARRANTIES OR CONDITIONS OF ANY KIND, either express or implied.
  25:Drivers/CMSIS/DSP/Source/ComplexMathFunctions/arm_cmplx_dot_prod_q15.c ****  * See the License for the specific language governing permissions and
  26:Drivers/CMSIS/DSP/Source/ComplexMathFunctions/arm_cmplx_dot_prod_q15.c ****  * limitations under the License.
  27:Drivers/CMSIS/DSP/Source/ComplexMathFunctions/arm_cmplx_dot_prod_q15.c ****  */
  28:Drivers/CMSIS/DSP/Source/ComplexMathFunctions/arm_cmplx_dot_prod_q15.c **** 
  29:Drivers/CMSIS/DSP/Source/ComplexMathFunctions/arm_cmplx_dot_prod_q15.c **** #include "arm_math.h"
  30:Drivers/CMSIS/DSP/Source/ComplexMathFunctions/arm_cmplx_dot_prod_q15.c **** 
  31:Drivers/CMSIS/DSP/Source/ComplexMathFunctions/arm_cmplx_dot_prod_q15.c **** /**
  32:Drivers/CMSIS/DSP/Source/ComplexMathFunctions/arm_cmplx_dot_prod_q15.c ****   @ingroup groupCmplxMath
  33:Drivers/CMSIS/DSP/Source/ComplexMathFunctions/arm_cmplx_dot_prod_q15.c ****  */
  34:Drivers/CMSIS/DSP/Source/ComplexMathFunctions/arm_cmplx_dot_prod_q15.c **** 
  35:Drivers/CMSIS/DSP/Source/ComplexMathFunctions/arm_cmplx_dot_prod_q15.c **** /**
  36:Drivers/CMSIS/DSP/Source/ComplexMathFunctions/arm_cmplx_dot_prod_q15.c ****   @addtogroup cmplx_dot_prod
  37:Drivers/CMSIS/DSP/Source/ComplexMathFunctions/arm_cmplx_dot_prod_q15.c ****   @{
  38:Drivers/CMSIS/DSP/Source/ComplexMathFunctions/arm_cmplx_dot_prod_q15.c ****  */
  39:Drivers/CMSIS/DSP/Source/ComplexMathFunctions/arm_cmplx_dot_prod_q15.c **** 
  40:Drivers/CMSIS/DSP/Source/ComplexMathFunctions/arm_cmplx_dot_prod_q15.c **** /**
  41:Drivers/CMSIS/DSP/Source/ComplexMathFunctions/arm_cmplx_dot_prod_q15.c ****   @brief         Q15 complex dot product.
