ARM GAS  C:\Users\JustE\AppData\Local\Temp\ccF78sEd.s 			page 1


   1              		.cpu cortex-m4
   2              		.arch armv7e-m
   3              		.fpu fpv4-sp-d16
   4              		.eabi_attribute 27, 1
   5              		.eabi_attribute 28, 1
   6              		.eabi_attribute 20, 1
   7              		.eabi_attribute 21, 1
   8              		.eabi_attribute 23, 3
   9              		.eabi_attribute 24, 1
  10              		.eabi_attribute 25, 1
  11              		.eabi_attribute 26, 1
  12              		.eabi_attribute 30, 1
  13              		.eabi_attribute 34, 1
  14              		.eabi_attribute 18, 4
  15              		.file	"TransformFunctions.c"
  16              		.text
  17              	.Ltext0:
  18              		.cfi_sections	.debug_frame
  19              		.file 1 "Drivers/CMSIS/DSP/Source/TransformFunctions/TransformFunctions.c"
  20              		.section	.text.arm_rfft_32_fast_init_f32,"ax",%progbits
  21              		.align	1
  22              		.global	arm_rfft_32_fast_init_f32
  23              		.syntax unified
  24              		.thumb
  25              		.thumb_func
  27              	arm_rfft_32_fast_init_f32:
  28              	.LVL0:
  29              	.LFB196:
  30              		.file 2 "Drivers/CMSIS/DSP/Source/TransformFunctions/arm_rfft_fast_init_f32.c"
   1:Drivers/CMSIS/DSP/Source/TransformFunctions/arm_rfft_fast_init_f32.c **** /* ----------------------------------------------------------------------
   2:Drivers/CMSIS/DSP/Source/TransformFunctions/arm_rfft_fast_init_f32.c ****  * Project:      CMSIS DSP Library
   3:Drivers/CMSIS/DSP/Source/TransformFunctions/arm_rfft_fast_init_f32.c ****  * Title:        arm_cfft_init_f32.c
   4:Drivers/CMSIS/DSP/Source/TransformFunctions/arm_rfft_fast_init_f32.c ****  * Description:  Split Radix Decimation in Frequency CFFT Floating point processing function
   5:Drivers/CMSIS/DSP/Source/TransformFunctions/arm_rfft_fast_init_f32.c ****  *
   6:Drivers/CMSIS/DSP/Source/TransformFunctions/arm_rfft_fast_init_f32.c ****  * $Date:        18. March 2019
   7:Drivers/CMSIS/DSP/Source/TransformFunctions/arm_rfft_fast_init_f32.c ****  * $Revision:    V1.6.0
   8:Drivers/CMSIS/DSP/Source/TransformFunctions/arm_rfft_fast_init_f32.c ****  *
   9:Drivers/CMSIS/DSP/Source/TransformFunctions/arm_rfft_fast_init_f32.c ****  * Target Processor: Cortex-M cores
  10:Drivers/CMSIS/DSP/Source/TransformFunctions/arm_rfft_fast_init_f32.c ****  * -------------------------------------------------------------------- */
  11:Drivers/CMSIS/DSP/Source/TransformFunctions/arm_rfft_fast_init_f32.c **** /*
  12:Drivers/CMSIS/DSP/Source/TransformFunctions/arm_rfft_fast_init_f32.c ****  * Copyright (C) 2010-2019 ARM Limited or its affiliates. All rights reserved.
  13:Drivers/CMSIS/DSP/Source/TransformFunctions/arm_rfft_fast_init_f32.c ****  *
  14:Drivers/CMSIS/DSP/Source/TransformFunctions/arm_rfft_fast_init_f32.c ****  * SPDX-License-Identifier: Apache-2.0
  15:Drivers/CMSIS/DSP/Source/TransformFunctions/arm_rfft_fast_init_f32.c ****  *
  16:Drivers/CMSIS/DSP/Source/TransformFunctions/arm_rfft_fast_init_f32.c ****  * Licensed under the Apache License, Version 2.0 (the License); you may
  17:Drivers/CMSIS/DSP/Source/TransformFunctions/arm_rfft_fast_init_f32.c ****  * not use this file except in compliance with the License.
  18:Drivers/CMSIS/DSP/Source/TransformFunctions/arm_rfft_fast_init_f32.c ****  * You may obtain a copy of the License at
  19:Drivers/CMSIS/DSP/Source/TransformFunctions/arm_rfft_fast_init_f32.c ****  *
  20:Drivers/CMSIS/DSP/Source/TransformFunctions/arm_rfft_fast_init_f32.c ****  * www.apache.org/licenses/LICENSE-2.0
  21:Drivers/CMSIS/DSP/Source/TransformFunctions/arm_rfft_fast_init_f32.c ****  *
  22:Drivers/CMSIS/DSP/Source/TransformFunctions/arm_rfft_fast_init_f32.c ****  * Unless required by applicable law or agreed to in writing, software
  23:Drivers/CMSIS/DSP/Source/TransformFunctions/arm_rfft_fast_init_f32.c ****  * distributed under the License is distributed on an AS IS BASIS, WITHOUT
  24:Drivers/CMSIS/DSP/Source/TransformFunctions/arm_rfft_fast_init_f32.c ****  * WARRANTIES OR CONDITIONS OF ANY KIND, either express or implied.
  25:Drivers/CMSIS/DSP/Source/TransformFunctions/arm_rfft_fast_init_f32.c ****  * See the License for the specific language governing permissions and
  26:Drivers/CMSIS/DSP/Source/TransformFunctions/arm_rfft_fast_init_f32.c ****  * limitations under the License.
  27:Drivers/CMSIS/DSP/Source/TransformFunctions/arm_rfft_fast_init_f32.c ****  */
  28:Drivers/CMSIS/DSP/Source/TransformFunctions/arm_rfft_fast_init_f32.c **** 
ARM GAS  C:\Users\JustE\AppData\Local\Temp\ccF78sEd.s 			page 2


  29:Drivers/CMSIS/DSP/Source/TransformFunctions/arm_rfft_fast_init_f32.c **** #include "arm_math.h"
  30:Drivers/CMSIS/DSP/Source/TransformFunctions/arm_rfft_fast_init_f32.c **** #include "arm_common_tables.h"
  31:Drivers/CMSIS/DSP/Source/TransformFunctions/arm_rfft_fast_init_f32.c **** 
  32:Drivers/CMSIS/DSP/Source/TransformFunctions/arm_rfft_fast_init_f32.c **** /**
  33:Drivers/CMSIS/DSP/Source/TransformFunctions/arm_rfft_fast_init_f32.c ****   @ingroup groupTransforms
  34:Drivers/CMSIS/DSP/Source/TransformFunctions/arm_rfft_fast_init_f32.c ****  */
  35:Drivers/CMSIS/DSP/Source/TransformFunctions/arm_rfft_fast_init_f32.c **** 
  36:Drivers/CMSIS/DSP/Source/TransformFunctions/arm_rfft_fast_init_f32.c **** /**
  37:Drivers/CMSIS/DSP/Source/TransformFunctions/arm_rfft_fast_init_f32.c ****   @addtogroup RealFFT
  38:Drivers/CMSIS/DSP/Source/TransformFunctions/arm_rfft_fast_init_f32.c ****   @{
  39:Drivers/CMSIS/DSP/Source/TransformFunctions/arm_rfft_fast_init_f32.c ****  */
  40:Drivers/CMSIS/DSP/Source/TransformFunctions/arm_rfft_fast_init_f32.c **** 
  41:Drivers/CMSIS/DSP/Source/TransformFunctions/arm_rfft_fast_init_f32.c **** #if !defined(ARM_DSP_CONFIG_TABLES) || defined(ARM_ALL_FFT_TABLES) || (defined(ARM_TABLE_TWIDDLECOE
  42:Drivers/CMSIS/DSP/Source/TransformFunctions/arm_rfft_fast_init_f32.c **** 
  43:Drivers/CMSIS/DSP/Source/TransformFunctions/arm_rfft_fast_init_f32.c **** /**
  44:Drivers/CMSIS/DSP/Source/TransformFunctions/arm_rfft_fast_init_f32.c ****   @brief         Initialization function for the 32pt floating-point real FFT.
  45:Drivers/CMSIS/DSP/Source/TransformFunctions/arm_rfft_fast_init_f32.c ****   @param[in,out] S  points to an arm_rfft_fast_instance_f32 structure
  46:Drivers/CMSIS/DSP/Source/TransformFunctions/arm_rfft_fast_init_f32.c ****   @return        execution status
  47:Drivers/CMSIS/DSP/Source/TransformFunctions/arm_rfft_fast_init_f32.c ****                    - \ref ARM_MATH_SUCCESS        : Operation successful
  48:Drivers/CMSIS/DSP/Source/TransformFunctions/arm_rfft_fast_init_f32.c ****                    - \ref ARM_MATH_ARGUMENT_ERROR : an error is detected
  49:Drivers/CMSIS/DSP/Source/TransformFunctions/arm_rfft_fast_init_f32.c ****  */
  50:Drivers/CMSIS/DSP/Source/TransformFunctions/arm_rfft_fast_init_f32.c **** 
  51:Drivers/CMSIS/DSP/Source/TransformFunctions/arm_rfft_fast_init_f32.c **** arm_status arm_rfft_32_fast_init_f32( arm_rfft_fast_instance_f32 * S ) {
  31              		.loc 2 51 72 view -0
  32              		.cfi_startproc
  33              		@ args = 0, pretend = 0, frame = 0
  34              		@ frame_needed = 0, uses_anonymous_args = 0
  35              		@ link register save eliminated.
  52:Drivers/CMSIS/DSP/Source/TransformFunctions/arm_rfft_fast_init_f32.c **** 
  53:Drivers/CMSIS/DSP/Source/TransformFunctions/arm_rfft_fast_init_f32.c ****   arm_cfft_instance_f32 * Sint;
  36              		.loc 2 53 3 view .LVU1
  54:Drivers/CMSIS/DSP/Source/TransformFunctions/arm_rfft_fast_init_f32.c **** 
  55:Drivers/CMSIS/DSP/Source/TransformFunctions/arm_rfft_fast_init_f32.c ****   if( !S ) return ARM_MATH_ARGUMENT_ERROR;
  37              		.loc 2 55 3 view .LVU2
  38              		.loc 2 55 5 is_stmt 0 view .LVU3
  39 0000 68B1     		cbz	r0, .L3
  56:Drivers/CMSIS/DSP/Source/TransformFunctions/arm_rfft_fast_init_f32.c **** 
  57:Drivers/CMSIS/DSP/Source/TransformFunctions/arm_rfft_fast_init_f32.c ****   Sint = &(S->Sint);
  40              		.loc 2 57 3 is_stmt 1 view .LVU4
  41              	.LVL1:
  58:Drivers/CMSIS/DSP/Source/TransformFunctions/arm_rfft_fast_init_f32.c ****   Sint->fftLen = 16U;
  42              		.loc 2 58 3 view .LVU5
  43              		.loc 2 58 16 is_stmt 0 view .LVU6
  44 0002 1022     		movs	r2, #16
  45 0004 0280     		strh	r2, [r0]	@ movhi
  59:Drivers/CMSIS/DSP/Source/TransformFunctions/arm_rfft_fast_init_f32.c ****   S->fftLenRFFT = 32U;
  46              		.loc 2 59 3 is_stmt 1 view .LVU7
  47              		.loc 2 59 17 is_stmt 0 view .LVU8
  48 0006 2022     		movs	r2, #32
  49 0008 0282     		strh	r2, [r0, #16]	@ movhi
  60:Drivers/CMSIS/DSP/Source/TransformFunctions/arm_rfft_fast_init_f32.c **** 
  61:Drivers/CMSIS/DSP/Source/TransformFunctions/arm_rfft_fast_init_f32.c ****   Sint->bitRevLength = ARMBITREVINDEXTABLE_16_TABLE_LENGTH;
  50              		.loc 2 61 3 is_stmt 1 view .LVU9
  51              		.loc 2 61 22 is_stmt 0 view .LVU10
  52 000a 1422     		movs	r2, #20
  53 000c 8281     		strh	r2, [r0, #12]	@ movhi
  62:Drivers/CMSIS/DSP/Source/TransformFunctions/arm_rfft_fast_init_f32.c ****   Sint->pBitRevTable = (uint16_t *)armBitRevIndexTable16;
ARM GAS  C:\Users\JustE\AppData\Local\Temp\ccF78sEd.s 			page 3


  54              		.loc 2 62 3 is_stmt 1 view .LVU11
  55              		.loc 2 62 22 is_stmt 0 view .LVU12
  56 000e 054A     		ldr	r2, .L4
  57 0010 8260     		str	r2, [r0, #8]
  63:Drivers/CMSIS/DSP/Source/TransformFunctions/arm_rfft_fast_init_f32.c ****   Sint->pTwiddle     = (float32_t *) twiddleCoef_16;
  58              		.loc 2 63 3 is_stmt 1 view .LVU13
  59              		.loc 2 63 22 is_stmt 0 view .LVU14
  60 0012 054A     		ldr	r2, .L4+4
  61 0014 4260     		str	r2, [r0, #4]
  64:Drivers/CMSIS/DSP/Source/TransformFunctions/arm_rfft_fast_init_f32.c ****   S->pTwiddleRFFT    = (float32_t *) twiddleCoef_rfft_32;
  62              		.loc 2 64 3 is_stmt 1 view .LVU15
  63              		.loc 2 64 22 is_stmt 0 view .LVU16
  64 0016 054A     		ldr	r2, .L4+8
  65 0018 4261     		str	r2, [r0, #20]
  65:Drivers/CMSIS/DSP/Source/TransformFunctions/arm_rfft_fast_init_f32.c **** 
  66:Drivers/CMSIS/DSP/Source/TransformFunctions/arm_rfft_fast_init_f32.c ****   return ARM_MATH_SUCCESS;
  66              		.loc 2 66 3 is_stmt 1 view .LVU17
  67              		.loc 2 66 10 is_stmt 0 view .LVU18
  68 001a 0020     		movs	r0, #0
  69              	.LVL2:
  70              		.loc 2 66 10 view .LVU19
  71 001c 7047     		bx	lr
  72              	.LVL3:
  73              	.L3:
  55:Drivers/CMSIS/DSP/Source/TransformFunctions/arm_rfft_fast_init_f32.c **** 
  74              		.loc 2 55 19 view .LVU20
  75 001e 4FF0FF30 		mov	r0, #-1
  76              	.LVL4:
  67:Drivers/CMSIS/DSP/Source/TransformFunctions/arm_rfft_fast_init_f32.c **** }
  77              		.loc 2 67 1 view .LVU21
  78 0022 7047     		bx	lr
  79              	.L5:
  80              		.align	2
  81              	.L4:
  82 0024 00000000 		.word	armBitRevIndexTable16
  83 0028 00000000 		.word	twiddleCoef_16
  84 002c 00000000 		.word	twiddleCoef_rfft_32
  85              		.cfi_endproc
  86              	.LFE196:
  88              		.section	.text.arm_rfft_64_fast_init_f32,"ax",%progbits
  89              		.align	1
  90              		.global	arm_rfft_64_fast_init_f32
  91              		.syntax unified
  92              		.thumb
  93              		.thumb_func
  95              	arm_rfft_64_fast_init_f32:
  96              	.LVL5:
  97              	.LFB197:
  68:Drivers/CMSIS/DSP/Source/TransformFunctions/arm_rfft_fast_init_f32.c **** #endif 
  69:Drivers/CMSIS/DSP/Source/TransformFunctions/arm_rfft_fast_init_f32.c **** 
  70:Drivers/CMSIS/DSP/Source/TransformFunctions/arm_rfft_fast_init_f32.c **** #if !defined(ARM_DSP_CONFIG_TABLES) || defined(ARM_ALL_FFT_TABLES) || (defined(ARM_TABLE_TWIDDLECOE
  71:Drivers/CMSIS/DSP/Source/TransformFunctions/arm_rfft_fast_init_f32.c **** 
  72:Drivers/CMSIS/DSP/Source/TransformFunctions/arm_rfft_fast_init_f32.c **** /**
  73:Drivers/CMSIS/DSP/Source/TransformFunctions/arm_rfft_fast_init_f32.c ****   @brief         Initialization function for the 64pt floating-point real FFT.
  74:Drivers/CMSIS/DSP/Source/TransformFunctions/arm_rfft_fast_init_f32.c ****   @param[in,out] S  points to an arm_rfft_fast_instance_f32 structure
  75:Drivers/CMSIS/DSP/Source/TransformFunctions/arm_rfft_fast_init_f32.c ****   @return        execution status
  76:Drivers/CMSIS/DSP/Source/TransformFunctions/arm_rfft_fast_init_f32.c ****                    - \ref ARM_MATH_SUCCESS        : Operation successful
ARM GAS  C:\Users\JustE\AppData\Local\Temp\ccF78sEd.s 			page 4


  77:Drivers/CMSIS/DSP/Source/TransformFunctions/arm_rfft_fast_init_f32.c ****                    - \ref ARM_MATH_ARGUMENT_ERROR : an error is detected
  78:Drivers/CMSIS/DSP/Source/TransformFunctions/arm_rfft_fast_init_f32.c ****  */
  79:Drivers/CMSIS/DSP/Source/TransformFunctions/arm_rfft_fast_init_f32.c **** 
  80:Drivers/CMSIS/DSP/Source/TransformFunctions/arm_rfft_fast_init_f32.c **** arm_status arm_rfft_64_fast_init_f32( arm_rfft_fast_instance_f32 * S ) {
  98              		.loc 2 80 72 is_stmt 1 view -0
  99              		.cfi_startproc
 100              		@ args = 0, pretend = 0, frame = 0
 101              		@ frame_needed = 0, uses_anonymous_args = 0
 102              		@ link register save eliminated.
  81:Drivers/CMSIS/DSP/Source/TransformFunctions/arm_rfft_fast_init_f32.c **** 
  82:Drivers/CMSIS/DSP/Source/TransformFunctions/arm_rfft_fast_init_f32.c ****   arm_cfft_instance_f32 * Sint;
 103              		.loc 2 82 3 view .LVU23
  83:Drivers/CMSIS/DSP/Source/TransformFunctions/arm_rfft_fast_init_f32.c **** 
  84:Drivers/CMSIS/DSP/Source/TransformFunctions/arm_rfft_fast_init_f32.c ****   if( !S ) return ARM_MATH_ARGUMENT_ERROR;
 104              		.loc 2 84 3 view .LVU24
 105              		.loc 2 84 5 is_stmt 0 view .LVU25
 106 0000 68B1     		cbz	r0, .L8
  85:Drivers/CMSIS/DSP/Source/TransformFunctions/arm_rfft_fast_init_f32.c **** 
  86:Drivers/CMSIS/DSP/Source/TransformFunctions/arm_rfft_fast_init_f32.c ****   Sint = &(S->Sint);
 107              		.loc 2 86 3 is_stmt 1 view .LVU26
 108              	.LVL6:
  87:Drivers/CMSIS/DSP/Source/TransformFunctions/arm_rfft_fast_init_f32.c ****   Sint->fftLen = 32U;
 109              		.loc 2 87 3 view .LVU27
 110              		.loc 2 87 16 is_stmt 0 view .LVU28
 111 0002 2022     		movs	r2, #32
 112 0004 0280     		strh	r2, [r0]	@ movhi
  88:Drivers/CMSIS/DSP/Source/TransformFunctions/arm_rfft_fast_init_f32.c ****   S->fftLenRFFT = 64U;
 113              		.loc 2 88 3 is_stmt 1 view .LVU29
 114              		.loc 2 88 17 is_stmt 0 view .LVU30
 115 0006 4022     		movs	r2, #64
 116 0008 0282     		strh	r2, [r0, #16]	@ movhi
  89:Drivers/CMSIS/DSP/Source/TransformFunctions/arm_rfft_fast_init_f32.c **** 
  90:Drivers/CMSIS/DSP/Source/TransformFunctions/arm_rfft_fast_init_f32.c ****   Sint->bitRevLength = ARMBITREVINDEXTABLE_32_TABLE_LENGTH;
 117              		.loc 2 90 3 is_stmt 1 view .LVU31
 118              		.loc 2 90 22 is_stmt 0 view .LVU32
 119 000a 3022     		movs	r2, #48
 120 000c 8281     		strh	r2, [r0, #12]	@ movhi
  91:Drivers/CMSIS/DSP/Source/TransformFunctions/arm_rfft_fast_init_f32.c ****   Sint->pBitRevTable = (uint16_t *)armBitRevIndexTable32;
 121              		.loc 2 91 3 is_stmt 1 view .LVU33
 122              		.loc 2 91 22 is_stmt 0 view .LVU34
 123 000e 054A     		ldr	r2, .L9
 124 0010 8260     		str	r2, [r0, #8]
  92:Drivers/CMSIS/DSP/Source/TransformFunctions/arm_rfft_fast_init_f32.c ****   Sint->pTwiddle     = (float32_t *) twiddleCoef_32;
 125              		.loc 2 92 3 is_stmt 1 view .LVU35
 126              		.loc 2 92 22 is_stmt 0 view .LVU36
 127 0012 054A     		ldr	r2, .L9+4
 128 0014 4260     		str	r2, [r0, #4]
  93:Drivers/CMSIS/DSP/Source/TransformFunctions/arm_rfft_fast_init_f32.c ****   S->pTwiddleRFFT    = (float32_t *) twiddleCoef_rfft_64;
 129              		.loc 2 93 3 is_stmt 1 view .LVU37
 130              		.loc 2 93 22 is_stmt 0 view .LVU38
 131 0016 054A     		ldr	r2, .L9+8
 132 0018 4261     		str	r2, [r0, #20]
  94:Drivers/CMSIS/DSP/Source/TransformFunctions/arm_rfft_fast_init_f32.c **** 
  95:Drivers/CMSIS/DSP/Source/TransformFunctions/arm_rfft_fast_init_f32.c ****   return ARM_MATH_SUCCESS;
 133              		.loc 2 95 3 is_stmt 1 view .LVU39
 134              		.loc 2 95 10 is_stmt 0 view .LVU40
 135 001a 0020     		movs	r0, #0
ARM GAS  C:\Users\JustE\AppData\Local\Temp\ccF78sEd.s 			page 5


 136              	.LVL7:
 137              		.loc 2 95 10 view .LVU41
 138 001c 7047     		bx	lr
 139              	.LVL8:
 140              	.L8:
  84:Drivers/CMSIS/DSP/Source/TransformFunctions/arm_rfft_fast_init_f32.c **** 
 141              		.loc 2 84 19 view .LVU42
 142 001e 4FF0FF30 		mov	r0, #-1
 143              	.LVL9:
  96:Drivers/CMSIS/DSP/Source/TransformFunctions/arm_rfft_fast_init_f32.c **** }
 144              		.loc 2 96 1 view .LVU43
 145 0022 7047     		bx	lr
 146              	.L10:
 147              		.align	2
 148              	.L9:
 149 0024 00000000 		.word	armBitRevIndexTable32
 150 0028 00000000 		.word	twiddleCoef_32
 151 002c 00000000 		.word	twiddleCoef_rfft_64
 152              		.cfi_endproc
 153              	.LFE197:
 155              		.section	.text.arm_rfft_256_fast_init_f32,"ax",%progbits
 156              		.align	1
 157              		.global	arm_rfft_256_fast_init_f32
 158              		.syntax unified
 159              		.thumb
 160              		.thumb_func
 162              	arm_rfft_256_fast_init_f32:
 163              	.LVL10:
 164              	.LFB199:
  97:Drivers/CMSIS/DSP/Source/TransformFunctions/arm_rfft_fast_init_f32.c **** #endif 
  98:Drivers/CMSIS/DSP/Source/TransformFunctions/arm_rfft_fast_init_f32.c **** 
  99:Drivers/CMSIS/DSP/Source/TransformFunctions/arm_rfft_fast_init_f32.c **** #if !defined(ARM_DSP_CONFIG_TABLES) || defined(ARM_ALL_FFT_TABLES) || (defined(ARM_TABLE_TWIDDLECOE
 100:Drivers/CMSIS/DSP/Source/TransformFunctions/arm_rfft_fast_init_f32.c **** 
 101:Drivers/CMSIS/DSP/Source/TransformFunctions/arm_rfft_fast_init_f32.c **** /**
 102:Drivers/CMSIS/DSP/Source/TransformFunctions/arm_rfft_fast_init_f32.c ****   @brief         Initialization function for the 128pt floating-point real FFT.
 103:Drivers/CMSIS/DSP/Source/TransformFunctions/arm_rfft_fast_init_f32.c ****   @param[in,out] S  points to an arm_rfft_fast_instance_f32 structure
 104:Drivers/CMSIS/DSP/Source/TransformFunctions/arm_rfft_fast_init_f32.c ****   @return        execution status
 105:Drivers/CMSIS/DSP/Source/TransformFunctions/arm_rfft_fast_init_f32.c ****                    - \ref ARM_MATH_SUCCESS        : Operation successful
 106:Drivers/CMSIS/DSP/Source/TransformFunctions/arm_rfft_fast_init_f32.c ****                    - \ref ARM_MATH_ARGUMENT_ERROR : an error is detected
 107:Drivers/CMSIS/DSP/Source/TransformFunctions/arm_rfft_fast_init_f32.c ****  */
 108:Drivers/CMSIS/DSP/Source/TransformFunctions/arm_rfft_fast_init_f32.c **** 
 109:Drivers/CMSIS/DSP/Source/TransformFunctions/arm_rfft_fast_init_f32.c **** arm_status arm_rfft_128_fast_init_f32( arm_rfft_fast_instance_f32 * S ) {
 110:Drivers/CMSIS/DSP/Source/TransformFunctions/arm_rfft_fast_init_f32.c **** 
 111:Drivers/CMSIS/DSP/Source/TransformFunctions/arm_rfft_fast_init_f32.c ****   arm_cfft_instance_f32 * Sint;
 112:Drivers/CMSIS/DSP/Source/TransformFunctions/arm_rfft_fast_init_f32.c **** 
 113:Drivers/CMSIS/DSP/Source/TransformFunctions/arm_rfft_fast_init_f32.c ****   if( !S ) return ARM_MATH_ARGUMENT_ERROR;
 114:Drivers/CMSIS/DSP/Source/TransformFunctions/arm_rfft_fast_init_f32.c **** 
 115:Drivers/CMSIS/DSP/Source/TransformFunctions/arm_rfft_fast_init_f32.c ****   Sint = &(S->Sint);
 116:Drivers/CMSIS/DSP/Source/TransformFunctions/arm_rfft_fast_init_f32.c ****   Sint->fftLen = 64U;
 117:Drivers/CMSIS/DSP/Source/TransformFunctions/arm_rfft_fast_init_f32.c ****   S->fftLenRFFT = 128U;
 118:Drivers/CMSIS/DSP/Source/TransformFunctions/arm_rfft_fast_init_f32.c **** 
 119:Drivers/CMSIS/DSP/Source/TransformFunctions/arm_rfft_fast_init_f32.c ****   Sint->bitRevLength = ARMBITREVINDEXTABLE_64_TABLE_LENGTH;
 120:Drivers/CMSIS/DSP/Source/TransformFunctions/arm_rfft_fast_init_f32.c ****   Sint->pBitRevTable = (uint16_t *)armBitRevIndexTable64;
 121:Drivers/CMSIS/DSP/Source/TransformFunctions/arm_rfft_fast_init_f32.c ****   Sint->pTwiddle     = (float32_t *) twiddleCoef_64;
 122:Drivers/CMSIS/DSP/Source/TransformFunctions/arm_rfft_fast_init_f32.c ****   S->pTwiddleRFFT    = (float32_t *) twiddleCoef_rfft_128;
 123:Drivers/CMSIS/DSP/Source/TransformFunctions/arm_rfft_fast_init_f32.c **** 
 124:Drivers/CMSIS/DSP/Source/TransformFunctions/arm_rfft_fast_init_f32.c ****   return ARM_MATH_SUCCESS;
ARM GAS  C:\Users\JustE\AppData\Local\Temp\ccF78sEd.s 			page 6


 125:Drivers/CMSIS/DSP/Source/TransformFunctions/arm_rfft_fast_init_f32.c **** }
 126:Drivers/CMSIS/DSP/Source/TransformFunctions/arm_rfft_fast_init_f32.c **** #endif 
 127:Drivers/CMSIS/DSP/Source/TransformFunctions/arm_rfft_fast_init_f32.c **** 
 128:Drivers/CMSIS/DSP/Source/TransformFunctions/arm_rfft_fast_init_f32.c **** #if !defined(ARM_DSP_CONFIG_TABLES) || defined(ARM_ALL_FFT_TABLES) || (defined(ARM_TABLE_TWIDDLECOE
 129:Drivers/CMSIS/DSP/Source/TransformFunctions/arm_rfft_fast_init_f32.c **** 
 130:Drivers/CMSIS/DSP/Source/TransformFunctions/arm_rfft_fast_init_f32.c **** /**
 131:Drivers/CMSIS/DSP/Source/TransformFunctions/arm_rfft_fast_init_f32.c ****   @brief         Initialization function for the 256pt floating-point real FFT.
 132:Drivers/CMSIS/DSP/Source/TransformFunctions/arm_rfft_fast_init_f32.c ****   @param[in,out] S  points to an arm_rfft_fast_instance_f32 structure
 133:Drivers/CMSIS/DSP/Source/TransformFunctions/arm_rfft_fast_init_f32.c ****   @return        execution status
 134:Drivers/CMSIS/DSP/Source/TransformFunctions/arm_rfft_fast_init_f32.c ****                    - \ref ARM_MATH_SUCCESS        : Operation successful
 135:Drivers/CMSIS/DSP/Source/TransformFunctions/arm_rfft_fast_init_f32.c ****                    - \ref ARM_MATH_ARGUMENT_ERROR : an error is detected
 136:Drivers/CMSIS/DSP/Source/TransformFunctions/arm_rfft_fast_init_f32.c **** */
 137:Drivers/CMSIS/DSP/Source/TransformFunctions/arm_rfft_fast_init_f32.c **** 
 138:Drivers/CMSIS/DSP/Source/TransformFunctions/arm_rfft_fast_init_f32.c **** arm_status arm_rfft_256_fast_init_f32( arm_rfft_fast_instance_f32 * S ) {
 165              		.loc 2 138 73 is_stmt 1 view -0
 166              		.cfi_startproc
 167              		@ args = 0, pretend = 0, frame = 0
 168              		@ frame_needed = 0, uses_anonymous_args = 0
 169              		@ link register save eliminated.
 139:Drivers/CMSIS/DSP/Source/TransformFunctions/arm_rfft_fast_init_f32.c **** 
 140:Drivers/CMSIS/DSP/Source/TransformFunctions/arm_rfft_fast_init_f32.c ****   arm_cfft_instance_f32 * Sint;
 170              		.loc 2 140 3 view .LVU45
 141:Drivers/CMSIS/DSP/Source/TransformFunctions/arm_rfft_fast_init_f32.c **** 
 142:Drivers/CMSIS/DSP/Source/TransformFunctions/arm_rfft_fast_init_f32.c ****   if( !S ) return ARM_MATH_ARGUMENT_ERROR;
 171              		.loc 2 142 3 view .LVU46
 172              		.loc 2 142 5 is_stmt 0 view .LVU47
 173 0000 70B1     		cbz	r0, .L13
 143:Drivers/CMSIS/DSP/Source/TransformFunctions/arm_rfft_fast_init_f32.c **** 
 144:Drivers/CMSIS/DSP/Source/TransformFunctions/arm_rfft_fast_init_f32.c ****   Sint = &(S->Sint);
 174              		.loc 2 144 3 is_stmt 1 view .LVU48
 175              	.LVL11:
 145:Drivers/CMSIS/DSP/Source/TransformFunctions/arm_rfft_fast_init_f32.c ****   Sint->fftLen = 128U;
 176              		.loc 2 145 3 view .LVU49
 177              		.loc 2 145 16 is_stmt 0 view .LVU50
 178 0002 8022     		movs	r2, #128
 179 0004 0280     		strh	r2, [r0]	@ movhi
 146:Drivers/CMSIS/DSP/Source/TransformFunctions/arm_rfft_fast_init_f32.c ****   S->fftLenRFFT = 256U;
 180              		.loc 2 146 3 is_stmt 1 view .LVU51
 181              		.loc 2 146 17 is_stmt 0 view .LVU52
 182 0006 4FF48072 		mov	r2, #256
 183 000a 0282     		strh	r2, [r0, #16]	@ movhi
 147:Drivers/CMSIS/DSP/Source/TransformFunctions/arm_rfft_fast_init_f32.c **** 
 148:Drivers/CMSIS/DSP/Source/TransformFunctions/arm_rfft_fast_init_f32.c ****   Sint->bitRevLength = ARMBITREVINDEXTABLE_128_TABLE_LENGTH;
 184              		.loc 2 148 3 is_stmt 1 view .LVU53
 185              		.loc 2 148 22 is_stmt 0 view .LVU54
 186 000c D022     		movs	r2, #208
 187 000e 8281     		strh	r2, [r0, #12]	@ movhi
 149:Drivers/CMSIS/DSP/Source/TransformFunctions/arm_rfft_fast_init_f32.c ****   Sint->pBitRevTable = (uint16_t *)armBitRevIndexTable128;
 188              		.loc 2 149 3 is_stmt 1 view .LVU55
 189              		.loc 2 149 22 is_stmt 0 view .LVU56
 190 0010 054A     		ldr	r2, .L14
 191 0012 8260     		str	r2, [r0, #8]
 150:Drivers/CMSIS/DSP/Source/TransformFunctions/arm_rfft_fast_init_f32.c ****   Sint->pTwiddle     = (float32_t *) twiddleCoef_128;
 192              		.loc 2 150 3 is_stmt 1 view .LVU57
 193              		.loc 2 150 22 is_stmt 0 view .LVU58
 194 0014 054A     		ldr	r2, .L14+4
 195 0016 4260     		str	r2, [r0, #4]
ARM GAS  C:\Users\JustE\AppData\Local\Temp\ccF78sEd.s 			page 7


 151:Drivers/CMSIS/DSP/Source/TransformFunctions/arm_rfft_fast_init_f32.c ****   S->pTwiddleRFFT    = (float32_t *) twiddleCoef_rfft_256;
 196              		.loc 2 151 3 is_stmt 1 view .LVU59
 197              		.loc 2 151 22 is_stmt 0 view .LVU60
 198 0018 054A     		ldr	r2, .L14+8
 199 001a 4261     		str	r2, [r0, #20]
 152:Drivers/CMSIS/DSP/Source/TransformFunctions/arm_rfft_fast_init_f32.c **** 
 153:Drivers/CMSIS/DSP/Source/TransformFunctions/arm_rfft_fast_init_f32.c ****   return ARM_MATH_SUCCESS;
 200              		.loc 2 153 3 is_stmt 1 view .LVU61
 201              		.loc 2 153 10 is_stmt 0 view .LVU62
 202 001c 0020     		movs	r0, #0
 203              	.LVL12:
 204              		.loc 2 153 10 view .LVU63
 205 001e 7047     		bx	lr
 206              	.LVL13:
 207              	.L13:
 142:Drivers/CMSIS/DSP/Source/TransformFunctions/arm_rfft_fast_init_f32.c **** 
 208              		.loc 2 142 19 view .LVU64
 209 0020 4FF0FF30 		mov	r0, #-1
 210              	.LVL14:
 154:Drivers/CMSIS/DSP/Source/TransformFunctions/arm_rfft_fast_init_f32.c **** }
 211              		.loc 2 154 1 view .LVU65
 212 0024 7047     		bx	lr
 213              	.L15:
 214 0026 00BF     		.align	2
 215              	.L14:
 216 0028 00000000 		.word	armBitRevIndexTable128
 217 002c 00000000 		.word	twiddleCoef_128
 218 0030 00000000 		.word	twiddleCoef_rfft_256
 219              		.cfi_endproc
 220              	.LFE199:
 222              		.section	.text.arm_rfft_512_fast_init_f32,"ax",%progbits
 223              		.align	1
 224              		.global	arm_rfft_512_fast_init_f32
 225              		.syntax unified
 226              		.thumb
 227              		.thumb_func
 229              	arm_rfft_512_fast_init_f32:
 230              	.LVL15:
 231              	.LFB200:
 155:Drivers/CMSIS/DSP/Source/TransformFunctions/arm_rfft_fast_init_f32.c **** #endif 
 156:Drivers/CMSIS/DSP/Source/TransformFunctions/arm_rfft_fast_init_f32.c **** 
 157:Drivers/CMSIS/DSP/Source/TransformFunctions/arm_rfft_fast_init_f32.c **** #if !defined(ARM_DSP_CONFIG_TABLES) || defined(ARM_ALL_FFT_TABLES) || (defined(ARM_TABLE_TWIDDLECOE
 158:Drivers/CMSIS/DSP/Source/TransformFunctions/arm_rfft_fast_init_f32.c **** 
 159:Drivers/CMSIS/DSP/Source/TransformFunctions/arm_rfft_fast_init_f32.c **** /**
 160:Drivers/CMSIS/DSP/Source/TransformFunctions/arm_rfft_fast_init_f32.c ****   @brief         Initialization function for the 512pt floating-point real FFT.
 161:Drivers/CMSIS/DSP/Source/TransformFunctions/arm_rfft_fast_init_f32.c ****   @param[in,out] S  points to an arm_rfft_fast_instance_f32 structure
 162:Drivers/CMSIS/DSP/Source/TransformFunctions/arm_rfft_fast_init_f32.c ****   @return        execution status
 163:Drivers/CMSIS/DSP/Source/TransformFunctions/arm_rfft_fast_init_f32.c ****                    - \ref ARM_MATH_SUCCESS        : Operation successful
 164:Drivers/CMSIS/DSP/Source/TransformFunctions/arm_rfft_fast_init_f32.c ****                    - \ref ARM_MATH_ARGUMENT_ERROR : an error is detected
 165:Drivers/CMSIS/DSP/Source/TransformFunctions/arm_rfft_fast_init_f32.c ****  */
 166:Drivers/CMSIS/DSP/Source/TransformFunctions/arm_rfft_fast_init_f32.c **** 
 167:Drivers/CMSIS/DSP/Source/TransformFunctions/arm_rfft_fast_init_f32.c **** arm_status arm_rfft_512_fast_init_f32( arm_rfft_fast_instance_f32 * S ) {
 232              		.loc 2 167 73 is_stmt 1 view -0
 233              		.cfi_startproc
 234              		@ args = 0, pretend = 0, frame = 0
 235              		@ frame_needed = 0, uses_anonymous_args = 0
 236              		@ link register save eliminated.
ARM GAS  C:\Users\JustE\AppData\Local\Temp\ccF78sEd.s 			page 8


 168:Drivers/CMSIS/DSP/Source/TransformFunctions/arm_rfft_fast_init_f32.c **** 
 169:Drivers/CMSIS/DSP/Source/TransformFunctions/arm_rfft_fast_init_f32.c ****   arm_cfft_instance_f32 * Sint;
 237              		.loc 2 169 3 view .LVU67
 170:Drivers/CMSIS/DSP/Source/TransformFunctions/arm_rfft_fast_init_f32.c **** 
 171:Drivers/CMSIS/DSP/Source/TransformFunctions/arm_rfft_fast_init_f32.c ****   if( !S ) return ARM_MATH_ARGUMENT_ERROR;
 238              		.loc 2 171 3 view .LVU68
 239              		.loc 2 171 5 is_stmt 0 view .LVU69
 240 0000 80B1     		cbz	r0, .L18
 172:Drivers/CMSIS/DSP/Source/TransformFunctions/arm_rfft_fast_init_f32.c **** 
 173:Drivers/CMSIS/DSP/Source/TransformFunctions/arm_rfft_fast_init_f32.c ****   Sint = &(S->Sint);
 241              		.loc 2 173 3 is_stmt 1 view .LVU70
 242              	.LVL16:
 174:Drivers/CMSIS/DSP/Source/TransformFunctions/arm_rfft_fast_init_f32.c ****   Sint->fftLen = 256U;
 243              		.loc 2 174 3 view .LVU71
 244              		.loc 2 174 16 is_stmt 0 view .LVU72
 245 0002 4FF48072 		mov	r2, #256
 246 0006 0280     		strh	r2, [r0]	@ movhi
 175:Drivers/CMSIS/DSP/Source/TransformFunctions/arm_rfft_fast_init_f32.c ****   S->fftLenRFFT = 512U;
 247              		.loc 2 175 3 is_stmt 1 view .LVU73
 248              		.loc 2 175 17 is_stmt 0 view .LVU74
 249 0008 4FF40072 		mov	r2, #512
 250 000c 0282     		strh	r2, [r0, #16]	@ movhi
 176:Drivers/CMSIS/DSP/Source/TransformFunctions/arm_rfft_fast_init_f32.c **** 
 177:Drivers/CMSIS/DSP/Source/TransformFunctions/arm_rfft_fast_init_f32.c ****   Sint->bitRevLength = ARMBITREVINDEXTABLE_256_TABLE_LENGTH;
 251              		.loc 2 177 3 is_stmt 1 view .LVU75
 252              		.loc 2 177 22 is_stmt 0 view .LVU76
 253 000e 4FF4DC72 		mov	r2, #440
 254 0012 8281     		strh	r2, [r0, #12]	@ movhi
 178:Drivers/CMSIS/DSP/Source/TransformFunctions/arm_rfft_fast_init_f32.c ****   Sint->pBitRevTable = (uint16_t *)armBitRevIndexTable256;
 255              		.loc 2 178 3 is_stmt 1 view .LVU77
 256              		.loc 2 178 22 is_stmt 0 view .LVU78
 257 0014 054A     		ldr	r2, .L19
 258 0016 8260     		str	r2, [r0, #8]
 179:Drivers/CMSIS/DSP/Source/TransformFunctions/arm_rfft_fast_init_f32.c ****   Sint->pTwiddle     = (float32_t *) twiddleCoef_256;
 259              		.loc 2 179 3 is_stmt 1 view .LVU79
 260              		.loc 2 179 22 is_stmt 0 view .LVU80
 261 0018 054A     		ldr	r2, .L19+4
 262 001a 4260     		str	r2, [r0, #4]
 180:Drivers/CMSIS/DSP/Source/TransformFunctions/arm_rfft_fast_init_f32.c ****   S->pTwiddleRFFT    = (float32_t *) twiddleCoef_rfft_512;
 263              		.loc 2 180 3 is_stmt 1 view .LVU81
 264              		.loc 2 180 22 is_stmt 0 view .LVU82
 265 001c 054A     		ldr	r2, .L19+8
 266 001e 4261     		str	r2, [r0, #20]
 181:Drivers/CMSIS/DSP/Source/TransformFunctions/arm_rfft_fast_init_f32.c **** 
 182:Drivers/CMSIS/DSP/Source/TransformFunctions/arm_rfft_fast_init_f32.c ****   return ARM_MATH_SUCCESS;
 267              		.loc 2 182 3 is_stmt 1 view .LVU83
 268              		.loc 2 182 10 is_stmt 0 view .LVU84
 269 0020 0020     		movs	r0, #0
 270              	.LVL17:
 271              		.loc 2 182 10 view .LVU85
 272 0022 7047     		bx	lr
 273              	.LVL18:
 274              	.L18:
 171:Drivers/CMSIS/DSP/Source/TransformFunctions/arm_rfft_fast_init_f32.c **** 
 275              		.loc 2 171 19 view .LVU86
 276 0024 4FF0FF30 		mov	r0, #-1
 277              	.LVL19:
ARM GAS  C:\Users\JustE\AppData\Local\Temp\ccF78sEd.s 			page 9


 183:Drivers/CMSIS/DSP/Source/TransformFunctions/arm_rfft_fast_init_f32.c **** }
 278              		.loc 2 183 1 view .LVU87
 279 0028 7047     		bx	lr
 280              	.L20:
 281 002a 00BF     		.align	2
 282              	.L19:
 283 002c 00000000 		.word	armBitRevIndexTable256
 284 0030 00000000 		.word	twiddleCoef_256
 285 0034 00000000 		.word	twiddleCoef_rfft_512
 286              		.cfi_endproc
 287              	.LFE200:
 289              		.section	.text.arm_rfft_1024_fast_init_f32,"ax",%progbits
 290              		.align	1
 291              		.global	arm_rfft_1024_fast_init_f32
 292              		.syntax unified
 293              		.thumb
 294              		.thumb_func
 296              	arm_rfft_1024_fast_init_f32:
 297              	.LVL20:
 298              	.LFB201:
 184:Drivers/CMSIS/DSP/Source/TransformFunctions/arm_rfft_fast_init_f32.c **** #endif 
 185:Drivers/CMSIS/DSP/Source/TransformFunctions/arm_rfft_fast_init_f32.c **** 
 186:Drivers/CMSIS/DSP/Source/TransformFunctions/arm_rfft_fast_init_f32.c **** #if !defined(ARM_DSP_CONFIG_TABLES) || defined(ARM_ALL_FFT_TABLES) || (defined(ARM_TABLE_TWIDDLECOE
 187:Drivers/CMSIS/DSP/Source/TransformFunctions/arm_rfft_fast_init_f32.c **** /**
 188:Drivers/CMSIS/DSP/Source/TransformFunctions/arm_rfft_fast_init_f32.c ****   @brief         Initialization function for the 1024pt floating-point real FFT.
 189:Drivers/CMSIS/DSP/Source/TransformFunctions/arm_rfft_fast_init_f32.c ****   @param[in,out] S  points to an arm_rfft_fast_instance_f32 structure
 190:Drivers/CMSIS/DSP/Source/TransformFunctions/arm_rfft_fast_init_f32.c ****   @return        execution status
 191:Drivers/CMSIS/DSP/Source/TransformFunctions/arm_rfft_fast_init_f32.c ****                    - \ref ARM_MATH_SUCCESS        : Operation successful
 192:Drivers/CMSIS/DSP/Source/TransformFunctions/arm_rfft_fast_init_f32.c ****                    - \ref ARM_MATH_ARGUMENT_ERROR : an error is detected
 193:Drivers/CMSIS/DSP/Source/TransformFunctions/arm_rfft_fast_init_f32.c ****  */
 194:Drivers/CMSIS/DSP/Source/TransformFunctions/arm_rfft_fast_init_f32.c **** 
 195:Drivers/CMSIS/DSP/Source/TransformFunctions/arm_rfft_fast_init_f32.c **** arm_status arm_rfft_1024_fast_init_f32( arm_rfft_fast_instance_f32 * S ) {
 299              		.loc 2 195 74 is_stmt 1 view -0
 300              		.cfi_startproc
 301              		@ args = 0, pretend = 0, frame = 0
 302              		@ frame_needed = 0, uses_anonymous_args = 0
 303              		@ link register save eliminated.
 196:Drivers/CMSIS/DSP/Source/TransformFunctions/arm_rfft_fast_init_f32.c **** 
 197:Drivers/CMSIS/DSP/Source/TransformFunctions/arm_rfft_fast_init_f32.c ****   arm_cfft_instance_f32 * Sint;
 304              		.loc 2 197 3 view .LVU89
 198:Drivers/CMSIS/DSP/Source/TransformFunctions/arm_rfft_fast_init_f32.c **** 
 199:Drivers/CMSIS/DSP/Source/TransformFunctions/arm_rfft_fast_init_f32.c ****   if( !S ) return ARM_MATH_ARGUMENT_ERROR;
 305              		.loc 2 199 3 view .LVU90
 306              		.loc 2 199 5 is_stmt 0 view .LVU91
 307 0000 80B1     		cbz	r0, .L23
 200:Drivers/CMSIS/DSP/Source/TransformFunctions/arm_rfft_fast_init_f32.c **** 
 201:Drivers/CMSIS/DSP/Source/TransformFunctions/arm_rfft_fast_init_f32.c ****   Sint = &(S->Sint);
 308              		.loc 2 201 3 is_stmt 1 view .LVU92
 309              	.LVL21:
 202:Drivers/CMSIS/DSP/Source/TransformFunctions/arm_rfft_fast_init_f32.c ****   Sint->fftLen = 512U;
 310              		.loc 2 202 3 view .LVU93
 311              		.loc 2 202 16 is_stmt 0 view .LVU94
 312 0002 4FF40072 		mov	r2, #512
 313 0006 0280     		strh	r2, [r0]	@ movhi
 203:Drivers/CMSIS/DSP/Source/TransformFunctions/arm_rfft_fast_init_f32.c ****   S->fftLenRFFT = 1024U;
 314              		.loc 2 203 3 is_stmt 1 view .LVU95
 315              		.loc 2 203 17 is_stmt 0 view .LVU96
ARM GAS  C:\Users\JustE\AppData\Local\Temp\ccF78sEd.s 			page 10


 316 0008 4FF48062 		mov	r2, #1024
 317 000c 0282     		strh	r2, [r0, #16]	@ movhi
 204:Drivers/CMSIS/DSP/Source/TransformFunctions/arm_rfft_fast_init_f32.c **** 
 205:Drivers/CMSIS/DSP/Source/TransformFunctions/arm_rfft_fast_init_f32.c ****   Sint->bitRevLength = ARMBITREVINDEXTABLE_512_TABLE_LENGTH;
 318              		.loc 2 205 3 is_stmt 1 view .LVU97
 319              		.loc 2 205 22 is_stmt 0 view .LVU98
 320 000e 4FF4E072 		mov	r2, #448
 321 0012 8281     		strh	r2, [r0, #12]	@ movhi
 206:Drivers/CMSIS/DSP/Source/TransformFunctions/arm_rfft_fast_init_f32.c ****   Sint->pBitRevTable = (uint16_t *)armBitRevIndexTable512;
 322              		.loc 2 206 3 is_stmt 1 view .LVU99
 323              		.loc 2 206 22 is_stmt 0 view .LVU100
 324 0014 054A     		ldr	r2, .L24
 325 0016 8260     		str	r2, [r0, #8]
 207:Drivers/CMSIS/DSP/Source/TransformFunctions/arm_rfft_fast_init_f32.c ****   Sint->pTwiddle     = (float32_t *) twiddleCoef_512;
 326              		.loc 2 207 3 is_stmt 1 view .LVU101
 327              		.loc 2 207 22 is_stmt 0 view .LVU102
 328 0018 054A     		ldr	r2, .L24+4
 329 001a 4260     		str	r2, [r0, #4]
 208:Drivers/CMSIS/DSP/Source/TransformFunctions/arm_rfft_fast_init_f32.c ****   S->pTwiddleRFFT    = (float32_t *) twiddleCoef_rfft_1024;
 330              		.loc 2 208 3 is_stmt 1 view .LVU103
 331              		.loc 2 208 22 is_stmt 0 view .LVU104
 332 001c 054A     		ldr	r2, .L24+8
 333 001e 4261     		str	r2, [r0, #20]
 209:Drivers/CMSIS/DSP/Source/TransformFunctions/arm_rfft_fast_init_f32.c **** 
 210:Drivers/CMSIS/DSP/Source/TransformFunctions/arm_rfft_fast_init_f32.c ****   return ARM_MATH_SUCCESS;
 334              		.loc 2 210 3 is_stmt 1 view .LVU105
 335              		.loc 2 210 10 is_stmt 0 view .LVU106
 336 0020 0020     		movs	r0, #0
 337              	.LVL22:
 338              		.loc 2 210 10 view .LVU107
 339 0022 7047     		bx	lr
 340              	.LVL23:
 341              	.L23:
 199:Drivers/CMSIS/DSP/Source/TransformFunctions/arm_rfft_fast_init_f32.c **** 
 342              		.loc 2 199 19 view .LVU108
 343 0024 4FF0FF30 		mov	r0, #-1
 344              	.LVL24:
 211:Drivers/CMSIS/DSP/Source/TransformFunctions/arm_rfft_fast_init_f32.c **** }
 345              		.loc 2 211 1 view .LVU109
 346 0028 7047     		bx	lr
 347              	.L25:
 348 002a 00BF     		.align	2
 349              	.L24:
 350 002c 00000000 		.word	armBitRevIndexTable512
 351 0030 00000000 		.word	twiddleCoef_512
 352 0034 00000000 		.word	twiddleCoef_rfft_1024
 353              		.cfi_endproc
 354              	.LFE201:
 356              		.section	.text.arm_rfft_2048_fast_init_f32,"ax",%progbits
 357              		.align	1
 358              		.global	arm_rfft_2048_fast_init_f32
 359              		.syntax unified
 360              		.thumb
 361              		.thumb_func
 363              	arm_rfft_2048_fast_init_f32:
 364              	.LVL25:
 365              	.LFB202:
ARM GAS  C:\Users\JustE\AppData\Local\Temp\ccF78sEd.s 			page 11


 212:Drivers/CMSIS/DSP/Source/TransformFunctions/arm_rfft_fast_init_f32.c **** #endif
 213:Drivers/CMSIS/DSP/Source/TransformFunctions/arm_rfft_fast_init_f32.c **** 
 214:Drivers/CMSIS/DSP/Source/TransformFunctions/arm_rfft_fast_init_f32.c **** #if !defined(ARM_DSP_CONFIG_TABLES) || defined(ARM_ALL_FFT_TABLES) || (defined(ARM_TABLE_TWIDDLECOE
 215:Drivers/CMSIS/DSP/Source/TransformFunctions/arm_rfft_fast_init_f32.c **** /**
 216:Drivers/CMSIS/DSP/Source/TransformFunctions/arm_rfft_fast_init_f32.c ****   @brief         Initialization function for the 2048pt floating-point real FFT.
 217:Drivers/CMSIS/DSP/Source/TransformFunctions/arm_rfft_fast_init_f32.c ****   @param[in,out] S  points to an arm_rfft_fast_instance_f32 structure
 218:Drivers/CMSIS/DSP/Source/TransformFunctions/arm_rfft_fast_init_f32.c ****   @return        execution status
 219:Drivers/CMSIS/DSP/Source/TransformFunctions/arm_rfft_fast_init_f32.c ****                    - \ref ARM_MATH_SUCCESS        : Operation successful
 220:Drivers/CMSIS/DSP/Source/TransformFunctions/arm_rfft_fast_init_f32.c ****                    - \ref ARM_MATH_ARGUMENT_ERROR : an error is detected
 221:Drivers/CMSIS/DSP/Source/TransformFunctions/arm_rfft_fast_init_f32.c ****  */
 222:Drivers/CMSIS/DSP/Source/TransformFunctions/arm_rfft_fast_init_f32.c **** arm_status arm_rfft_2048_fast_init_f32( arm_rfft_fast_instance_f32 * S ) {
 366              		.loc 2 222 74 is_stmt 1 view -0
 367              		.cfi_startproc
 368              		@ args = 0, pretend = 0, frame = 0
 369              		@ frame_needed = 0, uses_anonymous_args = 0
 370              		@ link register save eliminated.
 223:Drivers/CMSIS/DSP/Source/TransformFunctions/arm_rfft_fast_init_f32.c **** 
 224:Drivers/CMSIS/DSP/Source/TransformFunctions/arm_rfft_fast_init_f32.c ****   arm_cfft_instance_f32 * Sint;
 371              		.loc 2 224 3 view .LVU111
 225:Drivers/CMSIS/DSP/Source/TransformFunctions/arm_rfft_fast_init_f32.c **** 
 226:Drivers/CMSIS/DSP/Source/TransformFunctions/arm_rfft_fast_init_f32.c ****   if( !S ) return ARM_MATH_ARGUMENT_ERROR;
 372              		.loc 2 226 3 view .LVU112
 373              		.loc 2 226 5 is_stmt 0 view .LVU113
 374 0000 80B1     		cbz	r0, .L28
 227:Drivers/CMSIS/DSP/Source/TransformFunctions/arm_rfft_fast_init_f32.c **** 
 228:Drivers/CMSIS/DSP/Source/TransformFunctions/arm_rfft_fast_init_f32.c ****   Sint = &(S->Sint);
 375              		.loc 2 228 3 is_stmt 1 view .LVU114
 376              	.LVL26:
 229:Drivers/CMSIS/DSP/Source/TransformFunctions/arm_rfft_fast_init_f32.c ****   Sint->fftLen = 1024U;
 377              		.loc 2 229 3 view .LVU115
 378              		.loc 2 229 16 is_stmt 0 view .LVU116
 379 0002 4FF48062 		mov	r2, #1024
 380 0006 0280     		strh	r2, [r0]	@ movhi
 230:Drivers/CMSIS/DSP/Source/TransformFunctions/arm_rfft_fast_init_f32.c ****   S->fftLenRFFT = 2048U;
 381              		.loc 2 230 3 is_stmt 1 view .LVU117
 382              		.loc 2 230 17 is_stmt 0 view .LVU118
 383 0008 4FF40062 		mov	r2, #2048
 384 000c 0282     		strh	r2, [r0, #16]	@ movhi
 231:Drivers/CMSIS/DSP/Source/TransformFunctions/arm_rfft_fast_init_f32.c **** 
 232:Drivers/CMSIS/DSP/Source/TransformFunctions/arm_rfft_fast_init_f32.c ****   Sint->bitRevLength = ARMBITREVINDEXTABLE_1024_TABLE_LENGTH;
 385              		.loc 2 232 3 is_stmt 1 view .LVU119
 386              		.loc 2 232 22 is_stmt 0 view .LVU120
 387 000e 4FF4E162 		mov	r2, #1800
 388 0012 8281     		strh	r2, [r0, #12]	@ movhi
 233:Drivers/CMSIS/DSP/Source/TransformFunctions/arm_rfft_fast_init_f32.c ****   Sint->pBitRevTable = (uint16_t *)armBitRevIndexTable1024;
 389              		.loc 2 233 3 is_stmt 1 view .LVU121
 390              		.loc 2 233 22 is_stmt 0 view .LVU122
 391 0014 054A     		ldr	r2, .L29
 392 0016 8260     		str	r2, [r0, #8]
 234:Drivers/CMSIS/DSP/Source/TransformFunctions/arm_rfft_fast_init_f32.c ****   Sint->pTwiddle     = (float32_t *) twiddleCoef_1024;
 393              		.loc 2 234 3 is_stmt 1 view .LVU123
 394              		.loc 2 234 22 is_stmt 0 view .LVU124
 395 0018 054A     		ldr	r2, .L29+4
 396 001a 4260     		str	r2, [r0, #4]
 235:Drivers/CMSIS/DSP/Source/TransformFunctions/arm_rfft_fast_init_f32.c ****   S->pTwiddleRFFT    = (float32_t *) twiddleCoef_rfft_2048;
 397              		.loc 2 235 3 is_stmt 1 view .LVU125
 398              		.loc 2 235 22 is_stmt 0 view .LVU126
ARM GAS  C:\Users\JustE\AppData\Local\Temp\ccF78sEd.s 			page 12


 399 001c 054A     		ldr	r2, .L29+8
 400 001e 4261     		str	r2, [r0, #20]
 236:Drivers/CMSIS/DSP/Source/TransformFunctions/arm_rfft_fast_init_f32.c **** 
 237:Drivers/CMSIS/DSP/Source/TransformFunctions/arm_rfft_fast_init_f32.c ****   return ARM_MATH_SUCCESS;
 401              		.loc 2 237 3 is_stmt 1 view .LVU127
 402              		.loc 2 237 10 is_stmt 0 view .LVU128
 403 0020 0020     		movs	r0, #0
 404              	.LVL27:
 405              		.loc 2 237 10 view .LVU129
 406 0022 7047     		bx	lr
 407              	.LVL28:
 408              	.L28:
 226:Drivers/CMSIS/DSP/Source/TransformFunctions/arm_rfft_fast_init_f32.c **** 
 409              		.loc 2 226 19 view .LVU130
 410 0024 4FF0FF30 		mov	r0, #-1
 411              	.LVL29:
 238:Drivers/CMSIS/DSP/Source/TransformFunctions/arm_rfft_fast_init_f32.c **** }
 412              		.loc 2 238 1 view .LVU131
 413 0028 7047     		bx	lr
 414              	.L30:
 415 002a 00BF     		.align	2
 416              	.L29:
 417 002c 00000000 		.word	armBitRevIndexTable1024
 418 0030 00000000 		.word	twiddleCoef_1024
 419 0034 00000000 		.word	twiddleCoef_rfft_2048
 420              		.cfi_endproc
 421              	.LFE202:
 423              		.section	.text.arm_rfft_4096_fast_init_f32,"ax",%progbits
 424              		.align	1
 425              		.global	arm_rfft_4096_fast_init_f32
 426              		.syntax unified
 427              		.thumb
 428              		.thumb_func
 430              	arm_rfft_4096_fast_init_f32:
 431              	.LVL30:
 432              	.LFB203:
 239:Drivers/CMSIS/DSP/Source/TransformFunctions/arm_rfft_fast_init_f32.c **** #endif
 240:Drivers/CMSIS/DSP/Source/TransformFunctions/arm_rfft_fast_init_f32.c **** 
 241:Drivers/CMSIS/DSP/Source/TransformFunctions/arm_rfft_fast_init_f32.c **** #if !defined(ARM_DSP_CONFIG_TABLES) || defined(ARM_ALL_FFT_TABLES) || (defined(ARM_TABLE_TWIDDLECOE
 242:Drivers/CMSIS/DSP/Source/TransformFunctions/arm_rfft_fast_init_f32.c **** /**
 243:Drivers/CMSIS/DSP/Source/TransformFunctions/arm_rfft_fast_init_f32.c **** * @brief         Initialization function for the 4096pt floating-point real FFT.
 244:Drivers/CMSIS/DSP/Source/TransformFunctions/arm_rfft_fast_init_f32.c **** * @param[in,out] S  points to an arm_rfft_fast_instance_f32 structure
 245:Drivers/CMSIS/DSP/Source/TransformFunctions/arm_rfft_fast_init_f32.c ****   @return        execution status
 246:Drivers/CMSIS/DSP/Source/TransformFunctions/arm_rfft_fast_init_f32.c ****                    - \ref ARM_MATH_SUCCESS        : Operation successful
 247:Drivers/CMSIS/DSP/Source/TransformFunctions/arm_rfft_fast_init_f32.c ****                    - \ref ARM_MATH_ARGUMENT_ERROR : an error is detected
 248:Drivers/CMSIS/DSP/Source/TransformFunctions/arm_rfft_fast_init_f32.c ****  */
 249:Drivers/CMSIS/DSP/Source/TransformFunctions/arm_rfft_fast_init_f32.c **** 
 250:Drivers/CMSIS/DSP/Source/TransformFunctions/arm_rfft_fast_init_f32.c **** arm_status arm_rfft_4096_fast_init_f32( arm_rfft_fast_instance_f32 * S ) {
 433              		.loc 2 250 74 is_stmt 1 view -0
 434              		.cfi_startproc
 435              		@ args = 0, pretend = 0, frame = 0
 436              		@ frame_needed = 0, uses_anonymous_args = 0
 437              		@ link register save eliminated.
 251:Drivers/CMSIS/DSP/Source/TransformFunctions/arm_rfft_fast_init_f32.c **** 
 252:Drivers/CMSIS/DSP/Source/TransformFunctions/arm_rfft_fast_init_f32.c ****   arm_cfft_instance_f32 * Sint;
 438              		.loc 2 252 3 view .LVU133
 253:Drivers/CMSIS/DSP/Source/TransformFunctions/arm_rfft_fast_init_f32.c **** 
ARM GAS  C:\Users\JustE\AppData\Local\Temp\ccF78sEd.s 			page 13


 254:Drivers/CMSIS/DSP/Source/TransformFunctions/arm_rfft_fast_init_f32.c ****   if( !S ) return ARM_MATH_ARGUMENT_ERROR;
 439              		.loc 2 254 3 view .LVU134
 440              		.loc 2 254 5 is_stmt 0 view .LVU135
 441 0000 80B1     		cbz	r0, .L33
 255:Drivers/CMSIS/DSP/Source/TransformFunctions/arm_rfft_fast_init_f32.c **** 
 256:Drivers/CMSIS/DSP/Source/TransformFunctions/arm_rfft_fast_init_f32.c ****   Sint = &(S->Sint);
 442              		.loc 2 256 3 is_stmt 1 view .LVU136
 443              	.LVL31:
 257:Drivers/CMSIS/DSP/Source/TransformFunctions/arm_rfft_fast_init_f32.c ****   Sint->fftLen = 2048U;
 444              		.loc 2 257 3 view .LVU137
 445              		.loc 2 257 16 is_stmt 0 view .LVU138
 446 0002 4FF40062 		mov	r2, #2048
 447 0006 0280     		strh	r2, [r0]	@ movhi
 258:Drivers/CMSIS/DSP/Source/TransformFunctions/arm_rfft_fast_init_f32.c ****   S->fftLenRFFT = 4096U;
 448              		.loc 2 258 3 is_stmt 1 view .LVU139
 449              		.loc 2 258 17 is_stmt 0 view .LVU140
 450 0008 4FF48052 		mov	r2, #4096
 451 000c 0282     		strh	r2, [r0, #16]	@ movhi
 259:Drivers/CMSIS/DSP/Source/TransformFunctions/arm_rfft_fast_init_f32.c **** 
 260:Drivers/CMSIS/DSP/Source/TransformFunctions/arm_rfft_fast_init_f32.c ****   Sint->bitRevLength = ARMBITREVINDEXTABLE_2048_TABLE_LENGTH;
 452              		.loc 2 260 3 is_stmt 1 view .LVU141
 453              		.loc 2 260 22 is_stmt 0 view .LVU142
 454 000e 4FF46E62 		mov	r2, #3808
 455 0012 8281     		strh	r2, [r0, #12]	@ movhi
 261:Drivers/CMSIS/DSP/Source/TransformFunctions/arm_rfft_fast_init_f32.c ****   Sint->pBitRevTable = (uint16_t *)armBitRevIndexTable2048;
 456              		.loc 2 261 3 is_stmt 1 view .LVU143
 457              		.loc 2 261 22 is_stmt 0 view .LVU144
 458 0014 054A     		ldr	r2, .L34
 459 0016 8260     		str	r2, [r0, #8]
 262:Drivers/CMSIS/DSP/Source/TransformFunctions/arm_rfft_fast_init_f32.c ****   Sint->pTwiddle     = (float32_t *) twiddleCoef_2048;
 460              		.loc 2 262 3 is_stmt 1 view .LVU145
 461              		.loc 2 262 22 is_stmt 0 view .LVU146
 462 0018 054A     		ldr	r2, .L34+4
 463 001a 4260     		str	r2, [r0, #4]
 263:Drivers/CMSIS/DSP/Source/TransformFunctions/arm_rfft_fast_init_f32.c ****   S->pTwiddleRFFT    = (float32_t *) twiddleCoef_rfft_4096;
 464              		.loc 2 263 3 is_stmt 1 view .LVU147
 465              		.loc 2 263 22 is_stmt 0 view .LVU148
 466 001c 054A     		ldr	r2, .L34+8
 467 001e 4261     		str	r2, [r0, #20]
 264:Drivers/CMSIS/DSP/Source/TransformFunctions/arm_rfft_fast_init_f32.c **** 
 265:Drivers/CMSIS/DSP/Source/TransformFunctions/arm_rfft_fast_init_f32.c ****   return ARM_MATH_SUCCESS;
 468              		.loc 2 265 3 is_stmt 1 view .LVU149
 469              		.loc 2 265 10 is_stmt 0 view .LVU150
 470 0020 0020     		movs	r0, #0
 471              	.LVL32:
 472              		.loc 2 265 10 view .LVU151
 473 0022 7047     		bx	lr
 474              	.LVL33:
 475              	.L33:
 254:Drivers/CMSIS/DSP/Source/TransformFunctions/arm_rfft_fast_init_f32.c **** 
 476              		.loc 2 254 19 view .LVU152
 477 0024 4FF0FF30 		mov	r0, #-1
 478              	.LVL34:
 266:Drivers/CMSIS/DSP/Source/TransformFunctions/arm_rfft_fast_init_f32.c **** }
 479              		.loc 2 266 1 view .LVU153
 480 0028 7047     		bx	lr
 481              	.L35:
ARM GAS  C:\Users\JustE\AppData\Local\Temp\ccF78sEd.s 			page 14


 482 002a 00BF     		.align	2
 483              	.L34:
 484 002c 00000000 		.word	armBitRevIndexTable2048
 485 0030 00000000 		.word	twiddleCoef_2048
 486 0034 00000000 		.word	twiddleCoef_rfft_4096
 487              		.cfi_endproc
 488              	.LFE203:
 490              		.section	.text.arm_bitreversal_f32,"ax",%progbits
 491              		.align	1
 492              		.global	arm_bitreversal_f32
 493              		.syntax unified
 494              		.thumb
 495              		.thumb_func
 497              	arm_bitreversal_f32:
 498              	.LVL35:
 499              	.LFB145:
 500              		.file 3 "Drivers/CMSIS/DSP/Source/TransformFunctions/arm_bitreversal.c"
   1:Drivers/CMSIS/DSP/Source/TransformFunctions/arm_bitreversal.c **** /* ----------------------------------------------------------------------
   2:Drivers/CMSIS/DSP/Source/TransformFunctions/arm_bitreversal.c ****  * Project:      CMSIS DSP Library
   3:Drivers/CMSIS/DSP/Source/TransformFunctions/arm_bitreversal.c ****  * Title:        arm_bitreversal.c
   4:Drivers/CMSIS/DSP/Source/TransformFunctions/arm_bitreversal.c ****  * Description:  Bitreversal functions
   5:Drivers/CMSIS/DSP/Source/TransformFunctions/arm_bitreversal.c ****  *
   6:Drivers/CMSIS/DSP/Source/TransformFunctions/arm_bitreversal.c ****  * $Date:        18. March 2019
   7:Drivers/CMSIS/DSP/Source/TransformFunctions/arm_bitreversal.c ****  * $Revision:    V1.6.0
   8:Drivers/CMSIS/DSP/Source/TransformFunctions/arm_bitreversal.c ****  *
   9:Drivers/CMSIS/DSP/Source/TransformFunctions/arm_bitreversal.c ****  * Target Processor: Cortex-M cores
  10:Drivers/CMSIS/DSP/Source/TransformFunctions/arm_bitreversal.c ****  * -------------------------------------------------------------------- */
  11:Drivers/CMSIS/DSP/Source/TransformFunctions/arm_bitreversal.c **** /*
  12:Drivers/CMSIS/DSP/Source/TransformFunctions/arm_bitreversal.c ****  * Copyright (C) 2010-2019 ARM Limited or its affiliates. All rights reserved.
  13:Drivers/CMSIS/DSP/Source/TransformFunctions/arm_bitreversal.c ****  *
  14:Drivers/CMSIS/DSP/Source/TransformFunctions/arm_bitreversal.c ****  * SPDX-License-Identifier: Apache-2.0
  15:Drivers/CMSIS/DSP/Source/TransformFunctions/arm_bitreversal.c ****  *
  16:Drivers/CMSIS/DSP/Source/TransformFunctions/arm_bitreversal.c ****  * Licensed under the Apache License, Version 2.0 (the License); you may
  17:Drivers/CMSIS/DSP/Source/TransformFunctions/arm_bitreversal.c ****  * not use this file except in compliance with the License.
  18:Drivers/CMSIS/DSP/Source/TransformFunctions/arm_bitreversal.c ****  * You may obtain a copy of the License at
  19:Drivers/CMSIS/DSP/Source/TransformFunctions/arm_bitreversal.c ****  *
  20:Drivers/CMSIS/DSP/Source/TransformFunctions/arm_bitreversal.c ****  * www.apache.org/licenses/LICENSE-2.0
  21:Drivers/CMSIS/DSP/Source/TransformFunctions/arm_bitreversal.c ****  *
  22:Drivers/CMSIS/DSP/Source/TransformFunctions/arm_bitreversal.c ****  * Unless required by applicable law or agreed to in writing, software
  23:Drivers/CMSIS/DSP/Source/TransformFunctions/arm_bitreversal.c ****  * distributed under the License is distributed on an AS IS BASIS, WITHOUT
  24:Drivers/CMSIS/DSP/Source/TransformFunctions/arm_bitreversal.c ****  * WARRANTIES OR CONDITIONS OF ANY KIND, either express or implied.
  25:Drivers/CMSIS/DSP/Source/TransformFunctions/arm_bitreversal.c ****  * See the License for the specific language governing permissions and
  26:Drivers/CMSIS/DSP/Source/TransformFunctions/arm_bitreversal.c ****  * limitations under the License.
  27:Drivers/CMSIS/DSP/Source/TransformFunctions/arm_bitreversal.c ****  */
  28:Drivers/CMSIS/DSP/Source/TransformFunctions/arm_bitreversal.c **** 
  29:Drivers/CMSIS/DSP/Source/TransformFunctions/arm_bitreversal.c **** #include "arm_math.h"
  30:Drivers/CMSIS/DSP/Source/TransformFunctions/arm_bitreversal.c **** #include "arm_common_tables.h"
  31:Drivers/CMSIS/DSP/Source/TransformFunctions/arm_bitreversal.c **** 
  32:Drivers/CMSIS/DSP/Source/TransformFunctions/arm_bitreversal.c **** /**
  33:Drivers/CMSIS/DSP/Source/TransformFunctions/arm_bitreversal.c ****   @brief         In-place floating-point bit reversal function.
  34:Drivers/CMSIS/DSP/Source/TransformFunctions/arm_bitreversal.c ****   @param[in,out] pSrc         points to in-place floating-point data buffer
  35:Drivers/CMSIS/DSP/Source/TransformFunctions/arm_bitreversal.c ****   @param[in]     fftSize      length of FFT
  36:Drivers/CMSIS/DSP/Source/TransformFunctions/arm_bitreversal.c ****   @param[in]     bitRevFactor bit reversal modifier that supports different size FFTs with the same
  37:Drivers/CMSIS/DSP/Source/TransformFunctions/arm_bitreversal.c ****   @param[in]     pBitRevTab   points to bit reversal table
  38:Drivers/CMSIS/DSP/Source/TransformFunctions/arm_bitreversal.c ****   @return        none
  39:Drivers/CMSIS/DSP/Source/TransformFunctions/arm_bitreversal.c ****  */
  40:Drivers/CMSIS/DSP/Source/TransformFunctions/arm_bitreversal.c **** 
ARM GAS  C:\Users\JustE\AppData\Local\Temp\ccF78sEd.s 			page 15


  41:Drivers/CMSIS/DSP/Source/TransformFunctions/arm_bitreversal.c **** void arm_bitreversal_f32(
  42:Drivers/CMSIS/DSP/Source/TransformFunctions/arm_bitreversal.c ****         float32_t * pSrc,
  43:Drivers/CMSIS/DSP/Source/TransformFunctions/arm_bitreversal.c ****         uint16_t fftSize,
  44:Drivers/CMSIS/DSP/Source/TransformFunctions/arm_bitreversal.c ****         uint16_t bitRevFactor,
  45:Drivers/CMSIS/DSP/Source/TransformFunctions/arm_bitreversal.c ****   const uint16_t * pBitRevTab)
  46:Drivers/CMSIS/DSP/Source/TransformFunctions/arm_bitreversal.c **** {
 501              		.loc 3 46 1 is_stmt 1 view -0
 502              		.cfi_startproc
 503              		@ args = 0, pretend = 0, frame = 0
 504              		@ frame_needed = 0, uses_anonymous_args = 0
 505              		.loc 3 46 1 is_stmt 0 view .LVU155
 506 0000 2DE9F043 		push	{r4, r5, r6, r7, r8, r9, lr}
 507              	.LCFI0:
 508              		.cfi_def_cfa_offset 28
 509              		.cfi_offset 4, -28
 510              		.cfi_offset 5, -24
 511              		.cfi_offset 6, -20
 512              		.cfi_offset 7, -16
 513              		.cfi_offset 8, -12
 514              		.cfi_offset 9, -8
 515              		.cfi_offset 14, -4
  47:Drivers/CMSIS/DSP/Source/TransformFunctions/arm_bitreversal.c ****    uint16_t fftLenBy2, fftLenBy2p1;
 516              		.loc 3 47 4 is_stmt 1 view .LVU156
  48:Drivers/CMSIS/DSP/Source/TransformFunctions/arm_bitreversal.c ****    uint16_t i, j;
 517              		.loc 3 48 4 view .LVU157
  49:Drivers/CMSIS/DSP/Source/TransformFunctions/arm_bitreversal.c ****    float32_t in;
 518              		.loc 3 49 4 view .LVU158
  50:Drivers/CMSIS/DSP/Source/TransformFunctions/arm_bitreversal.c **** 
  51:Drivers/CMSIS/DSP/Source/TransformFunctions/arm_bitreversal.c ****    /*  Initializations */
  52:Drivers/CMSIS/DSP/Source/TransformFunctions/arm_bitreversal.c ****    j = 0U;
 519              		.loc 3 52 4 view .LVU159
 520              	.LVL36:
  53:Drivers/CMSIS/DSP/Source/TransformFunctions/arm_bitreversal.c ****    fftLenBy2 = fftSize >> 1U;
 521              		.loc 3 53 4 view .LVU160
 522              		.loc 3 53 14 is_stmt 0 view .LVU161
 523 0004 4C08     		lsrs	r4, r1, #1
 524              	.LVL37:
  54:Drivers/CMSIS/DSP/Source/TransformFunctions/arm_bitreversal.c ****    fftLenBy2p1 = (fftSize >> 1U) + 1U;
 525              		.loc 3 54 4 is_stmt 1 view .LVU162
 526              		.loc 3 54 16 is_stmt 0 view .LVU163
 527 0006 651C     		adds	r5, r4, #1
 528              	.LVL38:
  55:Drivers/CMSIS/DSP/Source/TransformFunctions/arm_bitreversal.c **** 
  56:Drivers/CMSIS/DSP/Source/TransformFunctions/arm_bitreversal.c ****    /* Bit Reversal Implementation */
  57:Drivers/CMSIS/DSP/Source/TransformFunctions/arm_bitreversal.c ****    for (i = 0U; i <= (fftLenBy2 - 2U); i += 2U)
 529              		.loc 3 57 4 is_stmt 1 view .LVU164
  52:Drivers/CMSIS/DSP/Source/TransformFunctions/arm_bitreversal.c ****    fftLenBy2 = fftSize >> 1U;
 530              		.loc 3 52 6 is_stmt 0 view .LVU165
 531 0008 4FF0000C 		mov	ip, #0
 532              		.loc 3 57 11 view .LVU166
 533 000c 6146     		mov	r1, ip
 534              	.LVL39:
 535              		.loc 3 57 4 view .LVU167
 536 000e 27E0     		b	.L37
 537              	.LVL40:
 538              	.L38:
  58:Drivers/CMSIS/DSP/Source/TransformFunctions/arm_bitreversal.c ****    {
ARM GAS  C:\Users\JustE\AppData\Local\Temp\ccF78sEd.s 			page 16


  59:Drivers/CMSIS/DSP/Source/TransformFunctions/arm_bitreversal.c ****       if (i < j)
  60:Drivers/CMSIS/DSP/Source/TransformFunctions/arm_bitreversal.c ****       {
  61:Drivers/CMSIS/DSP/Source/TransformFunctions/arm_bitreversal.c ****          /*  pSrc[i] <-> pSrc[j]; */
  62:Drivers/CMSIS/DSP/Source/TransformFunctions/arm_bitreversal.c ****          in = pSrc[2U * i];
  63:Drivers/CMSIS/DSP/Source/TransformFunctions/arm_bitreversal.c ****          pSrc[2U * i] = pSrc[2U * j];
  64:Drivers/CMSIS/DSP/Source/TransformFunctions/arm_bitreversal.c ****          pSrc[2U * j] = in;
  65:Drivers/CMSIS/DSP/Source/TransformFunctions/arm_bitreversal.c **** 
  66:Drivers/CMSIS/DSP/Source/TransformFunctions/arm_bitreversal.c ****          /*  pSrc[i+1U] <-> pSrc[j+1U] */
  67:Drivers/CMSIS/DSP/Source/TransformFunctions/arm_bitreversal.c ****          in = pSrc[(2U * i) + 1U];
  68:Drivers/CMSIS/DSP/Source/TransformFunctions/arm_bitreversal.c ****          pSrc[(2U * i) + 1U] = pSrc[(2U * j) + 1U];
  69:Drivers/CMSIS/DSP/Source/TransformFunctions/arm_bitreversal.c ****          pSrc[(2U * j) + 1U] = in;
  70:Drivers/CMSIS/DSP/Source/TransformFunctions/arm_bitreversal.c **** 
  71:Drivers/CMSIS/DSP/Source/TransformFunctions/arm_bitreversal.c ****          /*  pSrc[i+fftLenBy2p1] <-> pSrc[j+fftLenBy2p1] */
  72:Drivers/CMSIS/DSP/Source/TransformFunctions/arm_bitreversal.c ****          in = pSrc[2U * (i + fftLenBy2p1)];
  73:Drivers/CMSIS/DSP/Source/TransformFunctions/arm_bitreversal.c ****          pSrc[2U * (i + fftLenBy2p1)] = pSrc[2U * (j + fftLenBy2p1)];
  74:Drivers/CMSIS/DSP/Source/TransformFunctions/arm_bitreversal.c ****          pSrc[2U * (j + fftLenBy2p1)] = in;
  75:Drivers/CMSIS/DSP/Source/TransformFunctions/arm_bitreversal.c **** 
  76:Drivers/CMSIS/DSP/Source/TransformFunctions/arm_bitreversal.c ****          /*  pSrc[i+fftLenBy2p1+1U] <-> pSrc[j+fftLenBy2p1+1U] */
  77:Drivers/CMSIS/DSP/Source/TransformFunctions/arm_bitreversal.c ****          in = pSrc[(2U * (i + fftLenBy2p1)) + 1U];
  78:Drivers/CMSIS/DSP/Source/TransformFunctions/arm_bitreversal.c ****          pSrc[(2U * (i + fftLenBy2p1)) + 1U] =
  79:Drivers/CMSIS/DSP/Source/TransformFunctions/arm_bitreversal.c ****          pSrc[(2U * (j + fftLenBy2p1)) + 1U];
  80:Drivers/CMSIS/DSP/Source/TransformFunctions/arm_bitreversal.c ****          pSrc[(2U * (j + fftLenBy2p1)) + 1U] = in;
  81:Drivers/CMSIS/DSP/Source/TransformFunctions/arm_bitreversal.c **** 
  82:Drivers/CMSIS/DSP/Source/TransformFunctions/arm_bitreversal.c ****       }
  83:Drivers/CMSIS/DSP/Source/TransformFunctions/arm_bitreversal.c **** 
  84:Drivers/CMSIS/DSP/Source/TransformFunctions/arm_bitreversal.c ****       /*  pSrc[i+1U] <-> pSrc[j+1U] */
  85:Drivers/CMSIS/DSP/Source/TransformFunctions/arm_bitreversal.c ****       in = pSrc[2U * (i + 1U)];
 539              		.loc 3 85 7 is_stmt 1 discriminator 2 view .LVU168
 540              		.loc 3 85 25 is_stmt 0 discriminator 2 view .LVU169
 541 0010 0EF10107 		add	r7, lr, #1
 542              		.loc 3 85 16 discriminator 2 view .LVU170
 543 0014 4FEAC70E 		lsl	lr, r7, #3
 544 0018 00EBC707 		add	r7, r0, r7, lsl #3
 545              		.loc 3 85 10 discriminator 2 view .LVU171
 546 001c D7F80080 		ldr	r8, [r7]	@ float
 547              	.LVL41:
  86:Drivers/CMSIS/DSP/Source/TransformFunctions/arm_bitreversal.c ****       pSrc[2U * (i + 1U)] = pSrc[2U * (j + fftLenBy2)];
 548              		.loc 3 86 7 is_stmt 1 discriminator 2 view .LVU172
 549              		.loc 3 86 42 is_stmt 0 discriminator 2 view .LVU173
 550 0020 0CEB0406 		add	r6, ip, r4
 551              		.loc 3 86 33 discriminator 2 view .LVU174
 552 0024 4FEAC60C 		lsl	ip, r6, #3
 553              	.LVL42:
 554              		.loc 3 86 33 discriminator 2 view .LVU175
 555 0028 00EBC606 		add	r6, r0, r6, lsl #3
 556 002c D6F80090 		ldr	r9, [r6]	@ float
 557              		.loc 3 86 27 discriminator 2 view .LVU176
 558 0030 C7F80090 		str	r9, [r7]	@ float
  87:Drivers/CMSIS/DSP/Source/TransformFunctions/arm_bitreversal.c ****       pSrc[2U * (j + fftLenBy2)] = in;
 559              		.loc 3 87 7 is_stmt 1 discriminator 2 view .LVU177
 560              		.loc 3 87 34 is_stmt 0 discriminator 2 view .LVU178
 561 0034 C6F80080 		str	r8, [r6]	@ float
  88:Drivers/CMSIS/DSP/Source/TransformFunctions/arm_bitreversal.c **** 
  89:Drivers/CMSIS/DSP/Source/TransformFunctions/arm_bitreversal.c ****       /*  pSrc[i+2U] <-> pSrc[j+2U] */
  90:Drivers/CMSIS/DSP/Source/TransformFunctions/arm_bitreversal.c ****       in = pSrc[(2U * (i + 1U)) + 1U];
 562              		.loc 3 90 7 is_stmt 1 discriminator 2 view .LVU179
 563              		.loc 3 90 16 is_stmt 0 discriminator 2 view .LVU180
ARM GAS  C:\Users\JustE\AppData\Local\Temp\ccF78sEd.s 			page 17


 564 0038 0EF1040E 		add	lr, lr, #4
 565 003c 8644     		add	lr, lr, r0
 566              		.loc 3 90 10 discriminator 2 view .LVU181
 567 003e DEF80060 		ldr	r6, [lr]	@ float
 568              	.LVL43:
  91:Drivers/CMSIS/DSP/Source/TransformFunctions/arm_bitreversal.c ****       pSrc[(2U * (i + 1U)) + 1U] = pSrc[(2U * (j + fftLenBy2)) + 1U];
 569              		.loc 3 91 7 is_stmt 1 discriminator 2 view .LVU182
 570              		.loc 3 91 40 is_stmt 0 discriminator 2 view .LVU183
 571 0042 0CF1040C 		add	ip, ip, #4
 572 0046 8444     		add	ip, ip, r0
 573 0048 DCF80070 		ldr	r7, [ip]	@ float
 574              		.loc 3 91 34 discriminator 2 view .LVU184
 575 004c CEF80070 		str	r7, [lr]	@ float
  92:Drivers/CMSIS/DSP/Source/TransformFunctions/arm_bitreversal.c ****       pSrc[(2U * (j + fftLenBy2)) + 1U] = in;
 576              		.loc 3 92 7 is_stmt 1 discriminator 2 view .LVU185
 577              		.loc 3 92 41 is_stmt 0 discriminator 2 view .LVU186
 578 0050 CCF80060 		str	r6, [ip]	@ float
  93:Drivers/CMSIS/DSP/Source/TransformFunctions/arm_bitreversal.c **** 
  94:Drivers/CMSIS/DSP/Source/TransformFunctions/arm_bitreversal.c ****       /*  Reading the index for the bit reversal */
  95:Drivers/CMSIS/DSP/Source/TransformFunctions/arm_bitreversal.c ****       j = *pBitRevTab;
 579              		.loc 3 95 7 is_stmt 1 discriminator 2 view .LVU187
 580              		.loc 3 95 9 is_stmt 0 discriminator 2 view .LVU188
 581 0054 B3F800C0 		ldrh	ip, [r3]
 582              	.LVL44:
  96:Drivers/CMSIS/DSP/Source/TransformFunctions/arm_bitreversal.c **** 
  97:Drivers/CMSIS/DSP/Source/TransformFunctions/arm_bitreversal.c ****       /*  Updating the bit reversal index depending on the fft length  */
  98:Drivers/CMSIS/DSP/Source/TransformFunctions/arm_bitreversal.c ****       pBitRevTab += bitRevFactor;
 583              		.loc 3 98 7 is_stmt 1 discriminator 2 view .LVU189
 584              		.loc 3 98 18 is_stmt 0 discriminator 2 view .LVU190
 585 0058 03EB4203 		add	r3, r3, r2, lsl #1
 586              	.LVL45:
  57:Drivers/CMSIS/DSP/Source/TransformFunctions/arm_bitreversal.c ****    {
 587              		.loc 3 57 42 is_stmt 1 discriminator 2 view .LVU191
 588 005c 0231     		adds	r1, r1, #2
 589              	.LVL46:
  57:Drivers/CMSIS/DSP/Source/TransformFunctions/arm_bitreversal.c ****    {
 590              		.loc 3 57 42 is_stmt 0 discriminator 2 view .LVU192
 591 005e 89B2     		uxth	r1, r1
 592              	.LVL47:
 593              	.L37:
  57:Drivers/CMSIS/DSP/Source/TransformFunctions/arm_bitreversal.c ****    {
 594              		.loc 3 57 19 is_stmt 1 discriminator 1 view .LVU193
 595 0060 8E46     		mov	lr, r1
  57:Drivers/CMSIS/DSP/Source/TransformFunctions/arm_bitreversal.c ****    {
 596              		.loc 3 57 33 is_stmt 0 discriminator 1 view .LVU194
 597 0062 A61E     		subs	r6, r4, #2
  57:Drivers/CMSIS/DSP/Source/TransformFunctions/arm_bitreversal.c ****    {
 598              		.loc 3 57 19 discriminator 1 view .LVU195
 599 0064 B142     		cmp	r1, r6
 600 0066 3ED8     		bhi	.L41
  59:Drivers/CMSIS/DSP/Source/TransformFunctions/arm_bitreversal.c ****       {
 601              		.loc 3 59 7 is_stmt 1 view .LVU196
  59:Drivers/CMSIS/DSP/Source/TransformFunctions/arm_bitreversal.c ****       {
 602              		.loc 3 59 10 is_stmt 0 view .LVU197
 603 0068 6145     		cmp	r1, ip
 604 006a D1D2     		bcs	.L38
  62:Drivers/CMSIS/DSP/Source/TransformFunctions/arm_bitreversal.c ****          pSrc[2U * i] = pSrc[2U * j];
ARM GAS  C:\Users\JustE\AppData\Local\Temp\ccF78sEd.s 			page 18


 605              		.loc 3 62 10 is_stmt 1 view .LVU198
  62:Drivers/CMSIS/DSP/Source/TransformFunctions/arm_bitreversal.c ****          pSrc[2U * i] = pSrc[2U * j];
 606              		.loc 3 62 19 is_stmt 0 view .LVU199
 607 006c 4FEACE07 		lsl	r7, lr, #3
 608 0070 00EBCE09 		add	r9, r0, lr, lsl #3
  62:Drivers/CMSIS/DSP/Source/TransformFunctions/arm_bitreversal.c ****          pSrc[2U * i] = pSrc[2U * j];
 609              		.loc 3 62 13 view .LVU200
 610 0074 D9ED007A 		vldr.32	s15, [r9]
 611              	.LVL48:
  63:Drivers/CMSIS/DSP/Source/TransformFunctions/arm_bitreversal.c ****          pSrc[2U * j] = in;
 612              		.loc 3 63 10 is_stmt 1 view .LVU201
  63:Drivers/CMSIS/DSP/Source/TransformFunctions/arm_bitreversal.c ****          pSrc[2U * j] = in;
 613              		.loc 3 63 29 is_stmt 0 view .LVU202
 614 0078 4FEACC06 		lsl	r6, ip, #3
 615 007c 00EBCC08 		add	r8, r0, ip, lsl #3
 616 0080 98ED007A 		vldr.32	s14, [r8]
  63:Drivers/CMSIS/DSP/Source/TransformFunctions/arm_bitreversal.c ****          pSrc[2U * j] = in;
 617              		.loc 3 63 23 view .LVU203
 618 0084 89ED007A 		vstr.32	s14, [r9]
  64:Drivers/CMSIS/DSP/Source/TransformFunctions/arm_bitreversal.c **** 
 619              		.loc 3 64 10 is_stmt 1 view .LVU204
  64:Drivers/CMSIS/DSP/Source/TransformFunctions/arm_bitreversal.c **** 
 620              		.loc 3 64 23 is_stmt 0 view .LVU205
 621 0088 C8ED007A 		vstr.32	s15, [r8]
  67:Drivers/CMSIS/DSP/Source/TransformFunctions/arm_bitreversal.c ****          pSrc[(2U * i) + 1U] = pSrc[(2U * j) + 1U];
 622              		.loc 3 67 10 is_stmt 1 view .LVU206
  67:Drivers/CMSIS/DSP/Source/TransformFunctions/arm_bitreversal.c ****          pSrc[(2U * i) + 1U] = pSrc[(2U * j) + 1U];
 623              		.loc 3 67 19 is_stmt 0 view .LVU207
 624 008c 0437     		adds	r7, r7, #4
 625 008e 0744     		add	r7, r7, r0
  67:Drivers/CMSIS/DSP/Source/TransformFunctions/arm_bitreversal.c ****          pSrc[(2U * i) + 1U] = pSrc[(2U * j) + 1U];
 626              		.loc 3 67 13 view .LVU208
 627 0090 D7F80080 		ldr	r8, [r7]	@ float
 628              	.LVL49:
  68:Drivers/CMSIS/DSP/Source/TransformFunctions/arm_bitreversal.c ****          pSrc[(2U * j) + 1U] = in;
 629              		.loc 3 68 10 is_stmt 1 view .LVU209
  68:Drivers/CMSIS/DSP/Source/TransformFunctions/arm_bitreversal.c ****          pSrc[(2U * j) + 1U] = in;
 630              		.loc 3 68 36 is_stmt 0 view .LVU210
 631 0094 0436     		adds	r6, r6, #4
 632 0096 0644     		add	r6, r6, r0
 633 0098 D6F80090 		ldr	r9, [r6]	@ float
  68:Drivers/CMSIS/DSP/Source/TransformFunctions/arm_bitreversal.c ****          pSrc[(2U * j) + 1U] = in;
 634              		.loc 3 68 30 view .LVU211
 635 009c C7F80090 		str	r9, [r7]	@ float
  69:Drivers/CMSIS/DSP/Source/TransformFunctions/arm_bitreversal.c **** 
 636              		.loc 3 69 10 is_stmt 1 view .LVU212
  69:Drivers/CMSIS/DSP/Source/TransformFunctions/arm_bitreversal.c **** 
 637              		.loc 3 69 30 is_stmt 0 view .LVU213
 638 00a0 C6F80080 		str	r8, [r6]	@ float
  72:Drivers/CMSIS/DSP/Source/TransformFunctions/arm_bitreversal.c ****          pSrc[2U * (i + fftLenBy2p1)] = pSrc[2U * (j + fftLenBy2p1)];
 639              		.loc 3 72 10 is_stmt 1 view .LVU214
  72:Drivers/CMSIS/DSP/Source/TransformFunctions/arm_bitreversal.c ****          pSrc[2U * (i + fftLenBy2p1)] = pSrc[2U * (j + fftLenBy2p1)];
 640              		.loc 3 72 28 is_stmt 0 view .LVU215
 641 00a4 01EB0509 		add	r9, r1, r5
  72:Drivers/CMSIS/DSP/Source/TransformFunctions/arm_bitreversal.c ****          pSrc[2U * (i + fftLenBy2p1)] = pSrc[2U * (j + fftLenBy2p1)];
 642              		.loc 3 72 19 view .LVU216
 643 00a8 4FEAC907 		lsl	r7, r9, #3
ARM GAS  C:\Users\JustE\AppData\Local\Temp\ccF78sEd.s 			page 19


 644 00ac 00EBC909 		add	r9, r0, r9, lsl #3
  72:Drivers/CMSIS/DSP/Source/TransformFunctions/arm_bitreversal.c ****          pSrc[2U * (i + fftLenBy2p1)] = pSrc[2U * (j + fftLenBy2p1)];
 645              		.loc 3 72 13 view .LVU217
 646 00b0 D9ED007A 		vldr.32	s15, [r9]
 647              	.LVL50:
  73:Drivers/CMSIS/DSP/Source/TransformFunctions/arm_bitreversal.c ****          pSrc[2U * (j + fftLenBy2p1)] = in;
 648              		.loc 3 73 10 is_stmt 1 view .LVU218
  73:Drivers/CMSIS/DSP/Source/TransformFunctions/arm_bitreversal.c ****          pSrc[2U * (j + fftLenBy2p1)] = in;
 649              		.loc 3 73 54 is_stmt 0 view .LVU219
 650 00b4 0CEB0508 		add	r8, ip, r5
  73:Drivers/CMSIS/DSP/Source/TransformFunctions/arm_bitreversal.c ****          pSrc[2U * (j + fftLenBy2p1)] = in;
 651              		.loc 3 73 45 view .LVU220
 652 00b8 4FEAC806 		lsl	r6, r8, #3
 653 00bc 00EBC808 		add	r8, r0, r8, lsl #3
 654 00c0 98ED007A 		vldr.32	s14, [r8]
  73:Drivers/CMSIS/DSP/Source/TransformFunctions/arm_bitreversal.c ****          pSrc[2U * (j + fftLenBy2p1)] = in;
 655              		.loc 3 73 39 view .LVU221
 656 00c4 89ED007A 		vstr.32	s14, [r9]
  74:Drivers/CMSIS/DSP/Source/TransformFunctions/arm_bitreversal.c **** 
 657              		.loc 3 74 10 is_stmt 1 view .LVU222
  74:Drivers/CMSIS/DSP/Source/TransformFunctions/arm_bitreversal.c **** 
 658              		.loc 3 74 39 is_stmt 0 view .LVU223
 659 00c8 C8ED007A 		vstr.32	s15, [r8]
  77:Drivers/CMSIS/DSP/Source/TransformFunctions/arm_bitreversal.c ****          pSrc[(2U * (i + fftLenBy2p1)) + 1U] =
 660              		.loc 3 77 10 is_stmt 1 view .LVU224
  77:Drivers/CMSIS/DSP/Source/TransformFunctions/arm_bitreversal.c ****          pSrc[(2U * (i + fftLenBy2p1)) + 1U] =
 661              		.loc 3 77 19 is_stmt 0 view .LVU225
 662 00cc 0437     		adds	r7, r7, #4
 663 00ce 0744     		add	r7, r7, r0
  77:Drivers/CMSIS/DSP/Source/TransformFunctions/arm_bitreversal.c ****          pSrc[(2U * (i + fftLenBy2p1)) + 1U] =
 664              		.loc 3 77 13 view .LVU226
 665 00d0 D7F80080 		ldr	r8, [r7]	@ float
 666              	.LVL51:
  78:Drivers/CMSIS/DSP/Source/TransformFunctions/arm_bitreversal.c ****          pSrc[(2U * (j + fftLenBy2p1)) + 1U];
 667              		.loc 3 78 10 is_stmt 1 view .LVU227
  79:Drivers/CMSIS/DSP/Source/TransformFunctions/arm_bitreversal.c ****          pSrc[(2U * (j + fftLenBy2p1)) + 1U] = in;
 668              		.loc 3 79 14 is_stmt 0 view .LVU228
 669 00d4 0436     		adds	r6, r6, #4
 670 00d6 0644     		add	r6, r6, r0
 671 00d8 D6F80090 		ldr	r9, [r6]	@ float
  78:Drivers/CMSIS/DSP/Source/TransformFunctions/arm_bitreversal.c ****          pSrc[(2U * (j + fftLenBy2p1)) + 1U];
 672              		.loc 3 78 46 view .LVU229
 673 00dc C7F80090 		str	r9, [r7]	@ float
  80:Drivers/CMSIS/DSP/Source/TransformFunctions/arm_bitreversal.c **** 
 674              		.loc 3 80 10 is_stmt 1 view .LVU230
  80:Drivers/CMSIS/DSP/Source/TransformFunctions/arm_bitreversal.c **** 
 675              		.loc 3 80 46 is_stmt 0 view .LVU231
 676 00e0 C6F80080 		str	r8, [r6]	@ float
 677 00e4 94E7     		b	.L38
 678              	.LVL52:
 679              	.L41:
  99:Drivers/CMSIS/DSP/Source/TransformFunctions/arm_bitreversal.c ****    }
 100:Drivers/CMSIS/DSP/Source/TransformFunctions/arm_bitreversal.c **** }
 680              		.loc 3 100 1 view .LVU232
 681 00e6 BDE8F083 		pop	{r4, r5, r6, r7, r8, r9, pc}
 682              		.loc 3 100 1 view .LVU233
 683              		.cfi_endproc
ARM GAS  C:\Users\JustE\AppData\Local\Temp\ccF78sEd.s 			page 20


 684              	.LFE145:
 686              		.section	.text.arm_bitreversal_q31,"ax",%progbits
 687              		.align	1
 688              		.global	arm_bitreversal_q31
 689              		.syntax unified
 690              		.thumb
 691              		.thumb_func
 693              	arm_bitreversal_q31:
 694              	.LVL53:
 695              	.LFB146:
 101:Drivers/CMSIS/DSP/Source/TransformFunctions/arm_bitreversal.c **** 
 102:Drivers/CMSIS/DSP/Source/TransformFunctions/arm_bitreversal.c **** 
 103:Drivers/CMSIS/DSP/Source/TransformFunctions/arm_bitreversal.c **** /**
 104:Drivers/CMSIS/DSP/Source/TransformFunctions/arm_bitreversal.c ****   @brief         In-place Q31 bit reversal function.
 105:Drivers/CMSIS/DSP/Source/TransformFunctions/arm_bitreversal.c ****   @param[in,out] pSrc         points to in-place Q31 data buffer.
 106:Drivers/CMSIS/DSP/Source/TransformFunctions/arm_bitreversal.c ****   @param[in]     fftLen       length of FFT.
 107:Drivers/CMSIS/DSP/Source/TransformFunctions/arm_bitreversal.c ****   @param[in]     bitRevFactor bit reversal modifier that supports different size FFTs with the same
 108:Drivers/CMSIS/DSP/Source/TransformFunctions/arm_bitreversal.c ****   @param[in]     pBitRevTab   points to bit reversal table
 109:Drivers/CMSIS/DSP/Source/TransformFunctions/arm_bitreversal.c ****   @return        none
 110:Drivers/CMSIS/DSP/Source/TransformFunctions/arm_bitreversal.c **** */
 111:Drivers/CMSIS/DSP/Source/TransformFunctions/arm_bitreversal.c **** 
 112:Drivers/CMSIS/DSP/Source/TransformFunctions/arm_bitreversal.c **** void arm_bitreversal_q31(
 113:Drivers/CMSIS/DSP/Source/TransformFunctions/arm_bitreversal.c ****         q31_t * pSrc,
 114:Drivers/CMSIS/DSP/Source/TransformFunctions/arm_bitreversal.c ****         uint32_t fftLen,
 115:Drivers/CMSIS/DSP/Source/TransformFunctions/arm_bitreversal.c ****         uint16_t bitRevFactor,
 116:Drivers/CMSIS/DSP/Source/TransformFunctions/arm_bitreversal.c ****   const uint16_t * pBitRevTab)
 117:Drivers/CMSIS/DSP/Source/TransformFunctions/arm_bitreversal.c **** {
 696              		.loc 3 117 1 is_stmt 1 view -0
 697              		.cfi_startproc
 698              		@ args = 0, pretend = 0, frame = 0
 699              		@ frame_needed = 0, uses_anonymous_args = 0
 700              		.loc 3 117 1 is_stmt 0 view .LVU235
 701 0000 2DE9F047 		push	{r4, r5, r6, r7, r8, r9, r10, lr}
 702              	.LCFI1:
 703              		.cfi_def_cfa_offset 32
 704              		.cfi_offset 4, -32
 705              		.cfi_offset 5, -28
 706              		.cfi_offset 6, -24
 707              		.cfi_offset 7, -20
 708              		.cfi_offset 8, -16
 709              		.cfi_offset 9, -12
 710              		.cfi_offset 10, -8
 711              		.cfi_offset 14, -4
 712 0004 9246     		mov	r10, r2
 118:Drivers/CMSIS/DSP/Source/TransformFunctions/arm_bitreversal.c ****    uint32_t fftLenBy2, fftLenBy2p1, i, j;
 713              		.loc 3 118 4 is_stmt 1 view .LVU236
 119:Drivers/CMSIS/DSP/Source/TransformFunctions/arm_bitreversal.c ****    q31_t in;
 714              		.loc 3 119 4 view .LVU237
 120:Drivers/CMSIS/DSP/Source/TransformFunctions/arm_bitreversal.c **** 
 121:Drivers/CMSIS/DSP/Source/TransformFunctions/arm_bitreversal.c ****    /*  Initializations      */
 122:Drivers/CMSIS/DSP/Source/TransformFunctions/arm_bitreversal.c ****    j = 0U;
 715              		.loc 3 122 4 view .LVU238
 716              	.LVL54:
 123:Drivers/CMSIS/DSP/Source/TransformFunctions/arm_bitreversal.c ****    fftLenBy2 = fftLen / 2U;
 717              		.loc 3 123 4 view .LVU239
 718              		.loc 3 123 14 is_stmt 0 view .LVU240
 719 0006 4D08     		lsrs	r5, r1, #1
ARM GAS  C:\Users\JustE\AppData\Local\Temp\ccF78sEd.s 			page 21


 720              	.LVL55:
 124:Drivers/CMSIS/DSP/Source/TransformFunctions/arm_bitreversal.c ****    fftLenBy2p1 = (fftLen / 2U) + 1U;
 721              		.loc 3 124 4 is_stmt 1 view .LVU241
 722              		.loc 3 124 16 is_stmt 0 view .LVU242
 723 0008 6E1C     		adds	r6, r5, #1
 724              	.LVL56:
 125:Drivers/CMSIS/DSP/Source/TransformFunctions/arm_bitreversal.c **** 
 126:Drivers/CMSIS/DSP/Source/TransformFunctions/arm_bitreversal.c ****    /* Bit Reversal Implementation */
 127:Drivers/CMSIS/DSP/Source/TransformFunctions/arm_bitreversal.c ****    for (i = 0U; i <= (fftLenBy2 - 2U); i += 2U)
 725              		.loc 3 127 4 is_stmt 1 view .LVU243
 122:Drivers/CMSIS/DSP/Source/TransformFunctions/arm_bitreversal.c ****    fftLenBy2 = fftLen / 2U;
 726              		.loc 3 122 6 is_stmt 0 view .LVU244
 727 000a 4FF0000C 		mov	ip, #0
 728              		.loc 3 127 11 view .LVU245
 729 000e 6446     		mov	r4, ip
 730              		.loc 3 127 4 view .LVU246
 731 0010 1FE0     		b	.L43
 732              	.LVL57:
 733              	.L44:
 128:Drivers/CMSIS/DSP/Source/TransformFunctions/arm_bitreversal.c ****    {
 129:Drivers/CMSIS/DSP/Source/TransformFunctions/arm_bitreversal.c ****       if (i < j)
 130:Drivers/CMSIS/DSP/Source/TransformFunctions/arm_bitreversal.c ****       {
 131:Drivers/CMSIS/DSP/Source/TransformFunctions/arm_bitreversal.c ****          /*  pSrc[i] <-> pSrc[j]; */
 132:Drivers/CMSIS/DSP/Source/TransformFunctions/arm_bitreversal.c ****          in = pSrc[2U * i];
 133:Drivers/CMSIS/DSP/Source/TransformFunctions/arm_bitreversal.c ****          pSrc[2U * i] = pSrc[2U * j];
 134:Drivers/CMSIS/DSP/Source/TransformFunctions/arm_bitreversal.c ****          pSrc[2U * j] = in;
 135:Drivers/CMSIS/DSP/Source/TransformFunctions/arm_bitreversal.c **** 
 136:Drivers/CMSIS/DSP/Source/TransformFunctions/arm_bitreversal.c ****          /*  pSrc[i+1U] <-> pSrc[j+1U] */
 137:Drivers/CMSIS/DSP/Source/TransformFunctions/arm_bitreversal.c ****          in = pSrc[(2U * i) + 1U];
 138:Drivers/CMSIS/DSP/Source/TransformFunctions/arm_bitreversal.c ****          pSrc[(2U * i) + 1U] = pSrc[(2U * j) + 1U];
 139:Drivers/CMSIS/DSP/Source/TransformFunctions/arm_bitreversal.c ****          pSrc[(2U * j) + 1U] = in;
 140:Drivers/CMSIS/DSP/Source/TransformFunctions/arm_bitreversal.c **** 
 141:Drivers/CMSIS/DSP/Source/TransformFunctions/arm_bitreversal.c ****          /*  pSrc[i+fftLenBy2p1] <-> pSrc[j+fftLenBy2p1] */
 142:Drivers/CMSIS/DSP/Source/TransformFunctions/arm_bitreversal.c ****          in = pSrc[2U * (i + fftLenBy2p1)];
 143:Drivers/CMSIS/DSP/Source/TransformFunctions/arm_bitreversal.c ****          pSrc[2U * (i + fftLenBy2p1)] = pSrc[2U * (j + fftLenBy2p1)];
 144:Drivers/CMSIS/DSP/Source/TransformFunctions/arm_bitreversal.c ****          pSrc[2U * (j + fftLenBy2p1)] = in;
 145:Drivers/CMSIS/DSP/Source/TransformFunctions/arm_bitreversal.c **** 
 146:Drivers/CMSIS/DSP/Source/TransformFunctions/arm_bitreversal.c ****          /*  pSrc[i+fftLenBy2p1+1U] <-> pSrc[j+fftLenBy2p1+1U] */
 147:Drivers/CMSIS/DSP/Source/TransformFunctions/arm_bitreversal.c ****          in = pSrc[(2U * (i + fftLenBy2p1)) + 1U];
 148:Drivers/CMSIS/DSP/Source/TransformFunctions/arm_bitreversal.c ****          pSrc[(2U * (i + fftLenBy2p1)) + 1U] =
 149:Drivers/CMSIS/DSP/Source/TransformFunctions/arm_bitreversal.c ****          pSrc[(2U * (j + fftLenBy2p1)) + 1U];
 150:Drivers/CMSIS/DSP/Source/TransformFunctions/arm_bitreversal.c ****          pSrc[(2U * (j + fftLenBy2p1)) + 1U] = in;
 151:Drivers/CMSIS/DSP/Source/TransformFunctions/arm_bitreversal.c **** 
 152:Drivers/CMSIS/DSP/Source/TransformFunctions/arm_bitreversal.c ****       }
 153:Drivers/CMSIS/DSP/Source/TransformFunctions/arm_bitreversal.c **** 
 154:Drivers/CMSIS/DSP/Source/TransformFunctions/arm_bitreversal.c ****       /*  pSrc[i+1U] <-> pSrc[j+1U] */
 155:Drivers/CMSIS/DSP/Source/TransformFunctions/arm_bitreversal.c ****       in = pSrc[2U * (i + 1U)];
 734              		.loc 3 155 7 is_stmt 1 discriminator 2 view .LVU247
 735              		.loc 3 155 25 is_stmt 0 discriminator 2 view .LVU248
 736 0012 671C     		adds	r7, r4, #1
 737              		.loc 3 155 16 discriminator 2 view .LVU249
 738 0014 4FEAC70E 		lsl	lr, r7, #3
 739              		.loc 3 155 10 discriminator 2 view .LVU250
 740 0018 50F83780 		ldr	r8, [r0, r7, lsl #3]
 741              	.LVL58:
 156:Drivers/CMSIS/DSP/Source/TransformFunctions/arm_bitreversal.c ****       pSrc[2U * (i + 1U)] = pSrc[2U * (j + fftLenBy2)];
 742              		.loc 3 156 7 is_stmt 1 discriminator 2 view .LVU251
ARM GAS  C:\Users\JustE\AppData\Local\Temp\ccF78sEd.s 			page 22


 743              		.loc 3 156 42 is_stmt 0 discriminator 2 view .LVU252
 744 001c 0CEB0501 		add	r1, ip, r5
 745              		.loc 3 156 33 discriminator 2 view .LVU253
 746 0020 4FEAC10C 		lsl	ip, r1, #3
 747              	.LVL59:
 748              		.loc 3 156 27 discriminator 2 view .LVU254
 749 0024 50F83120 		ldr	r2, [r0, r1, lsl #3]
 750 0028 40F83720 		str	r2, [r0, r7, lsl #3]
 157:Drivers/CMSIS/DSP/Source/TransformFunctions/arm_bitreversal.c ****       pSrc[2U * (j + fftLenBy2)] = in;
 751              		.loc 3 157 7 is_stmt 1 discriminator 2 view .LVU255
 752              		.loc 3 157 34 is_stmt 0 discriminator 2 view .LVU256
 753 002c 40F83180 		str	r8, [r0, r1, lsl #3]
 158:Drivers/CMSIS/DSP/Source/TransformFunctions/arm_bitreversal.c **** 
 159:Drivers/CMSIS/DSP/Source/TransformFunctions/arm_bitreversal.c ****       /*  pSrc[i+2U] <-> pSrc[j+2U] */
 160:Drivers/CMSIS/DSP/Source/TransformFunctions/arm_bitreversal.c ****       in = pSrc[(2U * (i + 1U)) + 1U];
 754              		.loc 3 160 7 is_stmt 1 discriminator 2 view .LVU257
 755              		.loc 3 160 16 is_stmt 0 discriminator 2 view .LVU258
 756 0030 0EF1040E 		add	lr, lr, #4
 757              		.loc 3 160 10 discriminator 2 view .LVU259
 758 0034 50F80E70 		ldr	r7, [r0, lr]
 759              	.LVL60:
 161:Drivers/CMSIS/DSP/Source/TransformFunctions/arm_bitreversal.c ****       pSrc[(2U * (i + 1U)) + 1U] = pSrc[(2U * (j + fftLenBy2)) + 1U];
 760              		.loc 3 161 7 is_stmt 1 discriminator 2 view .LVU260
 761              		.loc 3 161 40 is_stmt 0 discriminator 2 view .LVU261
 762 0038 0CF1040C 		add	ip, ip, #4
 763 003c 50F80C10 		ldr	r1, [r0, ip]
 764              		.loc 3 161 34 discriminator 2 view .LVU262
 765 0040 40F80E10 		str	r1, [r0, lr]
 162:Drivers/CMSIS/DSP/Source/TransformFunctions/arm_bitreversal.c ****       pSrc[(2U * (j + fftLenBy2)) + 1U] = in;
 766              		.loc 3 162 7 is_stmt 1 discriminator 2 view .LVU263
 767              		.loc 3 162 41 is_stmt 0 discriminator 2 view .LVU264
 768 0044 40F80C70 		str	r7, [r0, ip]
 163:Drivers/CMSIS/DSP/Source/TransformFunctions/arm_bitreversal.c **** 
 164:Drivers/CMSIS/DSP/Source/TransformFunctions/arm_bitreversal.c ****       /*  Reading the index for the bit reversal */
 165:Drivers/CMSIS/DSP/Source/TransformFunctions/arm_bitreversal.c ****       j = *pBitRevTab;
 769              		.loc 3 165 7 is_stmt 1 discriminator 2 view .LVU265
 770              		.loc 3 165 11 is_stmt 0 discriminator 2 view .LVU266
 771 0048 B3F800C0 		ldrh	ip, [r3]
 772              	.LVL61:
 166:Drivers/CMSIS/DSP/Source/TransformFunctions/arm_bitreversal.c **** 
 167:Drivers/CMSIS/DSP/Source/TransformFunctions/arm_bitreversal.c ****       /*  Updating the bit reversal index depending on the fft length */
 168:Drivers/CMSIS/DSP/Source/TransformFunctions/arm_bitreversal.c ****       pBitRevTab += bitRevFactor;
 773              		.loc 3 168 7 is_stmt 1 discriminator 2 view .LVU267
 774              		.loc 3 168 18 is_stmt 0 discriminator 2 view .LVU268
 775 004c 03EB4A03 		add	r3, r3, r10, lsl #1
 776              	.LVL62:
 127:Drivers/CMSIS/DSP/Source/TransformFunctions/arm_bitreversal.c ****    {
 777              		.loc 3 127 42 is_stmt 1 discriminator 2 view .LVU269
 778 0050 0234     		adds	r4, r4, #2
 779              	.LVL63:
 780              	.L43:
 127:Drivers/CMSIS/DSP/Source/TransformFunctions/arm_bitreversal.c ****    {
 781              		.loc 3 127 19 discriminator 1 view .LVU270
 127:Drivers/CMSIS/DSP/Source/TransformFunctions/arm_bitreversal.c ****    {
 782              		.loc 3 127 33 is_stmt 0 discriminator 1 view .LVU271
 783 0052 A91E     		subs	r1, r5, #2
 127:Drivers/CMSIS/DSP/Source/TransformFunctions/arm_bitreversal.c ****    {
ARM GAS  C:\Users\JustE\AppData\Local\Temp\ccF78sEd.s 			page 23


 784              		.loc 3 127 19 discriminator 1 view .LVU272
 785 0054 A142     		cmp	r1, r4
 786 0056 30D3     		bcc	.L47
 129:Drivers/CMSIS/DSP/Source/TransformFunctions/arm_bitreversal.c ****       {
 787              		.loc 3 129 7 is_stmt 1 view .LVU273
 129:Drivers/CMSIS/DSP/Source/TransformFunctions/arm_bitreversal.c ****       {
 788              		.loc 3 129 10 is_stmt 0 view .LVU274
 789 0058 6445     		cmp	r4, ip
 790 005a DAD2     		bcs	.L44
 132:Drivers/CMSIS/DSP/Source/TransformFunctions/arm_bitreversal.c ****          pSrc[2U * i] = pSrc[2U * j];
 791              		.loc 3 132 10 is_stmt 1 view .LVU275
 132:Drivers/CMSIS/DSP/Source/TransformFunctions/arm_bitreversal.c ****          pSrc[2U * i] = pSrc[2U * j];
 792              		.loc 3 132 19 is_stmt 0 view .LVU276
 793 005c 4FEAC40E 		lsl	lr, r4, #3
 132:Drivers/CMSIS/DSP/Source/TransformFunctions/arm_bitreversal.c ****          pSrc[2U * i] = pSrc[2U * j];
 794              		.loc 3 132 13 view .LVU277
 795 0060 50F83410 		ldr	r1, [r0, r4, lsl #3]
 796              	.LVL64:
 133:Drivers/CMSIS/DSP/Source/TransformFunctions/arm_bitreversal.c ****          pSrc[2U * j] = in;
 797              		.loc 3 133 10 is_stmt 1 view .LVU278
 133:Drivers/CMSIS/DSP/Source/TransformFunctions/arm_bitreversal.c ****          pSrc[2U * j] = in;
 798              		.loc 3 133 29 is_stmt 0 view .LVU279
 799 0064 4FEACC07 		lsl	r7, ip, #3
 133:Drivers/CMSIS/DSP/Source/TransformFunctions/arm_bitreversal.c ****          pSrc[2U * j] = in;
 800              		.loc 3 133 23 view .LVU280
 801 0068 50F83C20 		ldr	r2, [r0, ip, lsl #3]
 802 006c 40F83420 		str	r2, [r0, r4, lsl #3]
 134:Drivers/CMSIS/DSP/Source/TransformFunctions/arm_bitreversal.c **** 
 803              		.loc 3 134 10 is_stmt 1 view .LVU281
 134:Drivers/CMSIS/DSP/Source/TransformFunctions/arm_bitreversal.c **** 
 804              		.loc 3 134 23 is_stmt 0 view .LVU282
 805 0070 40F83C10 		str	r1, [r0, ip, lsl #3]
 137:Drivers/CMSIS/DSP/Source/TransformFunctions/arm_bitreversal.c ****          pSrc[(2U * i) + 1U] = pSrc[(2U * j) + 1U];
 806              		.loc 3 137 10 is_stmt 1 view .LVU283
 137:Drivers/CMSIS/DSP/Source/TransformFunctions/arm_bitreversal.c ****          pSrc[(2U * i) + 1U] = pSrc[(2U * j) + 1U];
 807              		.loc 3 137 19 is_stmt 0 view .LVU284
 808 0074 0EF1040E 		add	lr, lr, #4
 137:Drivers/CMSIS/DSP/Source/TransformFunctions/arm_bitreversal.c ****          pSrc[(2U * i) + 1U] = pSrc[(2U * j) + 1U];
 809              		.loc 3 137 13 view .LVU285
 810 0078 50F80E10 		ldr	r1, [r0, lr]
 811              	.LVL65:
 138:Drivers/CMSIS/DSP/Source/TransformFunctions/arm_bitreversal.c ****          pSrc[(2U * j) + 1U] = in;
 812              		.loc 3 138 10 is_stmt 1 view .LVU286
 138:Drivers/CMSIS/DSP/Source/TransformFunctions/arm_bitreversal.c ****          pSrc[(2U * j) + 1U] = in;
 813              		.loc 3 138 36 is_stmt 0 view .LVU287
 814 007c 0437     		adds	r7, r7, #4
 138:Drivers/CMSIS/DSP/Source/TransformFunctions/arm_bitreversal.c ****          pSrc[(2U * j) + 1U] = in;
 815              		.loc 3 138 30 view .LVU288
 816 007e C259     		ldr	r2, [r0, r7]
 817 0080 40F80E20 		str	r2, [r0, lr]
 139:Drivers/CMSIS/DSP/Source/TransformFunctions/arm_bitreversal.c **** 
 818              		.loc 3 139 10 is_stmt 1 view .LVU289
 139:Drivers/CMSIS/DSP/Source/TransformFunctions/arm_bitreversal.c **** 
 819              		.loc 3 139 30 is_stmt 0 view .LVU290
 820 0084 C151     		str	r1, [r0, r7]
 142:Drivers/CMSIS/DSP/Source/TransformFunctions/arm_bitreversal.c ****          pSrc[2U * (i + fftLenBy2p1)] = pSrc[2U * (j + fftLenBy2p1)];
 821              		.loc 3 142 10 is_stmt 1 view .LVU291
ARM GAS  C:\Users\JustE\AppData\Local\Temp\ccF78sEd.s 			page 24


 142:Drivers/CMSIS/DSP/Source/TransformFunctions/arm_bitreversal.c ****          pSrc[2U * (i + fftLenBy2p1)] = pSrc[2U * (j + fftLenBy2p1)];
 822              		.loc 3 142 28 is_stmt 0 view .LVU292
 823 0086 04EB0609 		add	r9, r4, r6
 142:Drivers/CMSIS/DSP/Source/TransformFunctions/arm_bitreversal.c ****          pSrc[2U * (i + fftLenBy2p1)] = pSrc[2U * (j + fftLenBy2p1)];
 824              		.loc 3 142 19 view .LVU293
 825 008a 4FEAC90E 		lsl	lr, r9, #3
 142:Drivers/CMSIS/DSP/Source/TransformFunctions/arm_bitreversal.c ****          pSrc[2U * (i + fftLenBy2p1)] = pSrc[2U * (j + fftLenBy2p1)];
 826              		.loc 3 142 13 view .LVU294
 827 008e 50F83910 		ldr	r1, [r0, r9, lsl #3]
 828              	.LVL66:
 143:Drivers/CMSIS/DSP/Source/TransformFunctions/arm_bitreversal.c ****          pSrc[2U * (j + fftLenBy2p1)] = in;
 829              		.loc 3 143 10 is_stmt 1 view .LVU295
 143:Drivers/CMSIS/DSP/Source/TransformFunctions/arm_bitreversal.c ****          pSrc[2U * (j + fftLenBy2p1)] = in;
 830              		.loc 3 143 54 is_stmt 0 view .LVU296
 831 0092 0CEB0608 		add	r8, ip, r6
 143:Drivers/CMSIS/DSP/Source/TransformFunctions/arm_bitreversal.c ****          pSrc[2U * (j + fftLenBy2p1)] = in;
 832              		.loc 3 143 45 view .LVU297
 833 0096 4FEAC807 		lsl	r7, r8, #3
 143:Drivers/CMSIS/DSP/Source/TransformFunctions/arm_bitreversal.c ****          pSrc[2U * (j + fftLenBy2p1)] = in;
 834              		.loc 3 143 39 view .LVU298
 835 009a 50F83820 		ldr	r2, [r0, r8, lsl #3]
 836 009e 40F83920 		str	r2, [r0, r9, lsl #3]
 144:Drivers/CMSIS/DSP/Source/TransformFunctions/arm_bitreversal.c **** 
 837              		.loc 3 144 10 is_stmt 1 view .LVU299
 144:Drivers/CMSIS/DSP/Source/TransformFunctions/arm_bitreversal.c **** 
 838              		.loc 3 144 39 is_stmt 0 view .LVU300
 839 00a2 40F83810 		str	r1, [r0, r8, lsl #3]
 147:Drivers/CMSIS/DSP/Source/TransformFunctions/arm_bitreversal.c ****          pSrc[(2U * (i + fftLenBy2p1)) + 1U] =
 840              		.loc 3 147 10 is_stmt 1 view .LVU301
 147:Drivers/CMSIS/DSP/Source/TransformFunctions/arm_bitreversal.c ****          pSrc[(2U * (i + fftLenBy2p1)) + 1U] =
 841              		.loc 3 147 19 is_stmt 0 view .LVU302
 842 00a6 0EF1040E 		add	lr, lr, #4
 147:Drivers/CMSIS/DSP/Source/TransformFunctions/arm_bitreversal.c ****          pSrc[(2U * (i + fftLenBy2p1)) + 1U] =
 843              		.loc 3 147 13 view .LVU303
 844 00aa 50F80E10 		ldr	r1, [r0, lr]
 845              	.LVL67:
 148:Drivers/CMSIS/DSP/Source/TransformFunctions/arm_bitreversal.c ****          pSrc[(2U * (j + fftLenBy2p1)) + 1U];
 846              		.loc 3 148 10 is_stmt 1 view .LVU304
 149:Drivers/CMSIS/DSP/Source/TransformFunctions/arm_bitreversal.c ****          pSrc[(2U * (j + fftLenBy2p1)) + 1U] = in;
 847              		.loc 3 149 14 is_stmt 0 view .LVU305
 848 00ae 0437     		adds	r7, r7, #4
 148:Drivers/CMSIS/DSP/Source/TransformFunctions/arm_bitreversal.c ****          pSrc[(2U * (j + fftLenBy2p1)) + 1U];
 849              		.loc 3 148 46 view .LVU306
 850 00b0 C259     		ldr	r2, [r0, r7]
 851 00b2 40F80E20 		str	r2, [r0, lr]
 150:Drivers/CMSIS/DSP/Source/TransformFunctions/arm_bitreversal.c **** 
 852              		.loc 3 150 10 is_stmt 1 view .LVU307
 150:Drivers/CMSIS/DSP/Source/TransformFunctions/arm_bitreversal.c **** 
 853              		.loc 3 150 46 is_stmt 0 view .LVU308
 854 00b6 C151     		str	r1, [r0, r7]
 855 00b8 ABE7     		b	.L44
 856              	.LVL68:
 857              	.L47:
 169:Drivers/CMSIS/DSP/Source/TransformFunctions/arm_bitreversal.c ****    }
 170:Drivers/CMSIS/DSP/Source/TransformFunctions/arm_bitreversal.c **** }
 858              		.loc 3 170 1 view .LVU309
 859 00ba BDE8F087 		pop	{r4, r5, r6, r7, r8, r9, r10, pc}
ARM GAS  C:\Users\JustE\AppData\Local\Temp\ccF78sEd.s 			page 25


 860              		.loc 3 170 1 view .LVU310
 861              		.cfi_endproc
 862              	.LFE146:
 864              		.section	.text.arm_bitreversal_q15,"ax",%progbits
 865              		.align	1
 866              		.global	arm_bitreversal_q15
 867              		.syntax unified
 868              		.thumb
 869              		.thumb_func
 871              	arm_bitreversal_q15:
 872              	.LVL69:
 873              	.LFB147:
 171:Drivers/CMSIS/DSP/Source/TransformFunctions/arm_bitreversal.c **** 
 172:Drivers/CMSIS/DSP/Source/TransformFunctions/arm_bitreversal.c **** 
 173:Drivers/CMSIS/DSP/Source/TransformFunctions/arm_bitreversal.c **** 
 174:Drivers/CMSIS/DSP/Source/TransformFunctions/arm_bitreversal.c **** /**
 175:Drivers/CMSIS/DSP/Source/TransformFunctions/arm_bitreversal.c ****   @brief         In-place Q15 bit reversal function.
 176:Drivers/CMSIS/DSP/Source/TransformFunctions/arm_bitreversal.c ****   @param[in,out] pSrc16       points to in-place Q15 data buffer
 177:Drivers/CMSIS/DSP/Source/TransformFunctions/arm_bitreversal.c ****   @param[in]     fftLen       length of FFT
 178:Drivers/CMSIS/DSP/Source/TransformFunctions/arm_bitreversal.c ****   @param[in]     bitRevFactor bit reversal modifier that supports different size FFTs with the same
 179:Drivers/CMSIS/DSP/Source/TransformFunctions/arm_bitreversal.c ****   @param[in]     pBitRevTab   points to bit reversal table
 180:Drivers/CMSIS/DSP/Source/TransformFunctions/arm_bitreversal.c ****   @return        none
 181:Drivers/CMSIS/DSP/Source/TransformFunctions/arm_bitreversal.c **** */
 182:Drivers/CMSIS/DSP/Source/TransformFunctions/arm_bitreversal.c **** 
 183:Drivers/CMSIS/DSP/Source/TransformFunctions/arm_bitreversal.c **** void arm_bitreversal_q15(
 184:Drivers/CMSIS/DSP/Source/TransformFunctions/arm_bitreversal.c ****         q15_t * pSrc16,
 185:Drivers/CMSIS/DSP/Source/TransformFunctions/arm_bitreversal.c ****         uint32_t fftLen,
 186:Drivers/CMSIS/DSP/Source/TransformFunctions/arm_bitreversal.c ****         uint16_t bitRevFactor,
 187:Drivers/CMSIS/DSP/Source/TransformFunctions/arm_bitreversal.c ****   const uint16_t * pBitRevTab)
 188:Drivers/CMSIS/DSP/Source/TransformFunctions/arm_bitreversal.c **** {
 874              		.loc 3 188 1 is_stmt 1 view -0
 875              		.cfi_startproc
 876              		@ args = 0, pretend = 0, frame = 0
 877              		@ frame_needed = 0, uses_anonymous_args = 0
 878              		.loc 3 188 1 is_stmt 0 view .LVU312
 879 0000 2DE9F041 		push	{r4, r5, r6, r7, r8, lr}
 880              	.LCFI2:
 881              		.cfi_def_cfa_offset 24
 882              		.cfi_offset 4, -24
 883              		.cfi_offset 5, -20
 884              		.cfi_offset 6, -16
 885              		.cfi_offset 7, -12
 886              		.cfi_offset 8, -8
 887              		.cfi_offset 14, -4
 189:Drivers/CMSIS/DSP/Source/TransformFunctions/arm_bitreversal.c ****    q31_t *pSrc = (q31_t *) pSrc16;
 888              		.loc 3 189 4 is_stmt 1 view .LVU313
 889              	.LVL70:
 190:Drivers/CMSIS/DSP/Source/TransformFunctions/arm_bitreversal.c ****    q31_t in;
 890              		.loc 3 190 4 view .LVU314
 191:Drivers/CMSIS/DSP/Source/TransformFunctions/arm_bitreversal.c ****    uint32_t fftLenBy2, fftLenBy2p1;
 891              		.loc 3 191 4 view .LVU315
 192:Drivers/CMSIS/DSP/Source/TransformFunctions/arm_bitreversal.c ****    uint32_t i, j;
 892              		.loc 3 192 4 view .LVU316
 193:Drivers/CMSIS/DSP/Source/TransformFunctions/arm_bitreversal.c **** 
 194:Drivers/CMSIS/DSP/Source/TransformFunctions/arm_bitreversal.c ****    /*  Initializations */
 195:Drivers/CMSIS/DSP/Source/TransformFunctions/arm_bitreversal.c ****    j = 0U;
 893              		.loc 3 195 4 view .LVU317
ARM GAS  C:\Users\JustE\AppData\Local\Temp\ccF78sEd.s 			page 26


 196:Drivers/CMSIS/DSP/Source/TransformFunctions/arm_bitreversal.c ****    fftLenBy2 = fftLen / 2U;
 894              		.loc 3 196 4 view .LVU318
 895              		.loc 3 196 14 is_stmt 0 view .LVU319
 896 0004 4C08     		lsrs	r4, r1, #1
 897              	.LVL71:
 197:Drivers/CMSIS/DSP/Source/TransformFunctions/arm_bitreversal.c ****    fftLenBy2p1 = (fftLen / 2U) + 1U;
 898              		.loc 3 197 4 is_stmt 1 view .LVU320
 899              		.loc 3 197 16 is_stmt 0 view .LVU321
 900 0006 661C     		adds	r6, r4, #1
 901              	.LVL72:
 198:Drivers/CMSIS/DSP/Source/TransformFunctions/arm_bitreversal.c **** 
 199:Drivers/CMSIS/DSP/Source/TransformFunctions/arm_bitreversal.c ****    /* Bit Reversal Implementation */
 200:Drivers/CMSIS/DSP/Source/TransformFunctions/arm_bitreversal.c ****    for (i = 0U; i <= (fftLenBy2 - 2U); i += 2U)
 902              		.loc 3 200 4 is_stmt 1 view .LVU322
 195:Drivers/CMSIS/DSP/Source/TransformFunctions/arm_bitreversal.c ****    fftLenBy2 = fftLen / 2U;
 903              		.loc 3 195 6 is_stmt 0 view .LVU323
 904 0008 4FF0000C 		mov	ip, #0
 905              		.loc 3 200 11 view .LVU324
 906 000c E646     		mov	lr, ip
 907              		.loc 3 200 4 view .LVU325
 908 000e 10E0     		b	.L49
 909              	.LVL73:
 910              	.L50:
 201:Drivers/CMSIS/DSP/Source/TransformFunctions/arm_bitreversal.c ****    {
 202:Drivers/CMSIS/DSP/Source/TransformFunctions/arm_bitreversal.c ****       if (i < j)
 203:Drivers/CMSIS/DSP/Source/TransformFunctions/arm_bitreversal.c ****       {
 204:Drivers/CMSIS/DSP/Source/TransformFunctions/arm_bitreversal.c ****          /*  pSrc[i] <-> pSrc[j]; */
 205:Drivers/CMSIS/DSP/Source/TransformFunctions/arm_bitreversal.c ****          /*  pSrc[i+1U] <-> pSrc[j+1U] */
 206:Drivers/CMSIS/DSP/Source/TransformFunctions/arm_bitreversal.c ****          in = pSrc[i];
 207:Drivers/CMSIS/DSP/Source/TransformFunctions/arm_bitreversal.c ****          pSrc[i] = pSrc[j];
 208:Drivers/CMSIS/DSP/Source/TransformFunctions/arm_bitreversal.c ****          pSrc[j] = in;
 209:Drivers/CMSIS/DSP/Source/TransformFunctions/arm_bitreversal.c **** 
 210:Drivers/CMSIS/DSP/Source/TransformFunctions/arm_bitreversal.c ****          /*  pSrc[i + fftLenBy2p1] <-> pSrc[j + fftLenBy2p1];  */
 211:Drivers/CMSIS/DSP/Source/TransformFunctions/arm_bitreversal.c ****          /*  pSrc[i + fftLenBy2p1+1U] <-> pSrc[j + fftLenBy2p1+1U] */
 212:Drivers/CMSIS/DSP/Source/TransformFunctions/arm_bitreversal.c ****          in = pSrc[i + fftLenBy2p1];
 213:Drivers/CMSIS/DSP/Source/TransformFunctions/arm_bitreversal.c ****          pSrc[i + fftLenBy2p1] = pSrc[j + fftLenBy2p1];
 214:Drivers/CMSIS/DSP/Source/TransformFunctions/arm_bitreversal.c ****          pSrc[j + fftLenBy2p1] = in;
 215:Drivers/CMSIS/DSP/Source/TransformFunctions/arm_bitreversal.c ****       }
 216:Drivers/CMSIS/DSP/Source/TransformFunctions/arm_bitreversal.c **** 
 217:Drivers/CMSIS/DSP/Source/TransformFunctions/arm_bitreversal.c ****       /*  pSrc[i+1U] <-> pSrc[j+fftLenBy2];         */
 218:Drivers/CMSIS/DSP/Source/TransformFunctions/arm_bitreversal.c ****       /*  pSrc[i+2] <-> pSrc[j+fftLenBy2+1U]  */
 219:Drivers/CMSIS/DSP/Source/TransformFunctions/arm_bitreversal.c ****       in = pSrc[i + 1U];
 911              		.loc 3 219 7 is_stmt 1 discriminator 2 view .LVU326
 912              		.loc 3 219 16 is_stmt 0 discriminator 2 view .LVU327
 913 0010 0EF10101 		add	r1, lr, #1
 914              		.loc 3 219 10 discriminator 2 view .LVU328
 915 0014 50F82150 		ldr	r5, [r0, r1, lsl #2]
 916              	.LVL74:
 220:Drivers/CMSIS/DSP/Source/TransformFunctions/arm_bitreversal.c ****       pSrc[i + 1U] = pSrc[j + fftLenBy2];
 917              		.loc 3 220 7 is_stmt 1 discriminator 2 view .LVU329
 918              		.loc 3 220 29 is_stmt 0 discriminator 2 view .LVU330
 919 0018 A444     		add	ip, ip, r4
 920              	.LVL75:
 921              		.loc 3 220 20 discriminator 2 view .LVU331
 922 001a 50F82C70 		ldr	r7, [r0, ip, lsl #2]
 923 001e 40F82170 		str	r7, [r0, r1, lsl #2]
 221:Drivers/CMSIS/DSP/Source/TransformFunctions/arm_bitreversal.c ****       pSrc[j + fftLenBy2] = in;
ARM GAS  C:\Users\JustE\AppData\Local\Temp\ccF78sEd.s 			page 27


 924              		.loc 3 221 7 is_stmt 1 discriminator 2 view .LVU332
 925              		.loc 3 221 27 is_stmt 0 discriminator 2 view .LVU333
 926 0022 40F82C50 		str	r5, [r0, ip, lsl #2]
 222:Drivers/CMSIS/DSP/Source/TransformFunctions/arm_bitreversal.c **** 
 223:Drivers/CMSIS/DSP/Source/TransformFunctions/arm_bitreversal.c ****       /*  Reading the index for the bit reversal */
 224:Drivers/CMSIS/DSP/Source/TransformFunctions/arm_bitreversal.c ****       j = *pBitRevTab;
 927              		.loc 3 224 7 is_stmt 1 discriminator 2 view .LVU334
 928              		.loc 3 224 11 is_stmt 0 discriminator 2 view .LVU335
 929 0026 B3F800C0 		ldrh	ip, [r3]
 930              	.LVL76:
 225:Drivers/CMSIS/DSP/Source/TransformFunctions/arm_bitreversal.c **** 
 226:Drivers/CMSIS/DSP/Source/TransformFunctions/arm_bitreversal.c ****       /*  Updating the bit reversal index depending on the fft length  */
 227:Drivers/CMSIS/DSP/Source/TransformFunctions/arm_bitreversal.c ****       pBitRevTab += bitRevFactor;
 931              		.loc 3 227 7 is_stmt 1 discriminator 2 view .LVU336
 932              		.loc 3 227 18 is_stmt 0 discriminator 2 view .LVU337
 933 002a 03EB4203 		add	r3, r3, r2, lsl #1
 934              	.LVL77:
 200:Drivers/CMSIS/DSP/Source/TransformFunctions/arm_bitreversal.c ****    {
 935              		.loc 3 200 42 is_stmt 1 discriminator 2 view .LVU338
 936 002e 0EF1020E 		add	lr, lr, #2
 937              	.LVL78:
 938              	.L49:
 200:Drivers/CMSIS/DSP/Source/TransformFunctions/arm_bitreversal.c ****    {
 939              		.loc 3 200 19 discriminator 1 view .LVU339
 200:Drivers/CMSIS/DSP/Source/TransformFunctions/arm_bitreversal.c ****    {
 940              		.loc 3 200 33 is_stmt 0 discriminator 1 view .LVU340
 941 0032 A11E     		subs	r1, r4, #2
 200:Drivers/CMSIS/DSP/Source/TransformFunctions/arm_bitreversal.c ****    {
 942              		.loc 3 200 19 discriminator 1 view .LVU341
 943 0034 7145     		cmp	r1, lr
 944 0036 16D3     		bcc	.L53
 202:Drivers/CMSIS/DSP/Source/TransformFunctions/arm_bitreversal.c ****       {
 945              		.loc 3 202 7 is_stmt 1 view .LVU342
 202:Drivers/CMSIS/DSP/Source/TransformFunctions/arm_bitreversal.c ****       {
 946              		.loc 3 202 10 is_stmt 0 view .LVU343
 947 0038 E645     		cmp	lr, ip
 948 003a E9D2     		bcs	.L50
 206:Drivers/CMSIS/DSP/Source/TransformFunctions/arm_bitreversal.c ****          pSrc[i] = pSrc[j];
 949              		.loc 3 206 10 is_stmt 1 view .LVU344
 206:Drivers/CMSIS/DSP/Source/TransformFunctions/arm_bitreversal.c ****          pSrc[i] = pSrc[j];
 950              		.loc 3 206 13 is_stmt 0 view .LVU345
 951 003c 50F82E50 		ldr	r5, [r0, lr, lsl #2]
 952              	.LVL79:
 207:Drivers/CMSIS/DSP/Source/TransformFunctions/arm_bitreversal.c ****          pSrc[j] = in;
 953              		.loc 3 207 10 is_stmt 1 view .LVU346
 207:Drivers/CMSIS/DSP/Source/TransformFunctions/arm_bitreversal.c ****          pSrc[j] = in;
 954              		.loc 3 207 24 is_stmt 0 view .LVU347
 955 0040 50F82C10 		ldr	r1, [r0, ip, lsl #2]
 207:Drivers/CMSIS/DSP/Source/TransformFunctions/arm_bitreversal.c ****          pSrc[j] = in;
 956              		.loc 3 207 18 view .LVU348
 957 0044 40F82E10 		str	r1, [r0, lr, lsl #2]
 208:Drivers/CMSIS/DSP/Source/TransformFunctions/arm_bitreversal.c **** 
 958              		.loc 3 208 10 is_stmt 1 view .LVU349
 208:Drivers/CMSIS/DSP/Source/TransformFunctions/arm_bitreversal.c **** 
 959              		.loc 3 208 18 is_stmt 0 view .LVU350
 960 0048 40F82C50 		str	r5, [r0, ip, lsl #2]
 212:Drivers/CMSIS/DSP/Source/TransformFunctions/arm_bitreversal.c ****          pSrc[i + fftLenBy2p1] = pSrc[j + fftLenBy2p1];
ARM GAS  C:\Users\JustE\AppData\Local\Temp\ccF78sEd.s 			page 28


 961              		.loc 3 212 10 is_stmt 1 view .LVU351
 212:Drivers/CMSIS/DSP/Source/TransformFunctions/arm_bitreversal.c ****          pSrc[i + fftLenBy2p1] = pSrc[j + fftLenBy2p1];
 962              		.loc 3 212 22 is_stmt 0 view .LVU352
 963 004c 0EEB0607 		add	r7, lr, r6
 212:Drivers/CMSIS/DSP/Source/TransformFunctions/arm_bitreversal.c ****          pSrc[i + fftLenBy2p1] = pSrc[j + fftLenBy2p1];
 964              		.loc 3 212 13 view .LVU353
 965 0050 50F82780 		ldr	r8, [r0, r7, lsl #2]
 966              	.LVL80:
 213:Drivers/CMSIS/DSP/Source/TransformFunctions/arm_bitreversal.c ****          pSrc[j + fftLenBy2p1] = in;
 967              		.loc 3 213 10 is_stmt 1 view .LVU354
 213:Drivers/CMSIS/DSP/Source/TransformFunctions/arm_bitreversal.c ****          pSrc[j + fftLenBy2p1] = in;
 968              		.loc 3 213 41 is_stmt 0 view .LVU355
 969 0054 0CEB0601 		add	r1, ip, r6
 213:Drivers/CMSIS/DSP/Source/TransformFunctions/arm_bitreversal.c ****          pSrc[j + fftLenBy2p1] = in;
 970              		.loc 3 213 32 view .LVU356
 971 0058 50F82150 		ldr	r5, [r0, r1, lsl #2]
 972 005c 40F82750 		str	r5, [r0, r7, lsl #2]
 214:Drivers/CMSIS/DSP/Source/TransformFunctions/arm_bitreversal.c ****       }
 973              		.loc 3 214 10 is_stmt 1 view .LVU357
 214:Drivers/CMSIS/DSP/Source/TransformFunctions/arm_bitreversal.c ****       }
 974              		.loc 3 214 32 is_stmt 0 view .LVU358
 975 0060 40F82180 		str	r8, [r0, r1, lsl #2]
 976 0064 D4E7     		b	.L50
 977              	.LVL81:
 978              	.L53:
 228:Drivers/CMSIS/DSP/Source/TransformFunctions/arm_bitreversal.c ****    }
 229:Drivers/CMSIS/DSP/Source/TransformFunctions/arm_bitreversal.c **** }
 979              		.loc 3 229 1 view .LVU359
 980 0066 BDE8F081 		pop	{r4, r5, r6, r7, r8, pc}
 981              		.loc 3 229 1 view .LVU360
 982              		.cfi_endproc
 983              	.LFE147:
 985              		.section	.text.arm_bitreversal_32,"ax",%progbits
 986              		.align	1
 987              		.global	arm_bitreversal_32
 988              		.syntax unified
 989              		.thumb
 990              		.thumb_func
 992              	arm_bitreversal_32:
 993              	.LVL82:
 994              	.LFB148:
 995              		.file 4 "Drivers/CMSIS/DSP/Source/TransformFunctions/arm_bitreversal2.c"
   1:Drivers/CMSIS/DSP/Source/TransformFunctions/arm_bitreversal2.c **** /* ----------------------------------------------------------------------
   2:Drivers/CMSIS/DSP/Source/TransformFunctions/arm_bitreversal2.c ****  * Project:      CMSIS DSP Library
   3:Drivers/CMSIS/DSP/Source/TransformFunctions/arm_bitreversal2.c ****  * Title:        arm_bitreversal2.c
   4:Drivers/CMSIS/DSP/Source/TransformFunctions/arm_bitreversal2.c ****  * Description:  Bitreversal functions
   5:Drivers/CMSIS/DSP/Source/TransformFunctions/arm_bitreversal2.c ****  *
   6:Drivers/CMSIS/DSP/Source/TransformFunctions/arm_bitreversal2.c ****  * $Date:        18. March 2019
   7:Drivers/CMSIS/DSP/Source/TransformFunctions/arm_bitreversal2.c ****  * $Revision:    V1.0.0
   8:Drivers/CMSIS/DSP/Source/TransformFunctions/arm_bitreversal2.c ****  *
   9:Drivers/CMSIS/DSP/Source/TransformFunctions/arm_bitreversal2.c ****  * Target Processor: Cortex-M cores
  10:Drivers/CMSIS/DSP/Source/TransformFunctions/arm_bitreversal2.c ****  * -------------------------------------------------------------------- */
  11:Drivers/CMSIS/DSP/Source/TransformFunctions/arm_bitreversal2.c **** /*
  12:Drivers/CMSIS/DSP/Source/TransformFunctions/arm_bitreversal2.c ****  * Copyright (C) 2019 ARM Limited or its affiliates. All rights reserved.
  13:Drivers/CMSIS/DSP/Source/TransformFunctions/arm_bitreversal2.c ****  *
  14:Drivers/CMSIS/DSP/Source/TransformFunctions/arm_bitreversal2.c ****  * SPDX-License-Identifier: Apache-2.0
  15:Drivers/CMSIS/DSP/Source/TransformFunctions/arm_bitreversal2.c ****  *
ARM GAS  C:\Users\JustE\AppData\Local\Temp\ccF78sEd.s 			page 29


  16:Drivers/CMSIS/DSP/Source/TransformFunctions/arm_bitreversal2.c ****  * Licensed under the Apache License, Version 2.0 (the License); you may
  17:Drivers/CMSIS/DSP/Source/TransformFunctions/arm_bitreversal2.c ****  * not use this file except in compliance with the License.
  18:Drivers/CMSIS/DSP/Source/TransformFunctions/arm_bitreversal2.c ****  * You may obtain a copy of the License at
  19:Drivers/CMSIS/DSP/Source/TransformFunctions/arm_bitreversal2.c ****  *
  20:Drivers/CMSIS/DSP/Source/TransformFunctions/arm_bitreversal2.c ****  * www.apache.org/licenses/LICENSE-2.0
  21:Drivers/CMSIS/DSP/Source/TransformFunctions/arm_bitreversal2.c ****  *
  22:Drivers/CMSIS/DSP/Source/TransformFunctions/arm_bitreversal2.c ****  * Unless required by applicable law or agreed to in writing, software
  23:Drivers/CMSIS/DSP/Source/TransformFunctions/arm_bitreversal2.c ****  * distributed under the License is distributed on an AS IS BASIS, WITHOUT
  24:Drivers/CMSIS/DSP/Source/TransformFunctions/arm_bitreversal2.c ****  * WARRANTIES OR CONDITIONS OF ANY KIND, either express or implied.
  25:Drivers/CMSIS/DSP/Source/TransformFunctions/arm_bitreversal2.c ****  * See the License for the specific language governing permissions and
  26:Drivers/CMSIS/DSP/Source/TransformFunctions/arm_bitreversal2.c ****  * limitations under the License.
  27:Drivers/CMSIS/DSP/Source/TransformFunctions/arm_bitreversal2.c ****  */
  28:Drivers/CMSIS/DSP/Source/TransformFunctions/arm_bitreversal2.c **** 
  29:Drivers/CMSIS/DSP/Source/TransformFunctions/arm_bitreversal2.c **** #include "arm_math.h"
  30:Drivers/CMSIS/DSP/Source/TransformFunctions/arm_bitreversal2.c **** #include "arm_common_tables.h"
  31:Drivers/CMSIS/DSP/Source/TransformFunctions/arm_bitreversal2.c **** 
  32:Drivers/CMSIS/DSP/Source/TransformFunctions/arm_bitreversal2.c **** /**
  33:Drivers/CMSIS/DSP/Source/TransformFunctions/arm_bitreversal2.c ****   @brief         In-place 32 bit reversal function.
  34:Drivers/CMSIS/DSP/Source/TransformFunctions/arm_bitreversal2.c ****   @param[in,out] pSrc        points to in-place buffer of unknown 32-bit data type
  35:Drivers/CMSIS/DSP/Source/TransformFunctions/arm_bitreversal2.c ****   @param[in]     bitRevLen   bit reversal table length
  36:Drivers/CMSIS/DSP/Source/TransformFunctions/arm_bitreversal2.c ****   @param[in]     pBitRevTab  points to bit reversal table
  37:Drivers/CMSIS/DSP/Source/TransformFunctions/arm_bitreversal2.c ****   @return        none
  38:Drivers/CMSIS/DSP/Source/TransformFunctions/arm_bitreversal2.c **** */
  39:Drivers/CMSIS/DSP/Source/TransformFunctions/arm_bitreversal2.c **** 
  40:Drivers/CMSIS/DSP/Source/TransformFunctions/arm_bitreversal2.c **** void arm_bitreversal_32(
  41:Drivers/CMSIS/DSP/Source/TransformFunctions/arm_bitreversal2.c ****         uint32_t *pSrc, 
  42:Drivers/CMSIS/DSP/Source/TransformFunctions/arm_bitreversal2.c ****   const uint16_t bitRevLen, 
  43:Drivers/CMSIS/DSP/Source/TransformFunctions/arm_bitreversal2.c ****   const uint16_t *pBitRevTab)
  44:Drivers/CMSIS/DSP/Source/TransformFunctions/arm_bitreversal2.c **** {
 996              		.loc 4 44 1 is_stmt 1 view -0
 997              		.cfi_startproc
 998              		@ args = 0, pretend = 0, frame = 0
 999              		@ frame_needed = 0, uses_anonymous_args = 0
 1000              		.loc 4 44 1 is_stmt 0 view .LVU362
 1001 0000 30B5     		push	{r4, r5, lr}
 1002              	.LCFI3:
 1003              		.cfi_def_cfa_offset 12
 1004              		.cfi_offset 4, -12
 1005              		.cfi_offset 5, -8
 1006              		.cfi_offset 14, -4
  45:Drivers/CMSIS/DSP/Source/TransformFunctions/arm_bitreversal2.c ****   uint32_t a, b, i, tmp;
 1007              		.loc 4 45 3 is_stmt 1 view .LVU363
  46:Drivers/CMSIS/DSP/Source/TransformFunctions/arm_bitreversal2.c **** 
  47:Drivers/CMSIS/DSP/Source/TransformFunctions/arm_bitreversal2.c ****   for (i = 0; i < bitRevLen; )
 1008              		.loc 4 47 3 view .LVU364
 1009              	.LVL83:
 1010              		.loc 4 47 10 is_stmt 0 view .LVU365
 1011 0002 4FF0000E 		mov	lr, #0
 1012              		.loc 4 47 3 view .LVU366
 1013 0006 1DE0     		b	.L55
 1014              	.LVL84:
 1015              	.L56:
  48:Drivers/CMSIS/DSP/Source/TransformFunctions/arm_bitreversal2.c ****   {
  49:Drivers/CMSIS/DSP/Source/TransformFunctions/arm_bitreversal2.c ****      a = pBitRevTab[i    ] >> 2;
 1016              		.loc 4 49 6 is_stmt 1 view .LVU367
 1017              		.loc 4 49 20 is_stmt 0 view .LVU368
 1018 0008 32F81EC0 		ldrh	ip, [r2, lr, lsl #1]
ARM GAS  C:\Users\JustE\AppData\Local\Temp\ccF78sEd.s 			page 30


 1019              		.loc 4 49 28 view .LVU369
 1020 000c 4FEA9C0C 		lsr	ip, ip, #2
 1021              	.LVL85:
  50:Drivers/CMSIS/DSP/Source/TransformFunctions/arm_bitreversal2.c ****      b = pBitRevTab[i + 1] >> 2;
 1022              		.loc 4 50 6 is_stmt 1 view .LVU370
 1023              		.loc 4 50 20 is_stmt 0 view .LVU371
 1024 0010 0EF10103 		add	r3, lr, #1
 1025 0014 32F81330 		ldrh	r3, [r2, r3, lsl #1]
 1026              		.loc 4 50 28 view .LVU372
 1027 0018 9B08     		lsrs	r3, r3, #2
 1028              	.LVL86:
  51:Drivers/CMSIS/DSP/Source/TransformFunctions/arm_bitreversal2.c **** 
  52:Drivers/CMSIS/DSP/Source/TransformFunctions/arm_bitreversal2.c ****      //real
  53:Drivers/CMSIS/DSP/Source/TransformFunctions/arm_bitreversal2.c ****      tmp = pSrc[a];
 1029              		.loc 4 53 6 is_stmt 1 view .LVU373
 1030              		.loc 4 53 10 is_stmt 0 view .LVU374
 1031 001a 50F82C40 		ldr	r4, [r0, ip, lsl #2]
 1032              	.LVL87:
  54:Drivers/CMSIS/DSP/Source/TransformFunctions/arm_bitreversal2.c ****      pSrc[a] = pSrc[b];
 1033              		.loc 4 54 6 is_stmt 1 view .LVU375
 1034              		.loc 4 54 14 is_stmt 0 view .LVU376
 1035 001e 50F82350 		ldr	r5, [r0, r3, lsl #2]
 1036 0022 40F82C50 		str	r5, [r0, ip, lsl #2]
  55:Drivers/CMSIS/DSP/Source/TransformFunctions/arm_bitreversal2.c ****      pSrc[b] = tmp;
 1037              		.loc 4 55 6 is_stmt 1 view .LVU377
 1038              		.loc 4 55 14 is_stmt 0 view .LVU378
 1039 0026 40F82340 		str	r4, [r0, r3, lsl #2]
  56:Drivers/CMSIS/DSP/Source/TransformFunctions/arm_bitreversal2.c **** 
  57:Drivers/CMSIS/DSP/Source/TransformFunctions/arm_bitreversal2.c ****      //complex
  58:Drivers/CMSIS/DSP/Source/TransformFunctions/arm_bitreversal2.c ****      tmp = pSrc[a+1];
 1040              		.loc 4 58 6 is_stmt 1 view .LVU379
 1041              		.loc 4 58 16 is_stmt 0 view .LVU380
 1042 002a 0CF1010C 		add	ip, ip, #1
 1043              	.LVL88:
 1044              		.loc 4 58 10 view .LVU381
 1045 002e 50F82C40 		ldr	r4, [r0, ip, lsl #2]
 1046              	.LVL89:
  59:Drivers/CMSIS/DSP/Source/TransformFunctions/arm_bitreversal2.c ****      pSrc[a+1] = pSrc[b+1];
 1047              		.loc 4 59 6 is_stmt 1 view .LVU382
 1048              		.loc 4 59 22 is_stmt 0 view .LVU383
 1049 0032 0133     		adds	r3, r3, #1
 1050              	.LVL90:
 1051              		.loc 4 59 16 view .LVU384
 1052 0034 50F82350 		ldr	r5, [r0, r3, lsl #2]
 1053 0038 40F82C50 		str	r5, [r0, ip, lsl #2]
  60:Drivers/CMSIS/DSP/Source/TransformFunctions/arm_bitreversal2.c ****      pSrc[b+1] = tmp;
 1054              		.loc 4 60 6 is_stmt 1 view .LVU385
 1055              		.loc 4 60 16 is_stmt 0 view .LVU386
 1056 003c 40F82340 		str	r4, [r0, r3, lsl #2]
  61:Drivers/CMSIS/DSP/Source/TransformFunctions/arm_bitreversal2.c **** 
  62:Drivers/CMSIS/DSP/Source/TransformFunctions/arm_bitreversal2.c ****     i += 2;
 1057              		.loc 4 62 5 is_stmt 1 view .LVU387
 1058              		.loc 4 62 7 is_stmt 0 view .LVU388
 1059 0040 0EF1020E 		add	lr, lr, #2
 1060              	.LVL91:
 1061              	.L55:
  47:Drivers/CMSIS/DSP/Source/TransformFunctions/arm_bitreversal2.c ****   {
ARM GAS  C:\Users\JustE\AppData\Local\Temp\ccF78sEd.s 			page 31


 1062              		.loc 4 47 17 is_stmt 1 discriminator 1 view .LVU389
 1063 0044 7145     		cmp	r1, lr
 1064 0046 DFD8     		bhi	.L56
  63:Drivers/CMSIS/DSP/Source/TransformFunctions/arm_bitreversal2.c ****   }
  64:Drivers/CMSIS/DSP/Source/TransformFunctions/arm_bitreversal2.c **** }
 1065              		.loc 4 64 1 is_stmt 0 view .LVU390
 1066 0048 30BD     		pop	{r4, r5, pc}
 1067              		.cfi_endproc
 1068              	.LFE148:
 1070              		.section	.text.arm_bitreversal_16,"ax",%progbits
 1071              		.align	1
 1072              		.global	arm_bitreversal_16
 1073              		.syntax unified
 1074              		.thumb
 1075              		.thumb_func
 1077              	arm_bitreversal_16:
 1078              	.LVL92:
 1079              	.LFB149:
  65:Drivers/CMSIS/DSP/Source/TransformFunctions/arm_bitreversal2.c **** 
  66:Drivers/CMSIS/DSP/Source/TransformFunctions/arm_bitreversal2.c **** 
  67:Drivers/CMSIS/DSP/Source/TransformFunctions/arm_bitreversal2.c **** /**
  68:Drivers/CMSIS/DSP/Source/TransformFunctions/arm_bitreversal2.c ****   @brief         In-place 16 bit reversal function.
  69:Drivers/CMSIS/DSP/Source/TransformFunctions/arm_bitreversal2.c ****   @param[in,out] pSrc        points to in-place buffer of unknown 16-bit data type
  70:Drivers/CMSIS/DSP/Source/TransformFunctions/arm_bitreversal2.c ****   @param[in]     bitRevLen   bit reversal table length
  71:Drivers/CMSIS/DSP/Source/TransformFunctions/arm_bitreversal2.c ****   @param[in]     pBitRevTab  points to bit reversal table
  72:Drivers/CMSIS/DSP/Source/TransformFunctions/arm_bitreversal2.c ****   @return        none
  73:Drivers/CMSIS/DSP/Source/TransformFunctions/arm_bitreversal2.c **** */
  74:Drivers/CMSIS/DSP/Source/TransformFunctions/arm_bitreversal2.c **** 
  75:Drivers/CMSIS/DSP/Source/TransformFunctions/arm_bitreversal2.c **** void arm_bitreversal_16(
  76:Drivers/CMSIS/DSP/Source/TransformFunctions/arm_bitreversal2.c ****         uint16_t *pSrc, 
  77:Drivers/CMSIS/DSP/Source/TransformFunctions/arm_bitreversal2.c ****   const uint16_t bitRevLen, 
  78:Drivers/CMSIS/DSP/Source/TransformFunctions/arm_bitreversal2.c ****   const uint16_t *pBitRevTab)
  79:Drivers/CMSIS/DSP/Source/TransformFunctions/arm_bitreversal2.c **** {
 1080              		.loc 4 79 1 is_stmt 1 view -0
 1081              		.cfi_startproc
 1082              		@ args = 0, pretend = 0, frame = 0
 1083              		@ frame_needed = 0, uses_anonymous_args = 0
 1084              		.loc 4 79 1 is_stmt 0 view .LVU392
 1085 0000 30B5     		push	{r4, r5, lr}
 1086              	.LCFI4:
 1087              		.cfi_def_cfa_offset 12
 1088              		.cfi_offset 4, -12
 1089              		.cfi_offset 5, -8
 1090              		.cfi_offset 14, -4
  80:Drivers/CMSIS/DSP/Source/TransformFunctions/arm_bitreversal2.c ****   uint16_t a, b, i, tmp;
 1091              		.loc 4 80 3 is_stmt 1 view .LVU393
  81:Drivers/CMSIS/DSP/Source/TransformFunctions/arm_bitreversal2.c **** 
  82:Drivers/CMSIS/DSP/Source/TransformFunctions/arm_bitreversal2.c ****   for (i = 0; i < bitRevLen; )
 1092              		.loc 4 82 3 view .LVU394
 1093              	.LVL93:
 1094              		.loc 4 82 10 is_stmt 0 view .LVU395
 1095 0002 4FF0000E 		mov	lr, #0
 1096              		.loc 4 82 3 view .LVU396
 1097 0006 1FE0     		b	.L59
 1098              	.LVL94:
 1099              	.L60:
  83:Drivers/CMSIS/DSP/Source/TransformFunctions/arm_bitreversal2.c ****   {
ARM GAS  C:\Users\JustE\AppData\Local\Temp\ccF78sEd.s 			page 32


  84:Drivers/CMSIS/DSP/Source/TransformFunctions/arm_bitreversal2.c ****      a = pBitRevTab[i    ] >> 2;
 1100              		.loc 4 84 6 is_stmt 1 view .LVU397
 1101              		.loc 4 84 20 is_stmt 0 view .LVU398
 1102 0008 32F81EC0 		ldrh	ip, [r2, lr, lsl #1]
 1103              		.loc 4 84 8 view .LVU399
 1104 000c 4FEA9C0C 		lsr	ip, ip, #2
 1105              	.LVL95:
  85:Drivers/CMSIS/DSP/Source/TransformFunctions/arm_bitreversal2.c ****      b = pBitRevTab[i + 1] >> 2;
 1106              		.loc 4 85 6 is_stmt 1 view .LVU400
 1107              		.loc 4 85 20 is_stmt 0 view .LVU401
 1108 0010 0EF10103 		add	r3, lr, #1
 1109 0014 32F81330 		ldrh	r3, [r2, r3, lsl #1]
 1110              		.loc 4 85 8 view .LVU402
 1111 0018 9B08     		lsrs	r3, r3, #2
 1112              	.LVL96:
  86:Drivers/CMSIS/DSP/Source/TransformFunctions/arm_bitreversal2.c **** 
  87:Drivers/CMSIS/DSP/Source/TransformFunctions/arm_bitreversal2.c ****      //real
  88:Drivers/CMSIS/DSP/Source/TransformFunctions/arm_bitreversal2.c ****      tmp = pSrc[a];
 1113              		.loc 4 88 6 is_stmt 1 view .LVU403
 1114              		.loc 4 88 10 is_stmt 0 view .LVU404
 1115 001a 30F81C40 		ldrh	r4, [r0, ip, lsl #1]
 1116              	.LVL97:
  89:Drivers/CMSIS/DSP/Source/TransformFunctions/arm_bitreversal2.c ****      pSrc[a] = pSrc[b];
 1117              		.loc 4 89 6 is_stmt 1 view .LVU405
 1118              		.loc 4 89 20 is_stmt 0 view .LVU406
 1119 001e 30F81350 		ldrh	r5, [r0, r3, lsl #1]
 1120              		.loc 4 89 14 view .LVU407
 1121 0022 20F81C50 		strh	r5, [r0, ip, lsl #1]	@ movhi
  90:Drivers/CMSIS/DSP/Source/TransformFunctions/arm_bitreversal2.c ****      pSrc[b] = tmp;
 1122              		.loc 4 90 6 is_stmt 1 view .LVU408
 1123              		.loc 4 90 14 is_stmt 0 view .LVU409
 1124 0026 20F81340 		strh	r4, [r0, r3, lsl #1]	@ movhi
  91:Drivers/CMSIS/DSP/Source/TransformFunctions/arm_bitreversal2.c **** 
  92:Drivers/CMSIS/DSP/Source/TransformFunctions/arm_bitreversal2.c ****      //complex
  93:Drivers/CMSIS/DSP/Source/TransformFunctions/arm_bitreversal2.c ****      tmp = pSrc[a+1];
 1125              		.loc 4 93 6 is_stmt 1 view .LVU410
 1126              		.loc 4 93 16 is_stmt 0 view .LVU411
 1127 002a 0CF1010C 		add	ip, ip, #1
 1128              	.LVL98:
 1129              		.loc 4 93 10 view .LVU412
 1130 002e 30F81C40 		ldrh	r4, [r0, ip, lsl #1]
 1131              	.LVL99:
  94:Drivers/CMSIS/DSP/Source/TransformFunctions/arm_bitreversal2.c ****      pSrc[a+1] = pSrc[b+1];
 1132              		.loc 4 94 6 is_stmt 1 view .LVU413
 1133              		.loc 4 94 22 is_stmt 0 view .LVU414
 1134 0032 0133     		adds	r3, r3, #1
 1135              	.LVL100:
 1136              		.loc 4 94 22 view .LVU415
 1137 0034 30F81350 		ldrh	r5, [r0, r3, lsl #1]
 1138              		.loc 4 94 16 view .LVU416
 1139 0038 20F81C50 		strh	r5, [r0, ip, lsl #1]	@ movhi
  95:Drivers/CMSIS/DSP/Source/TransformFunctions/arm_bitreversal2.c ****      pSrc[b+1] = tmp;
 1140              		.loc 4 95 6 is_stmt 1 view .LVU417
 1141              		.loc 4 95 16 is_stmt 0 view .LVU418
 1142 003c 20F81340 		strh	r4, [r0, r3, lsl #1]	@ movhi
  96:Drivers/CMSIS/DSP/Source/TransformFunctions/arm_bitreversal2.c **** 
  97:Drivers/CMSIS/DSP/Source/TransformFunctions/arm_bitreversal2.c ****     i += 2;
ARM GAS  C:\Users\JustE\AppData\Local\Temp\ccF78sEd.s 			page 33


 1143              		.loc 4 97 5 is_stmt 1 view .LVU419
 1144              		.loc 4 97 7 is_stmt 0 view .LVU420
 1145 0040 0EF1020E 		add	lr, lr, #2
 1146              	.LVL101:
 1147              		.loc 4 97 7 view .LVU421
 1148 0044 1FFA8EFE 		uxth	lr, lr
 1149              	.LVL102:
 1150              	.L59:
  82:Drivers/CMSIS/DSP/Source/TransformFunctions/arm_bitreversal2.c ****   {
 1151              		.loc 4 82 17 is_stmt 1 discriminator 1 view .LVU422
 1152 0048 8E45     		cmp	lr, r1
 1153 004a DDD3     		bcc	.L60
  98:Drivers/CMSIS/DSP/Source/TransformFunctions/arm_bitreversal2.c ****   }
  99:Drivers/CMSIS/DSP/Source/TransformFunctions/arm_bitreversal2.c **** }
 1154              		.loc 4 99 1 is_stmt 0 view .LVU423
 1155 004c 30BD     		pop	{r4, r5, pc}
 1156              		.cfi_endproc
 1157              	.LFE149:
 1159              		.section	.text.arm_radix2_butterfly_f32,"ax",%progbits
 1160              		.align	1
 1161              		.global	arm_radix2_butterfly_f32
 1162              		.syntax unified
 1163              		.thumb
 1164              		.thumb_func
 1166              	arm_radix2_butterfly_f32:
 1167              	.LVL103:
 1168              	.LFB160:
 1169              		.file 5 "Drivers/CMSIS/DSP/Source/TransformFunctions/arm_cfft_radix2_f32.c"
   1:Drivers/CMSIS/DSP/Source/TransformFunctions/arm_cfft_radix2_f32.c **** /* ----------------------------------------------------------------------
   2:Drivers/CMSIS/DSP/Source/TransformFunctions/arm_cfft_radix2_f32.c ****  * Project:      CMSIS DSP Library
   3:Drivers/CMSIS/DSP/Source/TransformFunctions/arm_cfft_radix2_f32.c ****  * Title:        arm_cfft_radix2_f32.c
   4:Drivers/CMSIS/DSP/Source/TransformFunctions/arm_cfft_radix2_f32.c ****  * Description:  Radix-2 Decimation in Frequency CFFT & CIFFT Floating point processing function
   5:Drivers/CMSIS/DSP/Source/TransformFunctions/arm_cfft_radix2_f32.c ****  *
   6:Drivers/CMSIS/DSP/Source/TransformFunctions/arm_cfft_radix2_f32.c ****  * $Date:        18. March 2019
   7:Drivers/CMSIS/DSP/Source/TransformFunctions/arm_cfft_radix2_f32.c ****  * $Revision:    V1.6.0
   8:Drivers/CMSIS/DSP/Source/TransformFunctions/arm_cfft_radix2_f32.c ****  *
   9:Drivers/CMSIS/DSP/Source/TransformFunctions/arm_cfft_radix2_f32.c ****  * Target Processor: Cortex-M cores
  10:Drivers/CMSIS/DSP/Source/TransformFunctions/arm_cfft_radix2_f32.c ****  * -------------------------------------------------------------------- */
  11:Drivers/CMSIS/DSP/Source/TransformFunctions/arm_cfft_radix2_f32.c **** /*
  12:Drivers/CMSIS/DSP/Source/TransformFunctions/arm_cfft_radix2_f32.c ****  * Copyright (C) 2010-2019 ARM Limited or its affiliates. All rights reserved.
  13:Drivers/CMSIS/DSP/Source/TransformFunctions/arm_cfft_radix2_f32.c ****  *
  14:Drivers/CMSIS/DSP/Source/TransformFunctions/arm_cfft_radix2_f32.c ****  * SPDX-License-Identifier: Apache-2.0
  15:Drivers/CMSIS/DSP/Source/TransformFunctions/arm_cfft_radix2_f32.c ****  *
  16:Drivers/CMSIS/DSP/Source/TransformFunctions/arm_cfft_radix2_f32.c ****  * Licensed under the Apache License, Version 2.0 (the License); you may
  17:Drivers/CMSIS/DSP/Source/TransformFunctions/arm_cfft_radix2_f32.c ****  * not use this file except in compliance with the License.
  18:Drivers/CMSIS/DSP/Source/TransformFunctions/arm_cfft_radix2_f32.c ****  * You may obtain a copy of the License at
  19:Drivers/CMSIS/DSP/Source/TransformFunctions/arm_cfft_radix2_f32.c ****  *
  20:Drivers/CMSIS/DSP/Source/TransformFunctions/arm_cfft_radix2_f32.c ****  * www.apache.org/licenses/LICENSE-2.0
  21:Drivers/CMSIS/DSP/Source/TransformFunctions/arm_cfft_radix2_f32.c ****  *
  22:Drivers/CMSIS/DSP/Source/TransformFunctions/arm_cfft_radix2_f32.c ****  * Unless required by applicable law or agreed to in writing, software
  23:Drivers/CMSIS/DSP/Source/TransformFunctions/arm_cfft_radix2_f32.c ****  * distributed under the License is distributed on an AS IS BASIS, WITHOUT
  24:Drivers/CMSIS/DSP/Source/TransformFunctions/arm_cfft_radix2_f32.c ****  * WARRANTIES OR CONDITIONS OF ANY KIND, either express or implied.
  25:Drivers/CMSIS/DSP/Source/TransformFunctions/arm_cfft_radix2_f32.c ****  * See the License for the specific language governing permissions and
  26:Drivers/CMSIS/DSP/Source/TransformFunctions/arm_cfft_radix2_f32.c ****  * limitations under the License.
  27:Drivers/CMSIS/DSP/Source/TransformFunctions/arm_cfft_radix2_f32.c ****  */
  28:Drivers/CMSIS/DSP/Source/TransformFunctions/arm_cfft_radix2_f32.c **** 
  29:Drivers/CMSIS/DSP/Source/TransformFunctions/arm_cfft_radix2_f32.c **** #include "arm_math.h"
ARM GAS  C:\Users\JustE\AppData\Local\Temp\ccF78sEd.s 			page 34


  30:Drivers/CMSIS/DSP/Source/TransformFunctions/arm_cfft_radix2_f32.c **** 
  31:Drivers/CMSIS/DSP/Source/TransformFunctions/arm_cfft_radix2_f32.c **** void arm_radix2_butterfly_f32(
  32:Drivers/CMSIS/DSP/Source/TransformFunctions/arm_cfft_radix2_f32.c ****         float32_t * pSrc,
  33:Drivers/CMSIS/DSP/Source/TransformFunctions/arm_cfft_radix2_f32.c ****         uint32_t fftLen,
  34:Drivers/CMSIS/DSP/Source/TransformFunctions/arm_cfft_radix2_f32.c ****   const float32_t * pCoef,
  35:Drivers/CMSIS/DSP/Source/TransformFunctions/arm_cfft_radix2_f32.c ****         uint16_t twidCoefModifier);
  36:Drivers/CMSIS/DSP/Source/TransformFunctions/arm_cfft_radix2_f32.c **** 
  37:Drivers/CMSIS/DSP/Source/TransformFunctions/arm_cfft_radix2_f32.c **** void arm_radix2_butterfly_inverse_f32(
  38:Drivers/CMSIS/DSP/Source/TransformFunctions/arm_cfft_radix2_f32.c ****         float32_t * pSrc,
  39:Drivers/CMSIS/DSP/Source/TransformFunctions/arm_cfft_radix2_f32.c ****         uint32_t fftLen,
  40:Drivers/CMSIS/DSP/Source/TransformFunctions/arm_cfft_radix2_f32.c ****   const float32_t * pCoef,
  41:Drivers/CMSIS/DSP/Source/TransformFunctions/arm_cfft_radix2_f32.c ****         uint16_t twidCoefModifier,
  42:Drivers/CMSIS/DSP/Source/TransformFunctions/arm_cfft_radix2_f32.c ****         float32_t onebyfftLen);
  43:Drivers/CMSIS/DSP/Source/TransformFunctions/arm_cfft_radix2_f32.c **** 
  44:Drivers/CMSIS/DSP/Source/TransformFunctions/arm_cfft_radix2_f32.c **** extern void arm_bitreversal_f32(
  45:Drivers/CMSIS/DSP/Source/TransformFunctions/arm_cfft_radix2_f32.c ****         float32_t * pSrc,
  46:Drivers/CMSIS/DSP/Source/TransformFunctions/arm_cfft_radix2_f32.c ****         uint16_t fftSize,
  47:Drivers/CMSIS/DSP/Source/TransformFunctions/arm_cfft_radix2_f32.c ****         uint16_t bitRevFactor,
  48:Drivers/CMSIS/DSP/Source/TransformFunctions/arm_cfft_radix2_f32.c ****   const uint16_t * pBitRevTab);
  49:Drivers/CMSIS/DSP/Source/TransformFunctions/arm_cfft_radix2_f32.c **** 
  50:Drivers/CMSIS/DSP/Source/TransformFunctions/arm_cfft_radix2_f32.c **** /**
  51:Drivers/CMSIS/DSP/Source/TransformFunctions/arm_cfft_radix2_f32.c ****   @ingroup groupTransforms
  52:Drivers/CMSIS/DSP/Source/TransformFunctions/arm_cfft_radix2_f32.c ****  */
  53:Drivers/CMSIS/DSP/Source/TransformFunctions/arm_cfft_radix2_f32.c **** 
  54:Drivers/CMSIS/DSP/Source/TransformFunctions/arm_cfft_radix2_f32.c **** /**
  55:Drivers/CMSIS/DSP/Source/TransformFunctions/arm_cfft_radix2_f32.c ****   @addtogroup ComplexFFT
  56:Drivers/CMSIS/DSP/Source/TransformFunctions/arm_cfft_radix2_f32.c ****   @{
  57:Drivers/CMSIS/DSP/Source/TransformFunctions/arm_cfft_radix2_f32.c ****  */
  58:Drivers/CMSIS/DSP/Source/TransformFunctions/arm_cfft_radix2_f32.c **** 
  59:Drivers/CMSIS/DSP/Source/TransformFunctions/arm_cfft_radix2_f32.c **** /**
  60:Drivers/CMSIS/DSP/Source/TransformFunctions/arm_cfft_radix2_f32.c ****   @brief         Radix-2 CFFT/CIFFT.
  61:Drivers/CMSIS/DSP/Source/TransformFunctions/arm_cfft_radix2_f32.c ****   @deprecated    Do not use this function. It has been superseded by \ref arm_cfft_f32 and will be 
  62:Drivers/CMSIS/DSP/Source/TransformFunctions/arm_cfft_radix2_f32.c ****   @param[in]     S    points to an instance of the floating-point Radix-2 CFFT/CIFFT structure
  63:Drivers/CMSIS/DSP/Source/TransformFunctions/arm_cfft_radix2_f32.c ****   @param[in,out] pSrc points to the complex data buffer of size <code>2*fftLen</code>. Processing o
  64:Drivers/CMSIS/DSP/Source/TransformFunctions/arm_cfft_radix2_f32.c ****   @return        none
  65:Drivers/CMSIS/DSP/Source/TransformFunctions/arm_cfft_radix2_f32.c ****  */
  66:Drivers/CMSIS/DSP/Source/TransformFunctions/arm_cfft_radix2_f32.c **** 
  67:Drivers/CMSIS/DSP/Source/TransformFunctions/arm_cfft_radix2_f32.c **** void arm_cfft_radix2_f32(
  68:Drivers/CMSIS/DSP/Source/TransformFunctions/arm_cfft_radix2_f32.c **** const arm_cfft_radix2_instance_f32 * S,
  69:Drivers/CMSIS/DSP/Source/TransformFunctions/arm_cfft_radix2_f32.c ****       float32_t * pSrc)
  70:Drivers/CMSIS/DSP/Source/TransformFunctions/arm_cfft_radix2_f32.c **** {
  71:Drivers/CMSIS/DSP/Source/TransformFunctions/arm_cfft_radix2_f32.c **** 
  72:Drivers/CMSIS/DSP/Source/TransformFunctions/arm_cfft_radix2_f32.c ****    if (S->ifftFlag == 1U)
  73:Drivers/CMSIS/DSP/Source/TransformFunctions/arm_cfft_radix2_f32.c ****    {
  74:Drivers/CMSIS/DSP/Source/TransformFunctions/arm_cfft_radix2_f32.c ****       /* Complex IFFT radix-2 */
  75:Drivers/CMSIS/DSP/Source/TransformFunctions/arm_cfft_radix2_f32.c ****       arm_radix2_butterfly_inverse_f32(pSrc, S->fftLen, S->pTwiddle,
  76:Drivers/CMSIS/DSP/Source/TransformFunctions/arm_cfft_radix2_f32.c ****       S->twidCoefModifier, S->onebyfftLen);
  77:Drivers/CMSIS/DSP/Source/TransformFunctions/arm_cfft_radix2_f32.c ****    }
  78:Drivers/CMSIS/DSP/Source/TransformFunctions/arm_cfft_radix2_f32.c ****    else
  79:Drivers/CMSIS/DSP/Source/TransformFunctions/arm_cfft_radix2_f32.c ****    {
  80:Drivers/CMSIS/DSP/Source/TransformFunctions/arm_cfft_radix2_f32.c ****       /* Complex FFT radix-2 */
  81:Drivers/CMSIS/DSP/Source/TransformFunctions/arm_cfft_radix2_f32.c ****       arm_radix2_butterfly_f32(pSrc, S->fftLen, S->pTwiddle,
  82:Drivers/CMSIS/DSP/Source/TransformFunctions/arm_cfft_radix2_f32.c ****       S->twidCoefModifier);
  83:Drivers/CMSIS/DSP/Source/TransformFunctions/arm_cfft_radix2_f32.c ****    }
  84:Drivers/CMSIS/DSP/Source/TransformFunctions/arm_cfft_radix2_f32.c **** 
  85:Drivers/CMSIS/DSP/Source/TransformFunctions/arm_cfft_radix2_f32.c ****    if (S->bitReverseFlag == 1U)
  86:Drivers/CMSIS/DSP/Source/TransformFunctions/arm_cfft_radix2_f32.c ****    {
ARM GAS  C:\Users\JustE\AppData\Local\Temp\ccF78sEd.s 			page 35


  87:Drivers/CMSIS/DSP/Source/TransformFunctions/arm_cfft_radix2_f32.c ****       /* Bit Reversal */
  88:Drivers/CMSIS/DSP/Source/TransformFunctions/arm_cfft_radix2_f32.c ****       arm_bitreversal_f32(pSrc, S->fftLen, S->bitRevFactor, S->pBitRevTable);
  89:Drivers/CMSIS/DSP/Source/TransformFunctions/arm_cfft_radix2_f32.c ****    }
  90:Drivers/CMSIS/DSP/Source/TransformFunctions/arm_cfft_radix2_f32.c **** 
  91:Drivers/CMSIS/DSP/Source/TransformFunctions/arm_cfft_radix2_f32.c **** }
  92:Drivers/CMSIS/DSP/Source/TransformFunctions/arm_cfft_radix2_f32.c **** 
  93:Drivers/CMSIS/DSP/Source/TransformFunctions/arm_cfft_radix2_f32.c **** 
  94:Drivers/CMSIS/DSP/Source/TransformFunctions/arm_cfft_radix2_f32.c **** /**
  95:Drivers/CMSIS/DSP/Source/TransformFunctions/arm_cfft_radix2_f32.c ****   @} end of ComplexFFT group
  96:Drivers/CMSIS/DSP/Source/TransformFunctions/arm_cfft_radix2_f32.c ****  */
  97:Drivers/CMSIS/DSP/Source/TransformFunctions/arm_cfft_radix2_f32.c **** 
  98:Drivers/CMSIS/DSP/Source/TransformFunctions/arm_cfft_radix2_f32.c **** 
  99:Drivers/CMSIS/DSP/Source/TransformFunctions/arm_cfft_radix2_f32.c **** 
 100:Drivers/CMSIS/DSP/Source/TransformFunctions/arm_cfft_radix2_f32.c **** /* ----------------------------------------------------------------------
 101:Drivers/CMSIS/DSP/Source/TransformFunctions/arm_cfft_radix2_f32.c ****  ** Internal helper function used by the FFTs
 102:Drivers/CMSIS/DSP/Source/TransformFunctions/arm_cfft_radix2_f32.c ****  ** ------------------------------------------------------------------- */
 103:Drivers/CMSIS/DSP/Source/TransformFunctions/arm_cfft_radix2_f32.c **** 
 104:Drivers/CMSIS/DSP/Source/TransformFunctions/arm_cfft_radix2_f32.c **** /**
 105:Drivers/CMSIS/DSP/Source/TransformFunctions/arm_cfft_radix2_f32.c ****   brief  Core function for the floating-point CFFT butterfly process.
 106:Drivers/CMSIS/DSP/Source/TransformFunctions/arm_cfft_radix2_f32.c ****   param[in,out] pSrc             points to in-place buffer of floating-point data type
 107:Drivers/CMSIS/DSP/Source/TransformFunctions/arm_cfft_radix2_f32.c ****   param[in]     fftLen           length of the FFT
 108:Drivers/CMSIS/DSP/Source/TransformFunctions/arm_cfft_radix2_f32.c ****   param[in]     pCoef            points to twiddle coefficient buffer
 109:Drivers/CMSIS/DSP/Source/TransformFunctions/arm_cfft_radix2_f32.c ****   param[in]     twidCoefModifier twiddle coefficient modifier that supports different size FFTs wit
 110:Drivers/CMSIS/DSP/Source/TransformFunctions/arm_cfft_radix2_f32.c ****   return        none
 111:Drivers/CMSIS/DSP/Source/TransformFunctions/arm_cfft_radix2_f32.c ****  */
 112:Drivers/CMSIS/DSP/Source/TransformFunctions/arm_cfft_radix2_f32.c **** 
 113:Drivers/CMSIS/DSP/Source/TransformFunctions/arm_cfft_radix2_f32.c **** void arm_radix2_butterfly_f32(
 114:Drivers/CMSIS/DSP/Source/TransformFunctions/arm_cfft_radix2_f32.c ****         float32_t * pSrc,
 115:Drivers/CMSIS/DSP/Source/TransformFunctions/arm_cfft_radix2_f32.c ****         uint32_t fftLen,
 116:Drivers/CMSIS/DSP/Source/TransformFunctions/arm_cfft_radix2_f32.c ****   const float32_t * pCoef,
 117:Drivers/CMSIS/DSP/Source/TransformFunctions/arm_cfft_radix2_f32.c ****         uint16_t twidCoefModifier)
 118:Drivers/CMSIS/DSP/Source/TransformFunctions/arm_cfft_radix2_f32.c **** {
 1170              		.loc 5 118 1 is_stmt 1 view -0
 1171              		.cfi_startproc
 1172              		@ args = 0, pretend = 0, frame = 8
 1173              		@ frame_needed = 0, uses_anonymous_args = 0
 1174              		.loc 5 118 1 is_stmt 0 view .LVU425
 1175 0000 2DE9F04F 		push	{r4, r5, r6, r7, r8, r9, r10, fp, lr}
 1176              	.LCFI5:
 1177              		.cfi_def_cfa_offset 36
 1178              		.cfi_offset 4, -36
 1179              		.cfi_offset 5, -32
 1180              		.cfi_offset 6, -28
 1181              		.cfi_offset 7, -24
 1182              		.cfi_offset 8, -20
 1183              		.cfi_offset 9, -16
 1184              		.cfi_offset 10, -12
 1185              		.cfi_offset 11, -8
 1186              		.cfi_offset 14, -4
 1187 0004 83B0     		sub	sp, sp, #12
 1188              	.LCFI6:
 1189              		.cfi_def_cfa_offset 48
 1190 0006 8446     		mov	ip, r0
 1191 0008 0E46     		mov	r6, r1
 1192 000a 9046     		mov	r8, r2
 1193 000c 9E46     		mov	lr, r3
 119:Drivers/CMSIS/DSP/Source/TransformFunctions/arm_cfft_radix2_f32.c **** 
ARM GAS  C:\Users\JustE\AppData\Local\Temp\ccF78sEd.s 			page 36


 120:Drivers/CMSIS/DSP/Source/TransformFunctions/arm_cfft_radix2_f32.c ****         uint32_t i, j, k, l;
 1194              		.loc 5 120 9 is_stmt 1 view .LVU426
 121:Drivers/CMSIS/DSP/Source/TransformFunctions/arm_cfft_radix2_f32.c ****         uint32_t n1, n2, ia;
 1195              		.loc 5 121 9 view .LVU427
 122:Drivers/CMSIS/DSP/Source/TransformFunctions/arm_cfft_radix2_f32.c ****         float32_t xt, yt, cosVal, sinVal;
 1196              		.loc 5 122 9 view .LVU428
 123:Drivers/CMSIS/DSP/Source/TransformFunctions/arm_cfft_radix2_f32.c ****         float32_t p0, p1, p2, p3;
 1197              		.loc 5 123 9 view .LVU429
 124:Drivers/CMSIS/DSP/Source/TransformFunctions/arm_cfft_radix2_f32.c ****         float32_t a0, a1;
 1198              		.loc 5 124 9 view .LVU430
 125:Drivers/CMSIS/DSP/Source/TransformFunctions/arm_cfft_radix2_f32.c **** 
 126:Drivers/CMSIS/DSP/Source/TransformFunctions/arm_cfft_radix2_f32.c **** #if defined (ARM_MATH_DSP)
 127:Drivers/CMSIS/DSP/Source/TransformFunctions/arm_cfft_radix2_f32.c **** 
 128:Drivers/CMSIS/DSP/Source/TransformFunctions/arm_cfft_radix2_f32.c ****    /*  Initializations for the first stage */
 129:Drivers/CMSIS/DSP/Source/TransformFunctions/arm_cfft_radix2_f32.c ****    n2 = fftLen >> 1;
 1199              		.loc 5 129 4 view .LVU431
 1200              		.loc 5 129 7 is_stmt 0 view .LVU432
 1201 000e 4B08     		lsrs	r3, r1, #1
 1202              	.LVL104:
 130:Drivers/CMSIS/DSP/Source/TransformFunctions/arm_cfft_radix2_f32.c ****    ia = 0;
 1203              		.loc 5 130 4 is_stmt 1 view .LVU433
 131:Drivers/CMSIS/DSP/Source/TransformFunctions/arm_cfft_radix2_f32.c ****    i = 0;
 1204              		.loc 5 131 4 view .LVU434
 132:Drivers/CMSIS/DSP/Source/TransformFunctions/arm_cfft_radix2_f32.c **** 
 133:Drivers/CMSIS/DSP/Source/TransformFunctions/arm_cfft_radix2_f32.c ****    // loop for groups
 134:Drivers/CMSIS/DSP/Source/TransformFunctions/arm_cfft_radix2_f32.c ****    for (k = n2; k > 0; k--)
 1205              		.loc 5 134 4 view .LVU435
 130:Drivers/CMSIS/DSP/Source/TransformFunctions/arm_cfft_radix2_f32.c ****    i = 0;
 1206              		.loc 5 130 7 is_stmt 0 view .LVU436
 1207 0010 0025     		movs	r5, #0
 131:Drivers/CMSIS/DSP/Source/TransformFunctions/arm_cfft_radix2_f32.c ****    i = 0;
 1208              		.loc 5 131 6 view .LVU437
 1209 0012 2C46     		mov	r4, r5
 1210 0014 1F46     		mov	r7, r3
 1211              		.loc 5 134 4 view .LVU438
 1212 0016 3AE0     		b	.L63
 1213              	.LVL105:
 1214              	.L64:
 135:Drivers/CMSIS/DSP/Source/TransformFunctions/arm_cfft_radix2_f32.c ****    {
 136:Drivers/CMSIS/DSP/Source/TransformFunctions/arm_cfft_radix2_f32.c ****       cosVal = pCoef[ia * 2];
 1215              		.loc 5 136 7 is_stmt 1 discriminator 3 view .LVU439
 1216              		.loc 5 136 21 is_stmt 0 discriminator 3 view .LVU440
 1217 0018 EA00     		lsls	r2, r5, #3
 1218 001a 08EBC501 		add	r1, r8, r5, lsl #3
 1219              		.loc 5 136 14 discriminator 3 view .LVU441
 1220 001e D1ED007A 		vldr.32	s15, [r1]
 1221              	.LVL106:
 137:Drivers/CMSIS/DSP/Source/TransformFunctions/arm_cfft_radix2_f32.c ****       sinVal = pCoef[(ia * 2) + 1];
 1222              		.loc 5 137 7 is_stmt 1 discriminator 3 view .LVU442
 1223              		.loc 5 137 21 is_stmt 0 discriminator 3 view .LVU443
 1224 0022 0432     		adds	r2, r2, #4
 1225 0024 4244     		add	r2, r2, r8
 1226              		.loc 5 137 14 discriminator 3 view .LVU444
 1227 0026 D2ED006A 		vldr.32	s13, [r2]
 1228              	.LVL107:
 138:Drivers/CMSIS/DSP/Source/TransformFunctions/arm_cfft_radix2_f32.c **** 
 139:Drivers/CMSIS/DSP/Source/TransformFunctions/arm_cfft_radix2_f32.c ****       /*  Twiddle coefficients index modifier */
ARM GAS  C:\Users\JustE\AppData\Local\Temp\ccF78sEd.s 			page 37


 140:Drivers/CMSIS/DSP/Source/TransformFunctions/arm_cfft_radix2_f32.c ****       ia += twidCoefModifier;
 1229              		.loc 5 140 7 is_stmt 1 discriminator 3 view .LVU445
 1230              		.loc 5 140 10 is_stmt 0 discriminator 3 view .LVU446
 1231 002a 7544     		add	r5, r5, lr
 1232              	.LVL108:
 141:Drivers/CMSIS/DSP/Source/TransformFunctions/arm_cfft_radix2_f32.c **** 
 142:Drivers/CMSIS/DSP/Source/TransformFunctions/arm_cfft_radix2_f32.c ****       /*  index calculation for the input as, */
 143:Drivers/CMSIS/DSP/Source/TransformFunctions/arm_cfft_radix2_f32.c ****       /*  pSrc[i + 0], pSrc[i + fftLen/1] */
 144:Drivers/CMSIS/DSP/Source/TransformFunctions/arm_cfft_radix2_f32.c ****       l = i + n2;
 1233              		.loc 5 144 7 is_stmt 1 discriminator 3 view .LVU447
 1234              		.loc 5 144 9 is_stmt 0 discriminator 3 view .LVU448
 1235 002c E018     		adds	r0, r4, r3
 1236              	.LVL109:
 145:Drivers/CMSIS/DSP/Source/TransformFunctions/arm_cfft_radix2_f32.c **** 
 146:Drivers/CMSIS/DSP/Source/TransformFunctions/arm_cfft_radix2_f32.c ****       /*  Butterfly implementation */
 147:Drivers/CMSIS/DSP/Source/TransformFunctions/arm_cfft_radix2_f32.c ****       a0 = pSrc[2 * i] + pSrc[2 * l];
 1237              		.loc 5 147 7 is_stmt 1 discriminator 3 view .LVU449
 1238              		.loc 5 147 16 is_stmt 0 discriminator 3 view .LVU450
 1239 002e E100     		lsls	r1, r4, #3
 1240 0030 0CEBC409 		add	r9, ip, r4, lsl #3
 1241 0034 99ED007A 		vldr.32	s14, [r9]
 1242              		.loc 5 147 30 discriminator 3 view .LVU451
 1243 0038 C200     		lsls	r2, r0, #3
 1244 003a 0CEBC000 		add	r0, ip, r0, lsl #3
 1245              	.LVL110:
 1246              		.loc 5 147 30 discriminator 3 view .LVU452
 1247 003e 90ED006A 		vldr.32	s12, [r0]
 1248              		.loc 5 147 10 discriminator 3 view .LVU453
 1249 0042 37EE064A 		vadd.f32	s8, s14, s12
 1250              	.LVL111:
 148:Drivers/CMSIS/DSP/Source/TransformFunctions/arm_cfft_radix2_f32.c ****       xt = pSrc[2 * i] - pSrc[2 * l];
 1251              		.loc 5 148 7 is_stmt 1 discriminator 3 view .LVU454
 1252              		.loc 5 148 10 is_stmt 0 discriminator 3 view .LVU455
 1253 0046 37EE467A 		vsub.f32	s14, s14, s12
 1254              	.LVL112:
 149:Drivers/CMSIS/DSP/Source/TransformFunctions/arm_cfft_radix2_f32.c **** 
 150:Drivers/CMSIS/DSP/Source/TransformFunctions/arm_cfft_radix2_f32.c ****       yt = pSrc[2 * i + 1] - pSrc[2 * l + 1];
 1255              		.loc 5 150 7 is_stmt 1 discriminator 3 view .LVU456
 1256              		.loc 5 150 16 is_stmt 0 discriminator 3 view .LVU457
 1257 004a 0431     		adds	r1, r1, #4
 1258 004c 6144     		add	r1, r1, ip
 1259 004e 91ED006A 		vldr.32	s12, [r1]
 1260              		.loc 5 150 34 discriminator 3 view .LVU458
 1261 0052 0432     		adds	r2, r2, #4
 1262 0054 6244     		add	r2, r2, ip
 1263 0056 D2ED005A 		vldr.32	s11, [r2]
 1264              		.loc 5 150 10 discriminator 3 view .LVU459
 1265 005a 36EE655A 		vsub.f32	s10, s12, s11
 1266              	.LVL113:
 151:Drivers/CMSIS/DSP/Source/TransformFunctions/arm_cfft_radix2_f32.c ****       a1 = pSrc[2 * l + 1] + pSrc[2 * i + 1];
 1267              		.loc 5 151 7 is_stmt 1 discriminator 3 view .LVU460
 1268              		.loc 5 151 10 is_stmt 0 discriminator 3 view .LVU461
 1269 005e 36EE256A 		vadd.f32	s12, s12, s11
 1270              	.LVL114:
 152:Drivers/CMSIS/DSP/Source/TransformFunctions/arm_cfft_radix2_f32.c **** 
 153:Drivers/CMSIS/DSP/Source/TransformFunctions/arm_cfft_radix2_f32.c ****       p0 = xt * cosVal;
 1271              		.loc 5 153 7 is_stmt 1 discriminator 3 view .LVU462
ARM GAS  C:\Users\JustE\AppData\Local\Temp\ccF78sEd.s 			page 38


 1272              		.loc 5 153 10 is_stmt 0 discriminator 3 view .LVU463
 1273 0062 67EE875A 		vmul.f32	s11, s15, s14
 1274              	.LVL115:
 154:Drivers/CMSIS/DSP/Source/TransformFunctions/arm_cfft_radix2_f32.c ****       p1 = yt * sinVal;
 1275              		.loc 5 154 7 is_stmt 1 discriminator 3 view .LVU464
 1276              		.loc 5 154 10 is_stmt 0 discriminator 3 view .LVU465
 1277 0066 66EE854A 		vmul.f32	s9, s13, s10
 1278              	.LVL116:
 155:Drivers/CMSIS/DSP/Source/TransformFunctions/arm_cfft_radix2_f32.c ****       p2 = yt * cosVal;
 1279              		.loc 5 155 7 is_stmt 1 discriminator 3 view .LVU466
 1280              		.loc 5 155 10 is_stmt 0 discriminator 3 view .LVU467
 1281 006a 67EE857A 		vmul.f32	s15, s15, s10
 1282              	.LVL117:
 156:Drivers/CMSIS/DSP/Source/TransformFunctions/arm_cfft_radix2_f32.c ****       p3 = xt * sinVal;
 1283              		.loc 5 156 7 is_stmt 1 discriminator 3 view .LVU468
 1284              		.loc 5 156 10 is_stmt 0 discriminator 3 view .LVU469
 1285 006e 66EE876A 		vmul.f32	s13, s13, s14
 1286              	.LVL118:
 157:Drivers/CMSIS/DSP/Source/TransformFunctions/arm_cfft_radix2_f32.c **** 
 158:Drivers/CMSIS/DSP/Source/TransformFunctions/arm_cfft_radix2_f32.c ****       pSrc[2 * i]     = a0;
 1287              		.loc 5 158 7 is_stmt 1 discriminator 3 view .LVU470
 1288              		.loc 5 158 23 is_stmt 0 discriminator 3 view .LVU471
 1289 0072 89ED004A 		vstr.32	s8, [r9]
 159:Drivers/CMSIS/DSP/Source/TransformFunctions/arm_cfft_radix2_f32.c ****       pSrc[2 * i + 1] = a1;
 1290              		.loc 5 159 7 is_stmt 1 discriminator 3 view .LVU472
 1291              		.loc 5 159 23 is_stmt 0 discriminator 3 view .LVU473
 1292 0076 81ED006A 		vstr.32	s12, [r1]
 160:Drivers/CMSIS/DSP/Source/TransformFunctions/arm_cfft_radix2_f32.c **** 
 161:Drivers/CMSIS/DSP/Source/TransformFunctions/arm_cfft_radix2_f32.c ****       pSrc[2 * l]     = p0 + p1;
 1293              		.loc 5 161 7 is_stmt 1 discriminator 3 view .LVU474
 1294              		.loc 5 161 28 is_stmt 0 discriminator 3 view .LVU475
 1295 007a 35EEA47A 		vadd.f32	s14, s11, s9
 1296              	.LVL119:
 1297              		.loc 5 161 23 discriminator 3 view .LVU476
 1298 007e 80ED007A 		vstr.32	s14, [r0]
 162:Drivers/CMSIS/DSP/Source/TransformFunctions/arm_cfft_radix2_f32.c ****       pSrc[2 * l + 1] = p2 - p3;
 1299              		.loc 5 162 7 is_stmt 1 discriminator 3 view .LVU477
 1300              		.loc 5 162 28 is_stmt 0 discriminator 3 view .LVU478
 1301 0082 77EEE67A 		vsub.f32	s15, s15, s13
 1302              	.LVL120:
 1303              		.loc 5 162 23 discriminator 3 view .LVU479
 1304 0086 C2ED007A 		vstr.32	s15, [r2]
 163:Drivers/CMSIS/DSP/Source/TransformFunctions/arm_cfft_radix2_f32.c **** 
 164:Drivers/CMSIS/DSP/Source/TransformFunctions/arm_cfft_radix2_f32.c ****       i++;
 1305              		.loc 5 164 7 is_stmt 1 discriminator 3 view .LVU480
 1306              		.loc 5 164 8 is_stmt 0 discriminator 3 view .LVU481
 1307 008a 0134     		adds	r4, r4, #1
 1308              	.LVL121:
 134:Drivers/CMSIS/DSP/Source/TransformFunctions/arm_cfft_radix2_f32.c ****    {
 1309              		.loc 5 134 25 is_stmt 1 discriminator 3 view .LVU482
 1310 008c 013F     		subs	r7, r7, #1
 1311              	.LVL122:
 1312              	.L63:
 134:Drivers/CMSIS/DSP/Source/TransformFunctions/arm_cfft_radix2_f32.c ****    {
 1313              		.loc 5 134 19 discriminator 1 view .LVU483
 1314 008e 002F     		cmp	r7, #0
 1315 0090 C2D1     		bne	.L64
ARM GAS  C:\Users\JustE\AppData\Local\Temp\ccF78sEd.s 			page 39


 165:Drivers/CMSIS/DSP/Source/TransformFunctions/arm_cfft_radix2_f32.c ****    }                             // groups loop end
 166:Drivers/CMSIS/DSP/Source/TransformFunctions/arm_cfft_radix2_f32.c **** 
 167:Drivers/CMSIS/DSP/Source/TransformFunctions/arm_cfft_radix2_f32.c ****    twidCoefModifier <<= 1U;
 1316              		.loc 5 167 4 view .LVU484
 1317              		.loc 5 167 21 is_stmt 0 view .LVU485
 1318 0092 4FEA4E0E 		lsl	lr, lr, #1
 1319 0096 1FFA8EF9 		uxth	r9, lr
 1320              	.LVL123:
 168:Drivers/CMSIS/DSP/Source/TransformFunctions/arm_cfft_radix2_f32.c **** 
 169:Drivers/CMSIS/DSP/Source/TransformFunctions/arm_cfft_radix2_f32.c ****    // loop for stage
 170:Drivers/CMSIS/DSP/Source/TransformFunctions/arm_cfft_radix2_f32.c ****    for (k = n2; k > 2; k = k >> 1)
 1321              		.loc 5 170 4 is_stmt 1 view .LVU486
 129:Drivers/CMSIS/DSP/Source/TransformFunctions/arm_cfft_radix2_f32.c ****    ia = 0;
 1322              		.loc 5 129 7 is_stmt 0 view .LVU487
 1323 009a 1D46     		mov	r5, r3
 1324              	.LVL124:
 129:Drivers/CMSIS/DSP/Source/TransformFunctions/arm_cfft_radix2_f32.c ****    ia = 0;
 1325              		.loc 5 129 7 view .LVU488
 1326 009c 3A46     		mov	r2, r7
 1327              		.loc 5 170 4 view .LVU489
 1328 009e 53E0     		b	.L65
 1329              	.LVL125:
 1330              	.L68:
 171:Drivers/CMSIS/DSP/Source/TransformFunctions/arm_cfft_radix2_f32.c ****    {
 172:Drivers/CMSIS/DSP/Source/TransformFunctions/arm_cfft_radix2_f32.c ****       n1 = n2;
 1331              		.loc 5 172 7 is_stmt 1 view .LVU490
 173:Drivers/CMSIS/DSP/Source/TransformFunctions/arm_cfft_radix2_f32.c ****       n2 = n2 >> 1;
 1332              		.loc 5 173 7 view .LVU491
 1333              		.loc 5 173 10 is_stmt 0 view .LVU492
 1334 00a0 4FEA550E 		lsr	lr, r5, #1
 1335              	.LVL126:
 174:Drivers/CMSIS/DSP/Source/TransformFunctions/arm_cfft_radix2_f32.c ****       ia = 0;
 1336              		.loc 5 174 7 is_stmt 1 view .LVU493
 175:Drivers/CMSIS/DSP/Source/TransformFunctions/arm_cfft_radix2_f32.c **** 
 176:Drivers/CMSIS/DSP/Source/TransformFunctions/arm_cfft_radix2_f32.c ****       // loop for groups
 177:Drivers/CMSIS/DSP/Source/TransformFunctions/arm_cfft_radix2_f32.c ****       j = 0;
 1337              		.loc 5 177 7 view .LVU494
 174:Drivers/CMSIS/DSP/Source/TransformFunctions/arm_cfft_radix2_f32.c ****       ia = 0;
 1338              		.loc 5 174 10 is_stmt 0 view .LVU495
 1339 00a4 9246     		mov	r10, r2
 1340              		.loc 5 177 9 view .LVU496
 1341 00a6 1746     		mov	r7, r2
 1342 00a8 CDF80490 		str	r9, [sp, #4]
 1343 00ac 1146     		mov	r1, r2
 1344              	.LVL127:
 1345              	.L67:
 178:Drivers/CMSIS/DSP/Source/TransformFunctions/arm_cfft_radix2_f32.c ****       do
 1346              		.loc 5 178 7 is_stmt 1 view .LVU497
 179:Drivers/CMSIS/DSP/Source/TransformFunctions/arm_cfft_radix2_f32.c ****       {
 180:Drivers/CMSIS/DSP/Source/TransformFunctions/arm_cfft_radix2_f32.c ****          cosVal = pCoef[ia * 2];
 1347              		.loc 5 180 10 view .LVU498
 1348              		.loc 5 180 24 is_stmt 0 view .LVU499
 1349 00ae 4FEACA02 		lsl	r2, r10, #3
 1350 00b2 08EBCA00 		add	r0, r8, r10, lsl #3
 1351              		.loc 5 180 17 view .LVU500
 1352 00b6 90ED005A 		vldr.32	s10, [r0]
 1353              	.LVL128:
ARM GAS  C:\Users\JustE\AppData\Local\Temp\ccF78sEd.s 			page 40


 181:Drivers/CMSIS/DSP/Source/TransformFunctions/arm_cfft_radix2_f32.c ****          sinVal = pCoef[(ia * 2) + 1];
 1354              		.loc 5 181 10 is_stmt 1 view .LVU501
 1355              		.loc 5 181 24 is_stmt 0 view .LVU502
 1356 00ba 0432     		adds	r2, r2, #4
 1357 00bc 4244     		add	r2, r2, r8
 1358              		.loc 5 181 17 view .LVU503
 1359 00be D2ED005A 		vldr.32	s11, [r2]
 1360              	.LVL129:
 182:Drivers/CMSIS/DSP/Source/TransformFunctions/arm_cfft_radix2_f32.c ****          ia += twidCoefModifier;
 1361              		.loc 5 182 10 is_stmt 1 view .LVU504
 1362              		.loc 5 182 13 is_stmt 0 view .LVU505
 1363 00c2 019A     		ldr	r2, [sp, #4]
 1364 00c4 9244     		add	r10, r10, r2
 1365              	.LVL130:
 183:Drivers/CMSIS/DSP/Source/TransformFunctions/arm_cfft_radix2_f32.c **** 
 184:Drivers/CMSIS/DSP/Source/TransformFunctions/arm_cfft_radix2_f32.c ****          // loop for butterfly
 185:Drivers/CMSIS/DSP/Source/TransformFunctions/arm_cfft_radix2_f32.c ****          i = j;
 1366              		.loc 5 185 10 is_stmt 1 view .LVU506
 1367              		.loc 5 185 12 is_stmt 0 view .LVU507
 1368 00c6 3846     		mov	r0, r7
 1369              	.LVL131:
 1370              	.L66:
 186:Drivers/CMSIS/DSP/Source/TransformFunctions/arm_cfft_radix2_f32.c ****          do
 1371              		.loc 5 186 10 is_stmt 1 discriminator 1 view .LVU508
 187:Drivers/CMSIS/DSP/Source/TransformFunctions/arm_cfft_radix2_f32.c ****          {
 188:Drivers/CMSIS/DSP/Source/TransformFunctions/arm_cfft_radix2_f32.c ****             l = i + n2;
 1372              		.loc 5 188 13 discriminator 1 view .LVU509
 1373              		.loc 5 188 15 is_stmt 0 discriminator 1 view .LVU510
 1374 00c8 00EB0E09 		add	r9, r0, lr
 1375              	.LVL132:
 189:Drivers/CMSIS/DSP/Source/TransformFunctions/arm_cfft_radix2_f32.c ****             a0 = pSrc[2 * i] + pSrc[2 * l];
 1376              		.loc 5 189 13 is_stmt 1 discriminator 1 view .LVU511
 1377              		.loc 5 189 22 is_stmt 0 discriminator 1 view .LVU512
 1378 00cc C400     		lsls	r4, r0, #3
 1379 00ce 0CEBC00B 		add	fp, ip, r0, lsl #3
 1380 00d2 DBED007A 		vldr.32	s15, [fp]
 1381              		.loc 5 189 36 discriminator 1 view .LVU513
 1382 00d6 4FEAC902 		lsl	r2, r9, #3
 1383 00da 0CEBC909 		add	r9, ip, r9, lsl #3
 1384              	.LVL133:
 1385              		.loc 5 189 36 discriminator 1 view .LVU514
 1386 00de 99ED007A 		vldr.32	s14, [r9]
 1387              		.loc 5 189 16 discriminator 1 view .LVU515
 1388 00e2 37EE874A 		vadd.f32	s8, s15, s14
 1389              	.LVL134:
 190:Drivers/CMSIS/DSP/Source/TransformFunctions/arm_cfft_radix2_f32.c ****             xt = pSrc[2 * i] - pSrc[2 * l];
 1390              		.loc 5 190 13 is_stmt 1 discriminator 1 view .LVU516
 1391              		.loc 5 190 16 is_stmt 0 discriminator 1 view .LVU517
 1392 00e6 77EEC77A 		vsub.f32	s15, s15, s14
 1393              	.LVL135:
 191:Drivers/CMSIS/DSP/Source/TransformFunctions/arm_cfft_radix2_f32.c **** 
 192:Drivers/CMSIS/DSP/Source/TransformFunctions/arm_cfft_radix2_f32.c ****             yt = pSrc[2 * i + 1] - pSrc[2 * l + 1];
 1394              		.loc 5 192 13 is_stmt 1 discriminator 1 view .LVU518
 1395              		.loc 5 192 22 is_stmt 0 discriminator 1 view .LVU519
 1396 00ea 0434     		adds	r4, r4, #4
 1397 00ec 6444     		add	r4, r4, ip
 1398 00ee D4ED006A 		vldr.32	s13, [r4]
ARM GAS  C:\Users\JustE\AppData\Local\Temp\ccF78sEd.s 			page 41


 1399              		.loc 5 192 40 discriminator 1 view .LVU520
 1400 00f2 0432     		adds	r2, r2, #4
 1401 00f4 6244     		add	r2, r2, ip
 1402 00f6 92ED006A 		vldr.32	s12, [r2]
 1403              		.loc 5 192 16 discriminator 1 view .LVU521
 1404 00fa 36EEC67A 		vsub.f32	s14, s13, s12
 1405              	.LVL136:
 193:Drivers/CMSIS/DSP/Source/TransformFunctions/arm_cfft_radix2_f32.c ****             a1 = pSrc[2 * l + 1] + pSrc[2 * i + 1];
 1406              		.loc 5 193 13 is_stmt 1 discriminator 1 view .LVU522
 1407              		.loc 5 193 16 is_stmt 0 discriminator 1 view .LVU523
 1408 00fe 76EE866A 		vadd.f32	s13, s13, s12
 1409              	.LVL137:
 194:Drivers/CMSIS/DSP/Source/TransformFunctions/arm_cfft_radix2_f32.c **** 
 195:Drivers/CMSIS/DSP/Source/TransformFunctions/arm_cfft_radix2_f32.c ****             p0 = xt * cosVal;
 1410              		.loc 5 195 13 is_stmt 1 discriminator 1 view .LVU524
 1411              		.loc 5 195 16 is_stmt 0 discriminator 1 view .LVU525
 1412 0102 25EE276A 		vmul.f32	s12, s10, s15
 1413              	.LVL138:
 196:Drivers/CMSIS/DSP/Source/TransformFunctions/arm_cfft_radix2_f32.c ****             p1 = yt * sinVal;
 1414              		.loc 5 196 13 is_stmt 1 discriminator 1 view .LVU526
 1415              		.loc 5 196 16 is_stmt 0 discriminator 1 view .LVU527
 1416 0106 65EE874A 		vmul.f32	s9, s11, s14
 1417              	.LVL139:
 197:Drivers/CMSIS/DSP/Source/TransformFunctions/arm_cfft_radix2_f32.c ****             p2 = yt * cosVal;
 1418              		.loc 5 197 13 is_stmt 1 discriminator 1 view .LVU528
 1419              		.loc 5 197 16 is_stmt 0 discriminator 1 view .LVU529
 1420 010a 25EE077A 		vmul.f32	s14, s10, s14
 1421              	.LVL140:
 198:Drivers/CMSIS/DSP/Source/TransformFunctions/arm_cfft_radix2_f32.c ****             p3 = xt * sinVal;
 1422              		.loc 5 198 13 is_stmt 1 discriminator 1 view .LVU530
 1423              		.loc 5 198 16 is_stmt 0 discriminator 1 view .LVU531
 1424 010e 65EEA77A 		vmul.f32	s15, s11, s15
 1425              	.LVL141:
 199:Drivers/CMSIS/DSP/Source/TransformFunctions/arm_cfft_radix2_f32.c **** 
 200:Drivers/CMSIS/DSP/Source/TransformFunctions/arm_cfft_radix2_f32.c ****             pSrc[2 * i] = a0;
 1426              		.loc 5 200 13 is_stmt 1 discriminator 1 view .LVU532
 1427              		.loc 5 200 25 is_stmt 0 discriminator 1 view .LVU533
 1428 0112 8BED004A 		vstr.32	s8, [fp]
 1429              	.LVL142:
 201:Drivers/CMSIS/DSP/Source/TransformFunctions/arm_cfft_radix2_f32.c ****             pSrc[2 * i + 1] = a1;
 1430              		.loc 5 201 13 is_stmt 1 discriminator 1 view .LVU534
 1431              		.loc 5 201 29 is_stmt 0 discriminator 1 view .LVU535
 1432 0116 C4ED006A 		vstr.32	s13, [r4]
 202:Drivers/CMSIS/DSP/Source/TransformFunctions/arm_cfft_radix2_f32.c **** 
 203:Drivers/CMSIS/DSP/Source/TransformFunctions/arm_cfft_radix2_f32.c ****             pSrc[2 * l]     = p0 + p1;
 1433              		.loc 5 203 13 is_stmt 1 discriminator 1 view .LVU536
 1434              		.loc 5 203 34 is_stmt 0 discriminator 1 view .LVU537
 1435 011a 76EE246A 		vadd.f32	s13, s12, s9
 1436              	.LVL143:
 1437              		.loc 5 203 29 discriminator 1 view .LVU538
 1438 011e C9ED006A 		vstr.32	s13, [r9]
 1439              	.LVL144:
 204:Drivers/CMSIS/DSP/Source/TransformFunctions/arm_cfft_radix2_f32.c ****             pSrc[2 * l + 1] = p2 - p3;
 1440              		.loc 5 204 13 is_stmt 1 discriminator 1 view .LVU539
 1441              		.loc 5 204 34 is_stmt 0 discriminator 1 view .LVU540
 1442 0122 37EE677A 		vsub.f32	s14, s14, s15
 1443              	.LVL145:
ARM GAS  C:\Users\JustE\AppData\Local\Temp\ccF78sEd.s 			page 42


 1444              		.loc 5 204 29 discriminator 1 view .LVU541
 1445 0126 82ED007A 		vstr.32	s14, [r2]
 205:Drivers/CMSIS/DSP/Source/TransformFunctions/arm_cfft_radix2_f32.c **** 
 206:Drivers/CMSIS/DSP/Source/TransformFunctions/arm_cfft_radix2_f32.c ****             i += n1;
 1446              		.loc 5 206 13 is_stmt 1 discriminator 1 view .LVU542
 1447              		.loc 5 206 15 is_stmt 0 discriminator 1 view .LVU543
 1448 012a 2844     		add	r0, r0, r5
 1449              	.LVL146:
 207:Drivers/CMSIS/DSP/Source/TransformFunctions/arm_cfft_radix2_f32.c ****          } while ( i < fftLen );                        // butterfly loop end
 1450              		.loc 5 207 22 is_stmt 1 discriminator 1 view .LVU544
 1451 012c 8642     		cmp	r6, r0
 1452 012e CBD8     		bhi	.L66
 208:Drivers/CMSIS/DSP/Source/TransformFunctions/arm_cfft_radix2_f32.c ****          j++;
 1453              		.loc 5 208 10 view .LVU545
 1454              		.loc 5 208 11 is_stmt 0 view .LVU546
 1455 0130 0137     		adds	r7, r7, #1
 1456              	.LVL147:
 209:Drivers/CMSIS/DSP/Source/TransformFunctions/arm_cfft_radix2_f32.c ****       } while ( j < n2);                          // groups loop end
 1457              		.loc 5 209 19 is_stmt 1 view .LVU547
 1458 0132 BE45     		cmp	lr, r7
 1459 0134 BBD8     		bhi	.L67
 210:Drivers/CMSIS/DSP/Source/TransformFunctions/arm_cfft_radix2_f32.c ****       twidCoefModifier <<= 1U;
 1460              		.loc 5 210 24 is_stmt 0 discriminator 2 view .LVU548
 1461 0136 DDF80490 		ldr	r9, [sp, #4]
 1462 013a 0A46     		mov	r2, r1
 1463              		.loc 5 210 7 is_stmt 1 discriminator 2 view .LVU549
 1464              		.loc 5 210 24 is_stmt 0 discriminator 2 view .LVU550
 1465 013c 4FEA4909 		lsl	r9, r9, #1
 1466 0140 1FFA89F9 		uxth	r9, r9
 1467              	.LVL148:
 170:Drivers/CMSIS/DSP/Source/TransformFunctions/arm_cfft_radix2_f32.c ****    {
 1468              		.loc 5 170 26 is_stmt 1 discriminator 2 view .LVU551
 1469 0144 5B08     		lsrs	r3, r3, #1
 1470              	.LVL149:
 173:Drivers/CMSIS/DSP/Source/TransformFunctions/arm_cfft_radix2_f32.c ****       ia = 0;
 1471              		.loc 5 173 10 is_stmt 0 discriminator 2 view .LVU552
 1472 0146 7546     		mov	r5, lr
 1473              	.LVL150:
 1474              	.L65:
 170:Drivers/CMSIS/DSP/Source/TransformFunctions/arm_cfft_radix2_f32.c ****    {
 1475              		.loc 5 170 19 is_stmt 1 discriminator 1 view .LVU553
 1476 0148 022B     		cmp	r3, #2
 1477 014a A9D8     		bhi	.L68
 170:Drivers/CMSIS/DSP/Source/TransformFunctions/arm_cfft_radix2_f32.c ****    {
 1478              		.loc 5 170 19 is_stmt 0 discriminator 1 view .LVU554
 1479 014c 9246     		mov	r10, r2
 1480 014e 25E0     		b	.L69
 1481              	.LVL151:
 1482              	.L70:
 211:Drivers/CMSIS/DSP/Source/TransformFunctions/arm_cfft_radix2_f32.c ****    }                             // stages loop end
 212:Drivers/CMSIS/DSP/Source/TransformFunctions/arm_cfft_radix2_f32.c **** 
 213:Drivers/CMSIS/DSP/Source/TransformFunctions/arm_cfft_radix2_f32.c ****    // loop for butterfly
 214:Drivers/CMSIS/DSP/Source/TransformFunctions/arm_cfft_radix2_f32.c ****    for (i = 0; i < fftLen; i += 2)
 215:Drivers/CMSIS/DSP/Source/TransformFunctions/arm_cfft_radix2_f32.c ****    {
 216:Drivers/CMSIS/DSP/Source/TransformFunctions/arm_cfft_radix2_f32.c ****       a0 = pSrc[2 * i] + pSrc[2 * i + 2];
 1483              		.loc 5 216 7 is_stmt 1 discriminator 3 view .LVU555
 1484              		.loc 5 216 16 is_stmt 0 discriminator 3 view .LVU556
ARM GAS  C:\Users\JustE\AppData\Local\Temp\ccF78sEd.s 			page 43


 1485 0150 4FEACA03 		lsl	r3, r10, #3
 1486 0154 0CEBCA00 		add	r0, ip, r10, lsl #3
 1487 0158 D0ED007A 		vldr.32	s15, [r0]
 1488              		.loc 5 216 30 discriminator 3 view .LVU557
 1489 015c 0AF10102 		add	r2, r10, #1
 1490 0160 0CEBC202 		add	r2, ip, r2, lsl #3
 1491 0164 92ED007A 		vldr.32	s14, [r2]
 1492              		.loc 5 216 10 discriminator 3 view .LVU558
 1493 0168 77EE875A 		vadd.f32	s11, s15, s14
 1494              	.LVL152:
 217:Drivers/CMSIS/DSP/Source/TransformFunctions/arm_cfft_radix2_f32.c ****       xt = pSrc[2 * i] - pSrc[2 * i + 2];
 1495              		.loc 5 217 7 is_stmt 1 discriminator 3 view .LVU559
 1496              		.loc 5 217 10 is_stmt 0 discriminator 3 view .LVU560
 1497 016c 77EEC77A 		vsub.f32	s15, s15, s14
 1498              	.LVL153:
 218:Drivers/CMSIS/DSP/Source/TransformFunctions/arm_cfft_radix2_f32.c **** 
 219:Drivers/CMSIS/DSP/Source/TransformFunctions/arm_cfft_radix2_f32.c ****       yt = pSrc[2 * i + 1] - pSrc[2 * i + 3];
 1499              		.loc 5 219 7 is_stmt 1 discriminator 3 view .LVU561
 1500              		.loc 5 219 16 is_stmt 0 discriminator 3 view .LVU562
 1501 0170 191D     		adds	r1, r3, #4
 1502 0172 6144     		add	r1, r1, ip
 1503 0174 91ED007A 		vldr.32	s14, [r1]
 1504              		.loc 5 219 34 discriminator 3 view .LVU563
 1505 0178 0C33     		adds	r3, r3, #12
 1506 017a 6344     		add	r3, r3, ip
 1507 017c D3ED006A 		vldr.32	s13, [r3]
 1508              		.loc 5 219 10 discriminator 3 view .LVU564
 1509 0180 37EE666A 		vsub.f32	s12, s14, s13
 1510              	.LVL154:
 220:Drivers/CMSIS/DSP/Source/TransformFunctions/arm_cfft_radix2_f32.c ****       a1 = pSrc[2 * i + 3] + pSrc[2 * i + 1];
 1511              		.loc 5 220 7 is_stmt 1 discriminator 3 view .LVU565
 1512              		.loc 5 220 10 is_stmt 0 discriminator 3 view .LVU566
 1513 0184 37EE267A 		vadd.f32	s14, s14, s13
 1514              	.LVL155:
 221:Drivers/CMSIS/DSP/Source/TransformFunctions/arm_cfft_radix2_f32.c **** 
 222:Drivers/CMSIS/DSP/Source/TransformFunctions/arm_cfft_radix2_f32.c ****       pSrc[2 * i] = a0;
 1515              		.loc 5 222 7 is_stmt 1 discriminator 3 view .LVU567
 1516              		.loc 5 222 19 is_stmt 0 discriminator 3 view .LVU568
 1517 0188 C0ED005A 		vstr.32	s11, [r0]
 223:Drivers/CMSIS/DSP/Source/TransformFunctions/arm_cfft_radix2_f32.c ****       pSrc[2 * i + 1] = a1;
 1518              		.loc 5 223 7 is_stmt 1 discriminator 3 view .LVU569
 1519              		.loc 5 223 23 is_stmt 0 discriminator 3 view .LVU570
 1520 018c 81ED007A 		vstr.32	s14, [r1]
 224:Drivers/CMSIS/DSP/Source/TransformFunctions/arm_cfft_radix2_f32.c ****       pSrc[2 * i + 2] = xt;
 1521              		.loc 5 224 7 is_stmt 1 discriminator 3 view .LVU571
 1522              		.loc 5 224 23 is_stmt 0 discriminator 3 view .LVU572
 1523 0190 C2ED007A 		vstr.32	s15, [r2]
 225:Drivers/CMSIS/DSP/Source/TransformFunctions/arm_cfft_radix2_f32.c ****       pSrc[2 * i + 3] = yt;
 1524              		.loc 5 225 7 is_stmt 1 discriminator 3 view .LVU573
 1525              		.loc 5 225 23 is_stmt 0 discriminator 3 view .LVU574
 1526 0194 83ED006A 		vstr.32	s12, [r3]
 214:Drivers/CMSIS/DSP/Source/TransformFunctions/arm_cfft_radix2_f32.c ****    {
 1527              		.loc 5 214 30 is_stmt 1 discriminator 3 view .LVU575
 1528 0198 0AF1020A 		add	r10, r10, #2
 1529              	.LVL156:
 1530              	.L69:
 214:Drivers/CMSIS/DSP/Source/TransformFunctions/arm_cfft_radix2_f32.c ****    {
ARM GAS  C:\Users\JustE\AppData\Local\Temp\ccF78sEd.s 			page 44


 1531              		.loc 5 214 18 discriminator 1 view .LVU576
 1532 019c B245     		cmp	r10, r6
 1533 019e D7D3     		bcc	.L70
 226:Drivers/CMSIS/DSP/Source/TransformFunctions/arm_cfft_radix2_f32.c ****    }                             // groups loop end
 227:Drivers/CMSIS/DSP/Source/TransformFunctions/arm_cfft_radix2_f32.c **** 
 228:Drivers/CMSIS/DSP/Source/TransformFunctions/arm_cfft_radix2_f32.c **** #else /* #if defined (ARM_MATH_DSP) */
 229:Drivers/CMSIS/DSP/Source/TransformFunctions/arm_cfft_radix2_f32.c **** 
 230:Drivers/CMSIS/DSP/Source/TransformFunctions/arm_cfft_radix2_f32.c ****    n2 = fftLen;
 231:Drivers/CMSIS/DSP/Source/TransformFunctions/arm_cfft_radix2_f32.c **** 
 232:Drivers/CMSIS/DSP/Source/TransformFunctions/arm_cfft_radix2_f32.c ****    // loop for stage
 233:Drivers/CMSIS/DSP/Source/TransformFunctions/arm_cfft_radix2_f32.c ****    for (k = fftLen; k > 1; k = k >> 1)
 234:Drivers/CMSIS/DSP/Source/TransformFunctions/arm_cfft_radix2_f32.c ****    {
 235:Drivers/CMSIS/DSP/Source/TransformFunctions/arm_cfft_radix2_f32.c ****       n1 = n2;
 236:Drivers/CMSIS/DSP/Source/TransformFunctions/arm_cfft_radix2_f32.c ****       n2 = n2 >> 1;
 237:Drivers/CMSIS/DSP/Source/TransformFunctions/arm_cfft_radix2_f32.c ****       ia = 0;
 238:Drivers/CMSIS/DSP/Source/TransformFunctions/arm_cfft_radix2_f32.c **** 
 239:Drivers/CMSIS/DSP/Source/TransformFunctions/arm_cfft_radix2_f32.c ****       // loop for groups
 240:Drivers/CMSIS/DSP/Source/TransformFunctions/arm_cfft_radix2_f32.c ****       j = 0;
 241:Drivers/CMSIS/DSP/Source/TransformFunctions/arm_cfft_radix2_f32.c ****       do
 242:Drivers/CMSIS/DSP/Source/TransformFunctions/arm_cfft_radix2_f32.c ****       {
 243:Drivers/CMSIS/DSP/Source/TransformFunctions/arm_cfft_radix2_f32.c ****          cosVal = pCoef[ia * 2];
 244:Drivers/CMSIS/DSP/Source/TransformFunctions/arm_cfft_radix2_f32.c ****          sinVal = pCoef[(ia * 2) + 1];
 245:Drivers/CMSIS/DSP/Source/TransformFunctions/arm_cfft_radix2_f32.c ****          ia += twidCoefModifier;
 246:Drivers/CMSIS/DSP/Source/TransformFunctions/arm_cfft_radix2_f32.c **** 
 247:Drivers/CMSIS/DSP/Source/TransformFunctions/arm_cfft_radix2_f32.c ****          // loop for butterfly
 248:Drivers/CMSIS/DSP/Source/TransformFunctions/arm_cfft_radix2_f32.c ****          i = j;
 249:Drivers/CMSIS/DSP/Source/TransformFunctions/arm_cfft_radix2_f32.c ****          do
 250:Drivers/CMSIS/DSP/Source/TransformFunctions/arm_cfft_radix2_f32.c ****          {
 251:Drivers/CMSIS/DSP/Source/TransformFunctions/arm_cfft_radix2_f32.c ****             l = i + n2;
 252:Drivers/CMSIS/DSP/Source/TransformFunctions/arm_cfft_radix2_f32.c ****             a0 = pSrc[2 * i] + pSrc[2 * l];
 253:Drivers/CMSIS/DSP/Source/TransformFunctions/arm_cfft_radix2_f32.c ****             xt = pSrc[2 * i] - pSrc[2 * l];
 254:Drivers/CMSIS/DSP/Source/TransformFunctions/arm_cfft_radix2_f32.c **** 
 255:Drivers/CMSIS/DSP/Source/TransformFunctions/arm_cfft_radix2_f32.c ****             yt = pSrc[2 * i + 1] - pSrc[2 * l + 1];
 256:Drivers/CMSIS/DSP/Source/TransformFunctions/arm_cfft_radix2_f32.c ****             a1 = pSrc[2 * l + 1] + pSrc[2 * i + 1];
 257:Drivers/CMSIS/DSP/Source/TransformFunctions/arm_cfft_radix2_f32.c **** 
 258:Drivers/CMSIS/DSP/Source/TransformFunctions/arm_cfft_radix2_f32.c ****             p0 = xt * cosVal;
 259:Drivers/CMSIS/DSP/Source/TransformFunctions/arm_cfft_radix2_f32.c ****             p1 = yt * sinVal;
 260:Drivers/CMSIS/DSP/Source/TransformFunctions/arm_cfft_radix2_f32.c ****             p2 = yt * cosVal;
 261:Drivers/CMSIS/DSP/Source/TransformFunctions/arm_cfft_radix2_f32.c ****             p3 = xt * sinVal;
 262:Drivers/CMSIS/DSP/Source/TransformFunctions/arm_cfft_radix2_f32.c **** 
 263:Drivers/CMSIS/DSP/Source/TransformFunctions/arm_cfft_radix2_f32.c ****             pSrc[2 * i] = a0;
 264:Drivers/CMSIS/DSP/Source/TransformFunctions/arm_cfft_radix2_f32.c ****             pSrc[2 * i + 1] = a1;
 265:Drivers/CMSIS/DSP/Source/TransformFunctions/arm_cfft_radix2_f32.c **** 
 266:Drivers/CMSIS/DSP/Source/TransformFunctions/arm_cfft_radix2_f32.c ****             pSrc[2 * l]     = p0 + p1;
 267:Drivers/CMSIS/DSP/Source/TransformFunctions/arm_cfft_radix2_f32.c ****             pSrc[2 * l + 1] = p2 - p3;
 268:Drivers/CMSIS/DSP/Source/TransformFunctions/arm_cfft_radix2_f32.c **** 
 269:Drivers/CMSIS/DSP/Source/TransformFunctions/arm_cfft_radix2_f32.c ****             i += n1;
 270:Drivers/CMSIS/DSP/Source/TransformFunctions/arm_cfft_radix2_f32.c ****          } while (i < fftLen);
 271:Drivers/CMSIS/DSP/Source/TransformFunctions/arm_cfft_radix2_f32.c ****          j++;
 272:Drivers/CMSIS/DSP/Source/TransformFunctions/arm_cfft_radix2_f32.c ****       } while (j < n2);
 273:Drivers/CMSIS/DSP/Source/TransformFunctions/arm_cfft_radix2_f32.c ****       twidCoefModifier <<= 1U;
 274:Drivers/CMSIS/DSP/Source/TransformFunctions/arm_cfft_radix2_f32.c ****    }
 275:Drivers/CMSIS/DSP/Source/TransformFunctions/arm_cfft_radix2_f32.c **** 
 276:Drivers/CMSIS/DSP/Source/TransformFunctions/arm_cfft_radix2_f32.c **** #endif /* #if defined (ARM_MATH_DSP) */
 277:Drivers/CMSIS/DSP/Source/TransformFunctions/arm_cfft_radix2_f32.c **** 
 278:Drivers/CMSIS/DSP/Source/TransformFunctions/arm_cfft_radix2_f32.c **** }
 1534              		.loc 5 278 1 is_stmt 0 view .LVU577
ARM GAS  C:\Users\JustE\AppData\Local\Temp\ccF78sEd.s 			page 45


 1535 01a0 03B0     		add	sp, sp, #12
 1536              	.LCFI7:
 1537              		.cfi_def_cfa_offset 36
 1538              		@ sp needed
 1539 01a2 BDE8F08F 		pop	{r4, r5, r6, r7, r8, r9, r10, fp, pc}
 1540              		.loc 5 278 1 view .LVU578
 1541              		.cfi_endproc
 1542              	.LFE160:
 1544              		.section	.text.arm_radix2_butterfly_inverse_f32,"ax",%progbits
 1545              		.align	1
 1546              		.global	arm_radix2_butterfly_inverse_f32
 1547              		.syntax unified
 1548              		.thumb
 1549              		.thumb_func
 1551              	arm_radix2_butterfly_inverse_f32:
 1552              	.LVL157:
 1553              	.LFB161:
 279:Drivers/CMSIS/DSP/Source/TransformFunctions/arm_cfft_radix2_f32.c **** 
 280:Drivers/CMSIS/DSP/Source/TransformFunctions/arm_cfft_radix2_f32.c **** 
 281:Drivers/CMSIS/DSP/Source/TransformFunctions/arm_cfft_radix2_f32.c **** void arm_radix2_butterfly_inverse_f32(
 282:Drivers/CMSIS/DSP/Source/TransformFunctions/arm_cfft_radix2_f32.c ****         float32_t * pSrc,
 283:Drivers/CMSIS/DSP/Source/TransformFunctions/arm_cfft_radix2_f32.c ****         uint32_t fftLen,
 284:Drivers/CMSIS/DSP/Source/TransformFunctions/arm_cfft_radix2_f32.c ****   const float32_t * pCoef,
 285:Drivers/CMSIS/DSP/Source/TransformFunctions/arm_cfft_radix2_f32.c ****         uint16_t twidCoefModifier,
 286:Drivers/CMSIS/DSP/Source/TransformFunctions/arm_cfft_radix2_f32.c ****         float32_t onebyfftLen)
 287:Drivers/CMSIS/DSP/Source/TransformFunctions/arm_cfft_radix2_f32.c **** {
 1554              		.loc 5 287 1 is_stmt 1 view -0
 1555              		.cfi_startproc
 1556              		@ args = 0, pretend = 0, frame = 0
 1557              		@ frame_needed = 0, uses_anonymous_args = 0
 1558              		.loc 5 287 1 is_stmt 0 view .LVU580
 1559 0000 2DE9F04F 		push	{r4, r5, r6, r7, r8, r9, r10, fp, lr}
 1560              	.LCFI8:
 1561              		.cfi_def_cfa_offset 36
 1562              		.cfi_offset 4, -36
 1563              		.cfi_offset 5, -32
 1564              		.cfi_offset 6, -28
 1565              		.cfi_offset 7, -24
 1566              		.cfi_offset 8, -20
 1567              		.cfi_offset 9, -16
 1568              		.cfi_offset 10, -12
 1569              		.cfi_offset 11, -8
 1570              		.cfi_offset 14, -4
 1571 0004 8446     		mov	ip, r0
 1572 0006 0E46     		mov	r6, r1
 1573 0008 9146     		mov	r9, r2
 1574 000a 9E46     		mov	lr, r3
 1575 000c F0EE403A 		vmov.f32	s7, s0
 288:Drivers/CMSIS/DSP/Source/TransformFunctions/arm_cfft_radix2_f32.c **** 
 289:Drivers/CMSIS/DSP/Source/TransformFunctions/arm_cfft_radix2_f32.c ****         uint32_t i, j, k, l;
 1576              		.loc 5 289 9 is_stmt 1 view .LVU581
 290:Drivers/CMSIS/DSP/Source/TransformFunctions/arm_cfft_radix2_f32.c ****         uint32_t n1, n2, ia;
 1577              		.loc 5 290 9 view .LVU582
 291:Drivers/CMSIS/DSP/Source/TransformFunctions/arm_cfft_radix2_f32.c ****         float32_t xt, yt, cosVal, sinVal;
 1578              		.loc 5 291 9 view .LVU583
 292:Drivers/CMSIS/DSP/Source/TransformFunctions/arm_cfft_radix2_f32.c ****         float32_t p0, p1, p2, p3;
 1579              		.loc 5 292 9 view .LVU584
ARM GAS  C:\Users\JustE\AppData\Local\Temp\ccF78sEd.s 			page 46


 293:Drivers/CMSIS/DSP/Source/TransformFunctions/arm_cfft_radix2_f32.c ****         float32_t a0, a1;
 1580              		.loc 5 293 9 view .LVU585
 294:Drivers/CMSIS/DSP/Source/TransformFunctions/arm_cfft_radix2_f32.c **** 
 295:Drivers/CMSIS/DSP/Source/TransformFunctions/arm_cfft_radix2_f32.c **** #if defined (ARM_MATH_DSP)
 296:Drivers/CMSIS/DSP/Source/TransformFunctions/arm_cfft_radix2_f32.c **** 
 297:Drivers/CMSIS/DSP/Source/TransformFunctions/arm_cfft_radix2_f32.c ****    n2 = fftLen >> 1;
 1581              		.loc 5 297 4 view .LVU586
 1582              		.loc 5 297 7 is_stmt 0 view .LVU587
 1583 0010 4D08     		lsrs	r5, r1, #1
 1584              	.LVL158:
 298:Drivers/CMSIS/DSP/Source/TransformFunctions/arm_cfft_radix2_f32.c ****    ia = 0;
 1585              		.loc 5 298 4 is_stmt 1 view .LVU588
 299:Drivers/CMSIS/DSP/Source/TransformFunctions/arm_cfft_radix2_f32.c **** 
 300:Drivers/CMSIS/DSP/Source/TransformFunctions/arm_cfft_radix2_f32.c ****    // loop for groups
 301:Drivers/CMSIS/DSP/Source/TransformFunctions/arm_cfft_radix2_f32.c ****    for (i = 0; i < n2; i++)
 1586              		.loc 5 301 4 view .LVU589
 298:Drivers/CMSIS/DSP/Source/TransformFunctions/arm_cfft_radix2_f32.c ****    ia = 0;
 1587              		.loc 5 298 7 is_stmt 0 view .LVU590
 1588 0012 0024     		movs	r4, #0
 1589              		.loc 5 301 11 view .LVU591
 1590 0014 2146     		mov	r1, r4
 1591              	.LVL159:
 1592              		.loc 5 301 4 view .LVU592
 1593 0016 39E0     		b	.L73
 1594              	.LVL160:
 1595              	.L74:
 302:Drivers/CMSIS/DSP/Source/TransformFunctions/arm_cfft_radix2_f32.c ****    {
 303:Drivers/CMSIS/DSP/Source/TransformFunctions/arm_cfft_radix2_f32.c ****       cosVal = pCoef[ia * 2];
 1596              		.loc 5 303 7 is_stmt 1 discriminator 3 view .LVU593
 1597              		.loc 5 303 21 is_stmt 0 discriminator 3 view .LVU594
 1598 0018 E300     		lsls	r3, r4, #3
 1599 001a 09EBC402 		add	r2, r9, r4, lsl #3
 1600              		.loc 5 303 14 discriminator 3 view .LVU595
 1601 001e D2ED007A 		vldr.32	s15, [r2]
 1602              	.LVL161:
 304:Drivers/CMSIS/DSP/Source/TransformFunctions/arm_cfft_radix2_f32.c ****       sinVal = pCoef[(ia * 2) + 1];
 1603              		.loc 5 304 7 is_stmt 1 discriminator 3 view .LVU596
 1604              		.loc 5 304 21 is_stmt 0 discriminator 3 view .LVU597
 1605 0022 0433     		adds	r3, r3, #4
 1606 0024 4B44     		add	r3, r3, r9
 1607              		.loc 5 304 14 discriminator 3 view .LVU598
 1608 0026 D3ED006A 		vldr.32	s13, [r3]
 1609              	.LVL162:
 305:Drivers/CMSIS/DSP/Source/TransformFunctions/arm_cfft_radix2_f32.c ****       ia += twidCoefModifier;
 1610              		.loc 5 305 7 is_stmt 1 discriminator 3 view .LVU599
 1611              		.loc 5 305 10 is_stmt 0 discriminator 3 view .LVU600
 1612 002a 7444     		add	r4, r4, lr
 1613              	.LVL163:
 306:Drivers/CMSIS/DSP/Source/TransformFunctions/arm_cfft_radix2_f32.c **** 
 307:Drivers/CMSIS/DSP/Source/TransformFunctions/arm_cfft_radix2_f32.c ****       l = i + n2;
 1614              		.loc 5 307 7 is_stmt 1 discriminator 3 view .LVU601
 1615              		.loc 5 307 9 is_stmt 0 discriminator 3 view .LVU602
 1616 002c 4819     		adds	r0, r1, r5
 1617              	.LVL164:
 308:Drivers/CMSIS/DSP/Source/TransformFunctions/arm_cfft_radix2_f32.c ****       a0 = pSrc[2 * i] + pSrc[2 * l];
 1618              		.loc 5 308 7 is_stmt 1 discriminator 3 view .LVU603
 1619              		.loc 5 308 16 is_stmt 0 discriminator 3 view .LVU604
ARM GAS  C:\Users\JustE\AppData\Local\Temp\ccF78sEd.s 			page 47


 1620 002e CA00     		lsls	r2, r1, #3
 1621 0030 0CEBC107 		add	r7, ip, r1, lsl #3
 1622 0034 97ED007A 		vldr.32	s14, [r7]
 1623              		.loc 5 308 30 discriminator 3 view .LVU605
 1624 0038 C300     		lsls	r3, r0, #3
 1625 003a 0CEBC000 		add	r0, ip, r0, lsl #3
 1626              	.LVL165:
 1627              		.loc 5 308 30 discriminator 3 view .LVU606
 1628 003e 90ED006A 		vldr.32	s12, [r0]
 1629              		.loc 5 308 10 discriminator 3 view .LVU607
 1630 0042 37EE064A 		vadd.f32	s8, s14, s12
 1631              	.LVL166:
 309:Drivers/CMSIS/DSP/Source/TransformFunctions/arm_cfft_radix2_f32.c ****       xt = pSrc[2 * i] - pSrc[2 * l];
 1632              		.loc 5 309 7 is_stmt 1 discriminator 3 view .LVU608
 1633              		.loc 5 309 10 is_stmt 0 discriminator 3 view .LVU609
 1634 0046 37EE467A 		vsub.f32	s14, s14, s12
 1635              	.LVL167:
 310:Drivers/CMSIS/DSP/Source/TransformFunctions/arm_cfft_radix2_f32.c **** 
 311:Drivers/CMSIS/DSP/Source/TransformFunctions/arm_cfft_radix2_f32.c ****       yt = pSrc[2 * i + 1] - pSrc[2 * l + 1];
 1636              		.loc 5 311 7 is_stmt 1 discriminator 3 view .LVU610
 1637              		.loc 5 311 16 is_stmt 0 discriminator 3 view .LVU611
 1638 004a 0432     		adds	r2, r2, #4
 1639 004c 6244     		add	r2, r2, ip
 1640 004e 92ED006A 		vldr.32	s12, [r2]
 1641              		.loc 5 311 34 discriminator 3 view .LVU612
 1642 0052 0433     		adds	r3, r3, #4
 1643 0054 6344     		add	r3, r3, ip
 1644 0056 D3ED005A 		vldr.32	s11, [r3]
 1645              		.loc 5 311 10 discriminator 3 view .LVU613
 1646 005a 36EE655A 		vsub.f32	s10, s12, s11
 1647              	.LVL168:
 312:Drivers/CMSIS/DSP/Source/TransformFunctions/arm_cfft_radix2_f32.c ****       a1 = pSrc[2 * l + 1] + pSrc[2 * i + 1];
 1648              		.loc 5 312 7 is_stmt 1 discriminator 3 view .LVU614
 1649              		.loc 5 312 10 is_stmt 0 discriminator 3 view .LVU615
 1650 005e 36EE256A 		vadd.f32	s12, s12, s11
 1651              	.LVL169:
 313:Drivers/CMSIS/DSP/Source/TransformFunctions/arm_cfft_radix2_f32.c **** 
 314:Drivers/CMSIS/DSP/Source/TransformFunctions/arm_cfft_radix2_f32.c ****       p0 = xt * cosVal;
 1652              		.loc 5 314 7 is_stmt 1 discriminator 3 view .LVU616
 1653              		.loc 5 314 10 is_stmt 0 discriminator 3 view .LVU617
 1654 0062 67EE875A 		vmul.f32	s11, s15, s14
 1655              	.LVL170:
 315:Drivers/CMSIS/DSP/Source/TransformFunctions/arm_cfft_radix2_f32.c ****       p1 = yt * sinVal;
 1656              		.loc 5 315 7 is_stmt 1 discriminator 3 view .LVU618
 1657              		.loc 5 315 10 is_stmt 0 discriminator 3 view .LVU619
 1658 0066 66EE854A 		vmul.f32	s9, s13, s10
 1659              	.LVL171:
 316:Drivers/CMSIS/DSP/Source/TransformFunctions/arm_cfft_radix2_f32.c ****       p2 = yt * cosVal;
 1660              		.loc 5 316 7 is_stmt 1 discriminator 3 view .LVU620
 1661              		.loc 5 316 10 is_stmt 0 discriminator 3 view .LVU621
 1662 006a 67EE857A 		vmul.f32	s15, s15, s10
 1663              	.LVL172:
 317:Drivers/CMSIS/DSP/Source/TransformFunctions/arm_cfft_radix2_f32.c ****       p3 = xt * sinVal;
 1664              		.loc 5 317 7 is_stmt 1 discriminator 3 view .LVU622
 1665              		.loc 5 317 10 is_stmt 0 discriminator 3 view .LVU623
 1666 006e 66EE876A 		vmul.f32	s13, s13, s14
 1667              	.LVL173:
ARM GAS  C:\Users\JustE\AppData\Local\Temp\ccF78sEd.s 			page 48


 318:Drivers/CMSIS/DSP/Source/TransformFunctions/arm_cfft_radix2_f32.c **** 
 319:Drivers/CMSIS/DSP/Source/TransformFunctions/arm_cfft_radix2_f32.c ****       pSrc[2 * i] = a0;
 1668              		.loc 5 319 7 is_stmt 1 discriminator 3 view .LVU624
 1669              		.loc 5 319 19 is_stmt 0 discriminator 3 view .LVU625
 1670 0072 87ED004A 		vstr.32	s8, [r7]
 320:Drivers/CMSIS/DSP/Source/TransformFunctions/arm_cfft_radix2_f32.c ****       pSrc[2 * i + 1] = a1;
 1671              		.loc 5 320 7 is_stmt 1 discriminator 3 view .LVU626
 1672              		.loc 5 320 23 is_stmt 0 discriminator 3 view .LVU627
 1673 0076 82ED006A 		vstr.32	s12, [r2]
 321:Drivers/CMSIS/DSP/Source/TransformFunctions/arm_cfft_radix2_f32.c **** 
 322:Drivers/CMSIS/DSP/Source/TransformFunctions/arm_cfft_radix2_f32.c ****       pSrc[2 * l]     = p0 - p1;
 1674              		.loc 5 322 7 is_stmt 1 discriminator 3 view .LVU628
 1675              		.loc 5 322 28 is_stmt 0 discriminator 3 view .LVU629
 1676 007a 35EEE47A 		vsub.f32	s14, s11, s9
 1677              	.LVL174:
 1678              		.loc 5 322 23 discriminator 3 view .LVU630
 1679 007e 80ED007A 		vstr.32	s14, [r0]
 323:Drivers/CMSIS/DSP/Source/TransformFunctions/arm_cfft_radix2_f32.c ****       pSrc[2 * l + 1] = p2 + p3;
 1680              		.loc 5 323 7 is_stmt 1 discriminator 3 view .LVU631
 1681              		.loc 5 323 28 is_stmt 0 discriminator 3 view .LVU632
 1682 0082 77EEA67A 		vadd.f32	s15, s15, s13
 1683              	.LVL175:
 1684              		.loc 5 323 23 discriminator 3 view .LVU633
 1685 0086 C3ED007A 		vstr.32	s15, [r3]
 301:Drivers/CMSIS/DSP/Source/TransformFunctions/arm_cfft_radix2_f32.c ****    {
 1686              		.loc 5 301 25 is_stmt 1 discriminator 3 view .LVU634
 1687 008a 0131     		adds	r1, r1, #1
 1688              	.LVL176:
 1689              	.L73:
 301:Drivers/CMSIS/DSP/Source/TransformFunctions/arm_cfft_radix2_f32.c ****    {
 1690              		.loc 5 301 18 discriminator 1 view .LVU635
 1691 008c A942     		cmp	r1, r5
 1692 008e C3D3     		bcc	.L74
 324:Drivers/CMSIS/DSP/Source/TransformFunctions/arm_cfft_radix2_f32.c ****    }                             // groups loop end
 325:Drivers/CMSIS/DSP/Source/TransformFunctions/arm_cfft_radix2_f32.c **** 
 326:Drivers/CMSIS/DSP/Source/TransformFunctions/arm_cfft_radix2_f32.c ****    twidCoefModifier <<= 1U;
 1693              		.loc 5 326 4 view .LVU636
 1694              		.loc 5 326 21 is_stmt 0 view .LVU637
 1695 0090 4FEA4E0E 		lsl	lr, lr, #1
 1696 0094 1FFA8EFA 		uxth	r10, lr
 1697              	.LVL177:
 327:Drivers/CMSIS/DSP/Source/TransformFunctions/arm_cfft_radix2_f32.c **** 
 328:Drivers/CMSIS/DSP/Source/TransformFunctions/arm_cfft_radix2_f32.c ****    // loop for stage
 329:Drivers/CMSIS/DSP/Source/TransformFunctions/arm_cfft_radix2_f32.c ****    for (k = fftLen / 2; k > 2; k = k >> 1)
 1698              		.loc 5 329 4 is_stmt 1 view .LVU638
 1699              		.loc 5 329 11 is_stmt 0 view .LVU639
 1700 0098 4FEA560B 		lsr	fp, r6, #1
 1701              	.LVL178:
 1702              		.loc 5 329 4 view .LVU640
 1703 009c 4AE0     		b	.L75
 1704              	.LVL179:
 1705              	.L78:
 330:Drivers/CMSIS/DSP/Source/TransformFunctions/arm_cfft_radix2_f32.c ****    {
 331:Drivers/CMSIS/DSP/Source/TransformFunctions/arm_cfft_radix2_f32.c ****       n1 = n2;
 1706              		.loc 5 331 7 is_stmt 1 view .LVU641
 332:Drivers/CMSIS/DSP/Source/TransformFunctions/arm_cfft_radix2_f32.c ****       n2 = n2 >> 1;
 1707              		.loc 5 332 7 view .LVU642
ARM GAS  C:\Users\JustE\AppData\Local\Temp\ccF78sEd.s 			page 49


 1708              		.loc 5 332 10 is_stmt 0 view .LVU643
 1709 009e 6C08     		lsrs	r4, r5, #1
 1710              	.LVL180:
 333:Drivers/CMSIS/DSP/Source/TransformFunctions/arm_cfft_radix2_f32.c ****       ia = 0;
 1711              		.loc 5 333 7 is_stmt 1 view .LVU644
 334:Drivers/CMSIS/DSP/Source/TransformFunctions/arm_cfft_radix2_f32.c **** 
 335:Drivers/CMSIS/DSP/Source/TransformFunctions/arm_cfft_radix2_f32.c ****       // loop for groups
 336:Drivers/CMSIS/DSP/Source/TransformFunctions/arm_cfft_radix2_f32.c ****       j = 0;
 1712              		.loc 5 336 7 view .LVU645
 333:Drivers/CMSIS/DSP/Source/TransformFunctions/arm_cfft_radix2_f32.c ****       ia = 0;
 1713              		.loc 5 333 10 is_stmt 0 view .LVU646
 1714 00a0 0027     		movs	r7, #0
 1715              		.loc 5 336 9 view .LVU647
 1716 00a2 B846     		mov	r8, r7
 1717              	.LVL181:
 1718              	.L77:
 337:Drivers/CMSIS/DSP/Source/TransformFunctions/arm_cfft_radix2_f32.c ****       do
 1719              		.loc 5 337 7 is_stmt 1 view .LVU648
 338:Drivers/CMSIS/DSP/Source/TransformFunctions/arm_cfft_radix2_f32.c ****       {
 339:Drivers/CMSIS/DSP/Source/TransformFunctions/arm_cfft_radix2_f32.c ****          cosVal = pCoef[ia * 2];
 1720              		.loc 5 339 10 view .LVU649
 1721              		.loc 5 339 24 is_stmt 0 view .LVU650
 1722 00a4 FB00     		lsls	r3, r7, #3
 1723 00a6 09EBC702 		add	r2, r9, r7, lsl #3
 1724              		.loc 5 339 17 view .LVU651
 1725 00aa 92ED005A 		vldr.32	s10, [r2]
 1726              	.LVL182:
 340:Drivers/CMSIS/DSP/Source/TransformFunctions/arm_cfft_radix2_f32.c ****          sinVal = pCoef[(ia * 2) + 1];
 1727              		.loc 5 340 10 is_stmt 1 view .LVU652
 1728              		.loc 5 340 24 is_stmt 0 view .LVU653
 1729 00ae 0433     		adds	r3, r3, #4
 1730 00b0 4B44     		add	r3, r3, r9
 1731              		.loc 5 340 17 view .LVU654
 1732 00b2 D3ED005A 		vldr.32	s11, [r3]
 1733              	.LVL183:
 341:Drivers/CMSIS/DSP/Source/TransformFunctions/arm_cfft_radix2_f32.c ****          ia += twidCoefModifier;
 1734              		.loc 5 341 10 is_stmt 1 view .LVU655
 1735              		.loc 5 341 13 is_stmt 0 view .LVU656
 1736 00b6 5744     		add	r7, r7, r10
 1737              	.LVL184:
 342:Drivers/CMSIS/DSP/Source/TransformFunctions/arm_cfft_radix2_f32.c **** 
 343:Drivers/CMSIS/DSP/Source/TransformFunctions/arm_cfft_radix2_f32.c ****          // loop for butterfly
 344:Drivers/CMSIS/DSP/Source/TransformFunctions/arm_cfft_radix2_f32.c ****          i = j;
 1738              		.loc 5 344 10 is_stmt 1 view .LVU657
 1739              		.loc 5 344 12 is_stmt 0 view .LVU658
 1740 00b8 4146     		mov	r1, r8
 1741              	.LVL185:
 1742              	.L76:
 345:Drivers/CMSIS/DSP/Source/TransformFunctions/arm_cfft_radix2_f32.c ****          do
 1743              		.loc 5 345 10 is_stmt 1 discriminator 1 view .LVU659
 346:Drivers/CMSIS/DSP/Source/TransformFunctions/arm_cfft_radix2_f32.c ****          {
 347:Drivers/CMSIS/DSP/Source/TransformFunctions/arm_cfft_radix2_f32.c ****             l = i + n2;
 1744              		.loc 5 347 13 discriminator 1 view .LVU660
 1745              		.loc 5 347 15 is_stmt 0 discriminator 1 view .LVU661
 1746 00ba 0819     		adds	r0, r1, r4
 1747              	.LVL186:
 348:Drivers/CMSIS/DSP/Source/TransformFunctions/arm_cfft_radix2_f32.c ****             a0 = pSrc[2 * i] + pSrc[2 * l];
ARM GAS  C:\Users\JustE\AppData\Local\Temp\ccF78sEd.s 			page 50


 1748              		.loc 5 348 13 is_stmt 1 discriminator 1 view .LVU662
 1749              		.loc 5 348 22 is_stmt 0 discriminator 1 view .LVU663
 1750 00bc CA00     		lsls	r2, r1, #3
 1751 00be 0CEBC10E 		add	lr, ip, r1, lsl #3
 1752 00c2 DEED007A 		vldr.32	s15, [lr]
 1753              		.loc 5 348 36 discriminator 1 view .LVU664
 1754 00c6 C300     		lsls	r3, r0, #3
 1755 00c8 0CEBC000 		add	r0, ip, r0, lsl #3
 1756              	.LVL187:
 1757              		.loc 5 348 36 discriminator 1 view .LVU665
 1758 00cc 90ED007A 		vldr.32	s14, [r0]
 1759              		.loc 5 348 16 discriminator 1 view .LVU666
 1760 00d0 37EE874A 		vadd.f32	s8, s15, s14
 1761              	.LVL188:
 349:Drivers/CMSIS/DSP/Source/TransformFunctions/arm_cfft_radix2_f32.c ****             xt = pSrc[2 * i] - pSrc[2 * l];
 1762              		.loc 5 349 13 is_stmt 1 discriminator 1 view .LVU667
 1763              		.loc 5 349 16 is_stmt 0 discriminator 1 view .LVU668
 1764 00d4 77EEC77A 		vsub.f32	s15, s15, s14
 1765              	.LVL189:
 350:Drivers/CMSIS/DSP/Source/TransformFunctions/arm_cfft_radix2_f32.c **** 
 351:Drivers/CMSIS/DSP/Source/TransformFunctions/arm_cfft_radix2_f32.c ****             yt = pSrc[2 * i + 1] - pSrc[2 * l + 1];
 1766              		.loc 5 351 13 is_stmt 1 discriminator 1 view .LVU669
 1767              		.loc 5 351 22 is_stmt 0 discriminator 1 view .LVU670
 1768 00d8 0432     		adds	r2, r2, #4
 1769 00da 6244     		add	r2, r2, ip
 1770 00dc D2ED006A 		vldr.32	s13, [r2]
 1771              		.loc 5 351 40 discriminator 1 view .LVU671
 1772 00e0 0433     		adds	r3, r3, #4
 1773 00e2 6344     		add	r3, r3, ip
 1774 00e4 93ED006A 		vldr.32	s12, [r3]
 1775              		.loc 5 351 16 discriminator 1 view .LVU672
 1776 00e8 36EEC67A 		vsub.f32	s14, s13, s12
 1777              	.LVL190:
 352:Drivers/CMSIS/DSP/Source/TransformFunctions/arm_cfft_radix2_f32.c ****             a1 = pSrc[2 * l + 1] + pSrc[2 * i + 1];
 1778              		.loc 5 352 13 is_stmt 1 discriminator 1 view .LVU673
 1779              		.loc 5 352 16 is_stmt 0 discriminator 1 view .LVU674
 1780 00ec 76EE866A 		vadd.f32	s13, s13, s12
 1781              	.LVL191:
 353:Drivers/CMSIS/DSP/Source/TransformFunctions/arm_cfft_radix2_f32.c **** 
 354:Drivers/CMSIS/DSP/Source/TransformFunctions/arm_cfft_radix2_f32.c ****             p0 = xt * cosVal;
 1782              		.loc 5 354 13 is_stmt 1 discriminator 1 view .LVU675
 1783              		.loc 5 354 16 is_stmt 0 discriminator 1 view .LVU676
 1784 00f0 25EE276A 		vmul.f32	s12, s10, s15
 1785              	.LVL192:
 355:Drivers/CMSIS/DSP/Source/TransformFunctions/arm_cfft_radix2_f32.c ****             p1 = yt * sinVal;
 1786              		.loc 5 355 13 is_stmt 1 discriminator 1 view .LVU677
 1787              		.loc 5 355 16 is_stmt 0 discriminator 1 view .LVU678
 1788 00f4 65EE874A 		vmul.f32	s9, s11, s14
 1789              	.LVL193:
 356:Drivers/CMSIS/DSP/Source/TransformFunctions/arm_cfft_radix2_f32.c ****             p2 = yt * cosVal;
 1790              		.loc 5 356 13 is_stmt 1 discriminator 1 view .LVU679
 1791              		.loc 5 356 16 is_stmt 0 discriminator 1 view .LVU680
 1792 00f8 25EE077A 		vmul.f32	s14, s10, s14
 1793              	.LVL194:
 357:Drivers/CMSIS/DSP/Source/TransformFunctions/arm_cfft_radix2_f32.c ****             p3 = xt * sinVal;
 1794              		.loc 5 357 13 is_stmt 1 discriminator 1 view .LVU681
 1795              		.loc 5 357 16 is_stmt 0 discriminator 1 view .LVU682
ARM GAS  C:\Users\JustE\AppData\Local\Temp\ccF78sEd.s 			page 51


 1796 00fc 65EEA77A 		vmul.f32	s15, s11, s15
 1797              	.LVL195:
 358:Drivers/CMSIS/DSP/Source/TransformFunctions/arm_cfft_radix2_f32.c **** 
 359:Drivers/CMSIS/DSP/Source/TransformFunctions/arm_cfft_radix2_f32.c ****             pSrc[2 * i] = a0;
 1798              		.loc 5 359 13 is_stmt 1 discriminator 1 view .LVU683
 1799              		.loc 5 359 25 is_stmt 0 discriminator 1 view .LVU684
 1800 0100 8EED004A 		vstr.32	s8, [lr]
 1801              	.LVL196:
 360:Drivers/CMSIS/DSP/Source/TransformFunctions/arm_cfft_radix2_f32.c ****             pSrc[2 * i + 1] = a1;
 1802              		.loc 5 360 13 is_stmt 1 discriminator 1 view .LVU685
 1803              		.loc 5 360 29 is_stmt 0 discriminator 1 view .LVU686
 1804 0104 C2ED006A 		vstr.32	s13, [r2]
 361:Drivers/CMSIS/DSP/Source/TransformFunctions/arm_cfft_radix2_f32.c **** 
 362:Drivers/CMSIS/DSP/Source/TransformFunctions/arm_cfft_radix2_f32.c ****             pSrc[2 * l]     = p0 - p1;
 1805              		.loc 5 362 13 is_stmt 1 discriminator 1 view .LVU687
 1806              		.loc 5 362 34 is_stmt 0 discriminator 1 view .LVU688
 1807 0108 76EE646A 		vsub.f32	s13, s12, s9
 1808              	.LVL197:
 1809              		.loc 5 362 29 discriminator 1 view .LVU689
 1810 010c C0ED006A 		vstr.32	s13, [r0]
 1811              	.LVL198:
 363:Drivers/CMSIS/DSP/Source/TransformFunctions/arm_cfft_radix2_f32.c ****             pSrc[2 * l + 1] = p2 + p3;
 1812              		.loc 5 363 13 is_stmt 1 discriminator 1 view .LVU690
 1813              		.loc 5 363 34 is_stmt 0 discriminator 1 view .LVU691
 1814 0110 37EE277A 		vadd.f32	s14, s14, s15
 1815              	.LVL199:
 1816              		.loc 5 363 29 discriminator 1 view .LVU692
 1817 0114 83ED007A 		vstr.32	s14, [r3]
 364:Drivers/CMSIS/DSP/Source/TransformFunctions/arm_cfft_radix2_f32.c **** 
 365:Drivers/CMSIS/DSP/Source/TransformFunctions/arm_cfft_radix2_f32.c ****             i += n1;
 1818              		.loc 5 365 13 is_stmt 1 discriminator 1 view .LVU693
 1819              		.loc 5 365 15 is_stmt 0 discriminator 1 view .LVU694
 1820 0118 2944     		add	r1, r1, r5
 1821              	.LVL200:
 366:Drivers/CMSIS/DSP/Source/TransformFunctions/arm_cfft_radix2_f32.c ****          } while ( i < fftLen );                 // butterfly loop end
 1822              		.loc 5 366 22 is_stmt 1 discriminator 1 view .LVU695
 1823 011a 8E42     		cmp	r6, r1
 1824 011c CDD8     		bhi	.L76
 367:Drivers/CMSIS/DSP/Source/TransformFunctions/arm_cfft_radix2_f32.c ****          j++;
 1825              		.loc 5 367 10 view .LVU696
 1826              		.loc 5 367 11 is_stmt 0 view .LVU697
 1827 011e 08F10108 		add	r8, r8, #1
 1828              	.LVL201:
 368:Drivers/CMSIS/DSP/Source/TransformFunctions/arm_cfft_radix2_f32.c ****       } while (j < n2);                      // groups loop end
 1829              		.loc 5 368 18 is_stmt 1 view .LVU698
 1830 0122 4445     		cmp	r4, r8
 1831 0124 BED8     		bhi	.L77
 369:Drivers/CMSIS/DSP/Source/TransformFunctions/arm_cfft_radix2_f32.c **** 
 370:Drivers/CMSIS/DSP/Source/TransformFunctions/arm_cfft_radix2_f32.c ****       twidCoefModifier <<= 1U;
 1832              		.loc 5 370 7 discriminator 2 view .LVU699
 1833              		.loc 5 370 24 is_stmt 0 discriminator 2 view .LVU700
 1834 0126 4FEA4A0A 		lsl	r10, r10, #1
 1835              	.LVL202:
 1836              		.loc 5 370 24 discriminator 2 view .LVU701
 1837 012a 1FFA8AFA 		uxth	r10, r10
 1838              	.LVL203:
 329:Drivers/CMSIS/DSP/Source/TransformFunctions/arm_cfft_radix2_f32.c ****    {
ARM GAS  C:\Users\JustE\AppData\Local\Temp\ccF78sEd.s 			page 52


 1839              		.loc 5 329 34 is_stmt 1 discriminator 2 view .LVU702
 1840 012e 4FEA5B0B 		lsr	fp, fp, #1
 1841              	.LVL204:
 332:Drivers/CMSIS/DSP/Source/TransformFunctions/arm_cfft_radix2_f32.c ****       ia = 0;
 1842              		.loc 5 332 10 is_stmt 0 discriminator 2 view .LVU703
 1843 0132 2546     		mov	r5, r4
 1844              	.LVL205:
 1845              	.L75:
 329:Drivers/CMSIS/DSP/Source/TransformFunctions/arm_cfft_radix2_f32.c ****    {
 1846              		.loc 5 329 27 is_stmt 1 discriminator 1 view .LVU704
 1847 0134 BBF1020F 		cmp	fp, #2
 1848 0138 B1D8     		bhi	.L78
 371:Drivers/CMSIS/DSP/Source/TransformFunctions/arm_cfft_radix2_f32.c ****    }                             // stages loop end
 372:Drivers/CMSIS/DSP/Source/TransformFunctions/arm_cfft_radix2_f32.c **** 
 373:Drivers/CMSIS/DSP/Source/TransformFunctions/arm_cfft_radix2_f32.c ****    // loop for butterfly
 374:Drivers/CMSIS/DSP/Source/TransformFunctions/arm_cfft_radix2_f32.c ****    for (i = 0; i < fftLen; i += 2)
 1849              		.loc 5 374 11 is_stmt 0 view .LVU705
 1850 013a 0022     		movs	r2, #0
 1851 013c 2BE0     		b	.L79
 1852              	.LVL206:
 1853              	.L80:
 375:Drivers/CMSIS/DSP/Source/TransformFunctions/arm_cfft_radix2_f32.c ****    {
 376:Drivers/CMSIS/DSP/Source/TransformFunctions/arm_cfft_radix2_f32.c ****       a0 = pSrc[2 * i] + pSrc[2 * i + 2];
 1854              		.loc 5 376 7 is_stmt 1 discriminator 3 view .LVU706
 1855              		.loc 5 376 16 is_stmt 0 discriminator 3 view .LVU707
 1856 013e D300     		lsls	r3, r2, #3
 1857 0140 0CEBC204 		add	r4, ip, r2, lsl #3
 1858 0144 D4ED007A 		vldr.32	s15, [r4]
 1859              		.loc 5 376 30 discriminator 3 view .LVU708
 1860 0148 501C     		adds	r0, r2, #1
 1861 014a 0CEBC000 		add	r0, ip, r0, lsl #3
 1862 014e 90ED007A 		vldr.32	s14, [r0]
 1863              		.loc 5 376 10 discriminator 3 view .LVU709
 1864 0152 37EE876A 		vadd.f32	s12, s15, s14
 1865              	.LVL207:
 377:Drivers/CMSIS/DSP/Source/TransformFunctions/arm_cfft_radix2_f32.c ****       xt = pSrc[2 * i] - pSrc[2 * i + 2];
 1866              		.loc 5 377 7 is_stmt 1 discriminator 3 view .LVU710
 1867              		.loc 5 377 10 is_stmt 0 discriminator 3 view .LVU711
 1868 0156 37EEC77A 		vsub.f32	s14, s15, s14
 1869              	.LVL208:
 378:Drivers/CMSIS/DSP/Source/TransformFunctions/arm_cfft_radix2_f32.c **** 
 379:Drivers/CMSIS/DSP/Source/TransformFunctions/arm_cfft_radix2_f32.c ****       a1 = pSrc[2 * i + 3] + pSrc[2 * i + 1];
 1870              		.loc 5 379 7 is_stmt 1 discriminator 3 view .LVU712
 1871              		.loc 5 379 16 is_stmt 0 discriminator 3 view .LVU713
 1872 015a 03F10C01 		add	r1, r3, #12
 1873 015e 6144     		add	r1, r1, ip
 1874 0160 D1ED005A 		vldr.32	s11, [r1]
 1875              		.loc 5 379 34 discriminator 3 view .LVU714
 1876 0164 0433     		adds	r3, r3, #4
 1877 0166 6344     		add	r3, r3, ip
 1878 0168 D3ED007A 		vldr.32	s15, [r3]
 1879              		.loc 5 379 10 discriminator 3 view .LVU715
 1880 016c 75EEA76A 		vadd.f32	s13, s11, s15
 1881              	.LVL209:
 380:Drivers/CMSIS/DSP/Source/TransformFunctions/arm_cfft_radix2_f32.c ****       yt = pSrc[2 * i + 1] - pSrc[2 * i + 3];
 1882              		.loc 5 380 7 is_stmt 1 discriminator 3 view .LVU716
 1883              		.loc 5 380 10 is_stmt 0 discriminator 3 view .LVU717
ARM GAS  C:\Users\JustE\AppData\Local\Temp\ccF78sEd.s 			page 53


 1884 0170 77EEE57A 		vsub.f32	s15, s15, s11
 1885              	.LVL210:
 381:Drivers/CMSIS/DSP/Source/TransformFunctions/arm_cfft_radix2_f32.c **** 
 382:Drivers/CMSIS/DSP/Source/TransformFunctions/arm_cfft_radix2_f32.c ****       p0 = a0 * onebyfftLen;
 1886              		.loc 5 382 7 is_stmt 1 discriminator 3 view .LVU718
 1887              		.loc 5 382 10 is_stmt 0 discriminator 3 view .LVU719
 1888 0174 26EE236A 		vmul.f32	s12, s12, s7
 1889              	.LVL211:
 383:Drivers/CMSIS/DSP/Source/TransformFunctions/arm_cfft_radix2_f32.c ****       p2 = xt * onebyfftLen;
 1890              		.loc 5 383 7 is_stmt 1 discriminator 3 view .LVU720
 1891              		.loc 5 383 10 is_stmt 0 discriminator 3 view .LVU721
 1892 0178 27EE237A 		vmul.f32	s14, s14, s7
 1893              	.LVL212:
 384:Drivers/CMSIS/DSP/Source/TransformFunctions/arm_cfft_radix2_f32.c ****       p1 = a1 * onebyfftLen;
 1894              		.loc 5 384 7 is_stmt 1 discriminator 3 view .LVU722
 1895              		.loc 5 384 10 is_stmt 0 discriminator 3 view .LVU723
 1896 017c 66EEA36A 		vmul.f32	s13, s13, s7
 1897              	.LVL213:
 385:Drivers/CMSIS/DSP/Source/TransformFunctions/arm_cfft_radix2_f32.c ****       p3 = yt * onebyfftLen;
 1898              		.loc 5 385 7 is_stmt 1 discriminator 3 view .LVU724
 1899              		.loc 5 385 10 is_stmt 0 discriminator 3 view .LVU725
 1900 0180 67EEA37A 		vmul.f32	s15, s15, s7
 1901              	.LVL214:
 386:Drivers/CMSIS/DSP/Source/TransformFunctions/arm_cfft_radix2_f32.c **** 
 387:Drivers/CMSIS/DSP/Source/TransformFunctions/arm_cfft_radix2_f32.c ****       pSrc[2 * i] = p0;
 1902              		.loc 5 387 7 is_stmt 1 discriminator 3 view .LVU726
 1903              		.loc 5 387 19 is_stmt 0 discriminator 3 view .LVU727
 1904 0184 84ED006A 		vstr.32	s12, [r4]
 1905              	.LVL215:
 388:Drivers/CMSIS/DSP/Source/TransformFunctions/arm_cfft_radix2_f32.c ****       pSrc[2 * i + 1] = p1;
 1906              		.loc 5 388 7 is_stmt 1 discriminator 3 view .LVU728
 1907              		.loc 5 388 23 is_stmt 0 discriminator 3 view .LVU729
 1908 0188 C3ED006A 		vstr.32	s13, [r3]
 1909              	.LVL216:
 389:Drivers/CMSIS/DSP/Source/TransformFunctions/arm_cfft_radix2_f32.c ****       pSrc[2 * i + 2] = p2;
 1910              		.loc 5 389 7 is_stmt 1 discriminator 3 view .LVU730
 1911              		.loc 5 389 23 is_stmt 0 discriminator 3 view .LVU731
 1912 018c 80ED007A 		vstr.32	s14, [r0]
 390:Drivers/CMSIS/DSP/Source/TransformFunctions/arm_cfft_radix2_f32.c ****       pSrc[2 * i + 3] = p3;
 1913              		.loc 5 390 7 is_stmt 1 discriminator 3 view .LVU732
 1914              		.loc 5 390 23 is_stmt 0 discriminator 3 view .LVU733
 1915 0190 C1ED007A 		vstr.32	s15, [r1]
 374:Drivers/CMSIS/DSP/Source/TransformFunctions/arm_cfft_radix2_f32.c ****    {
 1916              		.loc 5 374 30 is_stmt 1 discriminator 3 view .LVU734
 1917 0194 0232     		adds	r2, r2, #2
 1918              	.LVL217:
 1919              	.L79:
 374:Drivers/CMSIS/DSP/Source/TransformFunctions/arm_cfft_radix2_f32.c ****    {
 1920              		.loc 5 374 18 discriminator 1 view .LVU735
 1921 0196 B242     		cmp	r2, r6
 1922 0198 D1D3     		bcc	.L80
 391:Drivers/CMSIS/DSP/Source/TransformFunctions/arm_cfft_radix2_f32.c ****    }                             // butterfly loop end
 392:Drivers/CMSIS/DSP/Source/TransformFunctions/arm_cfft_radix2_f32.c **** 
 393:Drivers/CMSIS/DSP/Source/TransformFunctions/arm_cfft_radix2_f32.c **** #else /* #if defined (ARM_MATH_DSP) */
 394:Drivers/CMSIS/DSP/Source/TransformFunctions/arm_cfft_radix2_f32.c **** 
 395:Drivers/CMSIS/DSP/Source/TransformFunctions/arm_cfft_radix2_f32.c ****    n2 = fftLen;
 396:Drivers/CMSIS/DSP/Source/TransformFunctions/arm_cfft_radix2_f32.c **** 
ARM GAS  C:\Users\JustE\AppData\Local\Temp\ccF78sEd.s 			page 54


 397:Drivers/CMSIS/DSP/Source/TransformFunctions/arm_cfft_radix2_f32.c ****    // loop for stage
 398:Drivers/CMSIS/DSP/Source/TransformFunctions/arm_cfft_radix2_f32.c ****    for (k = fftLen; k > 2; k = k >> 1)
 399:Drivers/CMSIS/DSP/Source/TransformFunctions/arm_cfft_radix2_f32.c ****    {
 400:Drivers/CMSIS/DSP/Source/TransformFunctions/arm_cfft_radix2_f32.c ****       n1 = n2;
 401:Drivers/CMSIS/DSP/Source/TransformFunctions/arm_cfft_radix2_f32.c ****       n2 = n2 >> 1;
 402:Drivers/CMSIS/DSP/Source/TransformFunctions/arm_cfft_radix2_f32.c ****       ia = 0;
 403:Drivers/CMSIS/DSP/Source/TransformFunctions/arm_cfft_radix2_f32.c **** 
 404:Drivers/CMSIS/DSP/Source/TransformFunctions/arm_cfft_radix2_f32.c ****       // loop for groups
 405:Drivers/CMSIS/DSP/Source/TransformFunctions/arm_cfft_radix2_f32.c ****       j = 0;
 406:Drivers/CMSIS/DSP/Source/TransformFunctions/arm_cfft_radix2_f32.c ****       do
 407:Drivers/CMSIS/DSP/Source/TransformFunctions/arm_cfft_radix2_f32.c ****       {
 408:Drivers/CMSIS/DSP/Source/TransformFunctions/arm_cfft_radix2_f32.c ****          cosVal = pCoef[ia * 2];
 409:Drivers/CMSIS/DSP/Source/TransformFunctions/arm_cfft_radix2_f32.c ****          sinVal = pCoef[(ia * 2) + 1];
 410:Drivers/CMSIS/DSP/Source/TransformFunctions/arm_cfft_radix2_f32.c ****          ia = ia + twidCoefModifier;
 411:Drivers/CMSIS/DSP/Source/TransformFunctions/arm_cfft_radix2_f32.c **** 
 412:Drivers/CMSIS/DSP/Source/TransformFunctions/arm_cfft_radix2_f32.c ****          // loop for butterfly
 413:Drivers/CMSIS/DSP/Source/TransformFunctions/arm_cfft_radix2_f32.c ****          i = j;
 414:Drivers/CMSIS/DSP/Source/TransformFunctions/arm_cfft_radix2_f32.c ****          do
 415:Drivers/CMSIS/DSP/Source/TransformFunctions/arm_cfft_radix2_f32.c ****          {
 416:Drivers/CMSIS/DSP/Source/TransformFunctions/arm_cfft_radix2_f32.c ****             l = i + n2;
 417:Drivers/CMSIS/DSP/Source/TransformFunctions/arm_cfft_radix2_f32.c ****             a0 = pSrc[2 * i] + pSrc[2 * l];
 418:Drivers/CMSIS/DSP/Source/TransformFunctions/arm_cfft_radix2_f32.c ****             xt = pSrc[2 * i] - pSrc[2 * l];
 419:Drivers/CMSIS/DSP/Source/TransformFunctions/arm_cfft_radix2_f32.c **** 
 420:Drivers/CMSIS/DSP/Source/TransformFunctions/arm_cfft_radix2_f32.c ****             yt = pSrc[2 * i + 1] - pSrc[2 * l + 1];
 421:Drivers/CMSIS/DSP/Source/TransformFunctions/arm_cfft_radix2_f32.c ****             a1 = pSrc[2 * l + 1] + pSrc[2 * i + 1];
 422:Drivers/CMSIS/DSP/Source/TransformFunctions/arm_cfft_radix2_f32.c **** 
 423:Drivers/CMSIS/DSP/Source/TransformFunctions/arm_cfft_radix2_f32.c ****             p0 = xt * cosVal;
 424:Drivers/CMSIS/DSP/Source/TransformFunctions/arm_cfft_radix2_f32.c ****             p1 = yt * sinVal;
 425:Drivers/CMSIS/DSP/Source/TransformFunctions/arm_cfft_radix2_f32.c ****             p2 = yt * cosVal;
 426:Drivers/CMSIS/DSP/Source/TransformFunctions/arm_cfft_radix2_f32.c ****             p3 = xt * sinVal;
 427:Drivers/CMSIS/DSP/Source/TransformFunctions/arm_cfft_radix2_f32.c **** 
 428:Drivers/CMSIS/DSP/Source/TransformFunctions/arm_cfft_radix2_f32.c ****             pSrc[2 * i] = a0;
 429:Drivers/CMSIS/DSP/Source/TransformFunctions/arm_cfft_radix2_f32.c ****             pSrc[2 * i + 1] = a1;
 430:Drivers/CMSIS/DSP/Source/TransformFunctions/arm_cfft_radix2_f32.c **** 
 431:Drivers/CMSIS/DSP/Source/TransformFunctions/arm_cfft_radix2_f32.c ****             pSrc[2 * l]     = p0 - p1;
 432:Drivers/CMSIS/DSP/Source/TransformFunctions/arm_cfft_radix2_f32.c ****             pSrc[2 * l + 1] = p2 + p3;
 433:Drivers/CMSIS/DSP/Source/TransformFunctions/arm_cfft_radix2_f32.c **** 
 434:Drivers/CMSIS/DSP/Source/TransformFunctions/arm_cfft_radix2_f32.c ****             i += n1;
 435:Drivers/CMSIS/DSP/Source/TransformFunctions/arm_cfft_radix2_f32.c ****          } while ( i < fftLen );                    // butterfly loop end
 436:Drivers/CMSIS/DSP/Source/TransformFunctions/arm_cfft_radix2_f32.c ****          j++;
 437:Drivers/CMSIS/DSP/Source/TransformFunctions/arm_cfft_radix2_f32.c ****       } while ( j < n2 );                      // groups loop end
 438:Drivers/CMSIS/DSP/Source/TransformFunctions/arm_cfft_radix2_f32.c **** 
 439:Drivers/CMSIS/DSP/Source/TransformFunctions/arm_cfft_radix2_f32.c ****       twidCoefModifier = twidCoefModifier << 1U;
 440:Drivers/CMSIS/DSP/Source/TransformFunctions/arm_cfft_radix2_f32.c ****    }                             // stages loop end
 441:Drivers/CMSIS/DSP/Source/TransformFunctions/arm_cfft_radix2_f32.c **** 
 442:Drivers/CMSIS/DSP/Source/TransformFunctions/arm_cfft_radix2_f32.c ****    n1 = n2;
 443:Drivers/CMSIS/DSP/Source/TransformFunctions/arm_cfft_radix2_f32.c ****    n2 = n2 >> 1;
 444:Drivers/CMSIS/DSP/Source/TransformFunctions/arm_cfft_radix2_f32.c **** 
 445:Drivers/CMSIS/DSP/Source/TransformFunctions/arm_cfft_radix2_f32.c ****    // loop for butterfly
 446:Drivers/CMSIS/DSP/Source/TransformFunctions/arm_cfft_radix2_f32.c ****    for (i = 0; i < fftLen; i += n1)
 447:Drivers/CMSIS/DSP/Source/TransformFunctions/arm_cfft_radix2_f32.c ****    {
 448:Drivers/CMSIS/DSP/Source/TransformFunctions/arm_cfft_radix2_f32.c ****       l = i + n2;
 449:Drivers/CMSIS/DSP/Source/TransformFunctions/arm_cfft_radix2_f32.c **** 
 450:Drivers/CMSIS/DSP/Source/TransformFunctions/arm_cfft_radix2_f32.c ****       a0 = pSrc[2 * i] + pSrc[2 * l];
 451:Drivers/CMSIS/DSP/Source/TransformFunctions/arm_cfft_radix2_f32.c ****       xt = pSrc[2 * i] - pSrc[2 * l];
 452:Drivers/CMSIS/DSP/Source/TransformFunctions/arm_cfft_radix2_f32.c **** 
 453:Drivers/CMSIS/DSP/Source/TransformFunctions/arm_cfft_radix2_f32.c ****       a1 = pSrc[2 * l + 1] + pSrc[2 * i + 1];
ARM GAS  C:\Users\JustE\AppData\Local\Temp\ccF78sEd.s 			page 55


 454:Drivers/CMSIS/DSP/Source/TransformFunctions/arm_cfft_radix2_f32.c ****       yt = pSrc[2 * i + 1] - pSrc[2 * l + 1];
 455:Drivers/CMSIS/DSP/Source/TransformFunctions/arm_cfft_radix2_f32.c **** 
 456:Drivers/CMSIS/DSP/Source/TransformFunctions/arm_cfft_radix2_f32.c ****       p0 = a0 * onebyfftLen;
 457:Drivers/CMSIS/DSP/Source/TransformFunctions/arm_cfft_radix2_f32.c ****       p2 = xt * onebyfftLen;
 458:Drivers/CMSIS/DSP/Source/TransformFunctions/arm_cfft_radix2_f32.c ****       p1 = a1 * onebyfftLen;
 459:Drivers/CMSIS/DSP/Source/TransformFunctions/arm_cfft_radix2_f32.c ****       p3 = yt * onebyfftLen;
 460:Drivers/CMSIS/DSP/Source/TransformFunctions/arm_cfft_radix2_f32.c **** 
 461:Drivers/CMSIS/DSP/Source/TransformFunctions/arm_cfft_radix2_f32.c ****       pSrc[2 * i] = p0;
 462:Drivers/CMSIS/DSP/Source/TransformFunctions/arm_cfft_radix2_f32.c ****       pSrc[2 * l] = p2;
 463:Drivers/CMSIS/DSP/Source/TransformFunctions/arm_cfft_radix2_f32.c **** 
 464:Drivers/CMSIS/DSP/Source/TransformFunctions/arm_cfft_radix2_f32.c ****       pSrc[2 * i + 1] = p1;
 465:Drivers/CMSIS/DSP/Source/TransformFunctions/arm_cfft_radix2_f32.c ****       pSrc[2 * l + 1] = p3;
 466:Drivers/CMSIS/DSP/Source/TransformFunctions/arm_cfft_radix2_f32.c ****    }                             // butterfly loop end
 467:Drivers/CMSIS/DSP/Source/TransformFunctions/arm_cfft_radix2_f32.c **** 
 468:Drivers/CMSIS/DSP/Source/TransformFunctions/arm_cfft_radix2_f32.c **** #endif /* #if defined (ARM_MATH_DSP) */
 469:Drivers/CMSIS/DSP/Source/TransformFunctions/arm_cfft_radix2_f32.c **** 
 470:Drivers/CMSIS/DSP/Source/TransformFunctions/arm_cfft_radix2_f32.c **** }
 1923              		.loc 5 470 1 is_stmt 0 view .LVU736
 1924 019a BDE8F08F 		pop	{r4, r5, r6, r7, r8, r9, r10, fp, pc}
 1925              		.loc 5 470 1 view .LVU737
 1926              		.cfi_endproc
 1927              	.LFE161:
 1929              		.section	.text.arm_cfft_radix2_f32,"ax",%progbits
 1930              		.align	1
 1931              		.global	arm_cfft_radix2_f32
 1932              		.syntax unified
 1933              		.thumb
 1934              		.thumb_func
 1936              	arm_cfft_radix2_f32:
 1937              	.LVL218:
 1938              	.LFB159:
  70:Drivers/CMSIS/DSP/Source/TransformFunctions/arm_cfft_radix2_f32.c **** 
 1939              		.loc 5 70 1 is_stmt 1 view -0
 1940              		.cfi_startproc
 1941              		@ args = 0, pretend = 0, frame = 0
 1942              		@ frame_needed = 0, uses_anonymous_args = 0
  70:Drivers/CMSIS/DSP/Source/TransformFunctions/arm_cfft_radix2_f32.c **** 
 1943              		.loc 5 70 1 is_stmt 0 view .LVU739
 1944 0000 38B5     		push	{r3, r4, r5, lr}
 1945              	.LCFI9:
 1946              		.cfi_def_cfa_offset 16
 1947              		.cfi_offset 3, -16
 1948              		.cfi_offset 4, -12
 1949              		.cfi_offset 5, -8
 1950              		.cfi_offset 14, -4
 1951 0002 0446     		mov	r4, r0
 1952 0004 0D46     		mov	r5, r1
  72:Drivers/CMSIS/DSP/Source/TransformFunctions/arm_cfft_radix2_f32.c ****    {
 1953              		.loc 5 72 4 is_stmt 1 view .LVU740
  72:Drivers/CMSIS/DSP/Source/TransformFunctions/arm_cfft_radix2_f32.c ****    {
 1954              		.loc 5 72 9 is_stmt 0 view .LVU741
 1955 0006 8378     		ldrb	r3, [r0, #2]	@ zero_extendqisi2
  72:Drivers/CMSIS/DSP/Source/TransformFunctions/arm_cfft_radix2_f32.c ****    {
 1956              		.loc 5 72 7 view .LVU742
 1957 0008 012B     		cmp	r3, #1
 1958 000a 09D0     		beq	.L87
  81:Drivers/CMSIS/DSP/Source/TransformFunctions/arm_cfft_radix2_f32.c ****       S->twidCoefModifier);
ARM GAS  C:\Users\JustE\AppData\Local\Temp\ccF78sEd.s 			page 56


 1959              		.loc 5 81 7 is_stmt 1 view .LVU743
 1960 000c 8389     		ldrh	r3, [r0, #12]
 1961 000e 4268     		ldr	r2, [r0, #4]
 1962 0010 0188     		ldrh	r1, [r0]
 1963              	.LVL219:
  81:Drivers/CMSIS/DSP/Source/TransformFunctions/arm_cfft_radix2_f32.c ****       S->twidCoefModifier);
 1964              		.loc 5 81 7 is_stmt 0 view .LVU744
 1965 0012 2846     		mov	r0, r5
 1966              	.LVL220:
  81:Drivers/CMSIS/DSP/Source/TransformFunctions/arm_cfft_radix2_f32.c ****       S->twidCoefModifier);
 1967              		.loc 5 81 7 view .LVU745
 1968 0014 FFF7FEFF 		bl	arm_radix2_butterfly_f32
 1969              	.LVL221:
 1970              	.L84:
  85:Drivers/CMSIS/DSP/Source/TransformFunctions/arm_cfft_radix2_f32.c ****    {
 1971              		.loc 5 85 4 is_stmt 1 view .LVU746
  85:Drivers/CMSIS/DSP/Source/TransformFunctions/arm_cfft_radix2_f32.c ****    {
 1972              		.loc 5 85 9 is_stmt 0 view .LVU747
 1973 0018 E378     		ldrb	r3, [r4, #3]	@ zero_extendqisi2
  85:Drivers/CMSIS/DSP/Source/TransformFunctions/arm_cfft_radix2_f32.c ****    {
 1974              		.loc 5 85 7 view .LVU748
 1975 001a 012B     		cmp	r3, #1
 1976 001c 09D0     		beq	.L88
 1977              	.L82:
  91:Drivers/CMSIS/DSP/Source/TransformFunctions/arm_cfft_radix2_f32.c **** 
 1978              		.loc 5 91 1 view .LVU749
 1979 001e 38BD     		pop	{r3, r4, r5, pc}
 1980              	.LVL222:
 1981              	.L87:
  75:Drivers/CMSIS/DSP/Source/TransformFunctions/arm_cfft_radix2_f32.c ****       S->twidCoefModifier, S->onebyfftLen);
 1982              		.loc 5 75 7 is_stmt 1 view .LVU750
 1983 0020 90ED040A 		vldr.32	s0, [r0, #16]
 1984 0024 8389     		ldrh	r3, [r0, #12]
 1985 0026 4268     		ldr	r2, [r0, #4]
 1986 0028 0188     		ldrh	r1, [r0]
 1987              	.LVL223:
  75:Drivers/CMSIS/DSP/Source/TransformFunctions/arm_cfft_radix2_f32.c ****       S->twidCoefModifier, S->onebyfftLen);
 1988              		.loc 5 75 7 is_stmt 0 view .LVU751
 1989 002a 2846     		mov	r0, r5
 1990              	.LVL224:
  75:Drivers/CMSIS/DSP/Source/TransformFunctions/arm_cfft_radix2_f32.c ****       S->twidCoefModifier, S->onebyfftLen);
 1991              		.loc 5 75 7 view .LVU752
 1992 002c FFF7FEFF 		bl	arm_radix2_butterfly_inverse_f32
 1993              	.LVL225:
 1994 0030 F2E7     		b	.L84
 1995              	.L88:
  88:Drivers/CMSIS/DSP/Source/TransformFunctions/arm_cfft_radix2_f32.c ****    }
 1996              		.loc 5 88 7 is_stmt 1 view .LVU753
 1997 0032 A368     		ldr	r3, [r4, #8]
 1998 0034 E289     		ldrh	r2, [r4, #14]
 1999 0036 2188     		ldrh	r1, [r4]
 2000 0038 2846     		mov	r0, r5
 2001 003a FFF7FEFF 		bl	arm_bitreversal_f32
 2002              	.LVL226:
  91:Drivers/CMSIS/DSP/Source/TransformFunctions/arm_cfft_radix2_f32.c **** 
 2003              		.loc 5 91 1 is_stmt 0 view .LVU754
 2004 003e EEE7     		b	.L82
ARM GAS  C:\Users\JustE\AppData\Local\Temp\ccF78sEd.s 			page 57


 2005              		.cfi_endproc
 2006              	.LFE159:
 2008              		.section	.text.arm_cfft_radix2_init_f32,"ax",%progbits
 2009              		.align	1
 2010              		.global	arm_cfft_radix2_init_f32
 2011              		.syntax unified
 2012              		.thumb
 2013              		.thumb_func
 2015              	arm_cfft_radix2_init_f32:
 2016              	.LVL227:
 2017              	.LFB162:
 2018              		.file 6 "Drivers/CMSIS/DSP/Source/TransformFunctions/arm_cfft_radix2_init_f32.c"
   1:Drivers/CMSIS/DSP/Source/TransformFunctions/arm_cfft_radix2_init_f32.c **** /* ----------------------------------------------------------------------
   2:Drivers/CMSIS/DSP/Source/TransformFunctions/arm_cfft_radix2_init_f32.c ****  * Project:      CMSIS DSP Library
   3:Drivers/CMSIS/DSP/Source/TransformFunctions/arm_cfft_radix2_init_f32.c ****  * Title:        arm_cfft_radix2_init_f32.c
   4:Drivers/CMSIS/DSP/Source/TransformFunctions/arm_cfft_radix2_init_f32.c ****  * Description:  Radix-2 Decimation in Frequency Floating-point CFFT & CIFFT Initialization functio
   5:Drivers/CMSIS/DSP/Source/TransformFunctions/arm_cfft_radix2_init_f32.c ****  *
   6:Drivers/CMSIS/DSP/Source/TransformFunctions/arm_cfft_radix2_init_f32.c ****  * $Date:        18. March 2019
   7:Drivers/CMSIS/DSP/Source/TransformFunctions/arm_cfft_radix2_init_f32.c ****  * $Revision:    V1.6.0
   8:Drivers/CMSIS/DSP/Source/TransformFunctions/arm_cfft_radix2_init_f32.c ****  *
   9:Drivers/CMSIS/DSP/Source/TransformFunctions/arm_cfft_radix2_init_f32.c ****  * Target Processor: Cortex-M cores
  10:Drivers/CMSIS/DSP/Source/TransformFunctions/arm_cfft_radix2_init_f32.c ****  * -------------------------------------------------------------------- */
  11:Drivers/CMSIS/DSP/Source/TransformFunctions/arm_cfft_radix2_init_f32.c **** /*
  12:Drivers/CMSIS/DSP/Source/TransformFunctions/arm_cfft_radix2_init_f32.c ****  * Copyright (C) 2010-2019 ARM Limited or its affiliates. All rights reserved.
  13:Drivers/CMSIS/DSP/Source/TransformFunctions/arm_cfft_radix2_init_f32.c ****  *
  14:Drivers/CMSIS/DSP/Source/TransformFunctions/arm_cfft_radix2_init_f32.c ****  * SPDX-License-Identifier: Apache-2.0
  15:Drivers/CMSIS/DSP/Source/TransformFunctions/arm_cfft_radix2_init_f32.c ****  *
  16:Drivers/CMSIS/DSP/Source/TransformFunctions/arm_cfft_radix2_init_f32.c ****  * Licensed under the Apache License, Version 2.0 (the License); you may
  17:Drivers/CMSIS/DSP/Source/TransformFunctions/arm_cfft_radix2_init_f32.c ****  * not use this file except in compliance with the License.
  18:Drivers/CMSIS/DSP/Source/TransformFunctions/arm_cfft_radix2_init_f32.c ****  * You may obtain a copy of the License at
  19:Drivers/CMSIS/DSP/Source/TransformFunctions/arm_cfft_radix2_init_f32.c ****  *
  20:Drivers/CMSIS/DSP/Source/TransformFunctions/arm_cfft_radix2_init_f32.c ****  * www.apache.org/licenses/LICENSE-2.0
  21:Drivers/CMSIS/DSP/Source/TransformFunctions/arm_cfft_radix2_init_f32.c ****  *
  22:Drivers/CMSIS/DSP/Source/TransformFunctions/arm_cfft_radix2_init_f32.c ****  * Unless required by applicable law or agreed to in writing, software
  23:Drivers/CMSIS/DSP/Source/TransformFunctions/arm_cfft_radix2_init_f32.c ****  * distributed under the License is distributed on an AS IS BASIS, WITHOUT
  24:Drivers/CMSIS/DSP/Source/TransformFunctions/arm_cfft_radix2_init_f32.c ****  * WARRANTIES OR CONDITIONS OF ANY KIND, either express or implied.
  25:Drivers/CMSIS/DSP/Source/TransformFunctions/arm_cfft_radix2_init_f32.c ****  * See the License for the specific language governing permissions and
  26:Drivers/CMSIS/DSP/Source/TransformFunctions/arm_cfft_radix2_init_f32.c ****  * limitations under the License.
  27:Drivers/CMSIS/DSP/Source/TransformFunctions/arm_cfft_radix2_init_f32.c ****  */
  28:Drivers/CMSIS/DSP/Source/TransformFunctions/arm_cfft_radix2_init_f32.c **** 
  29:Drivers/CMSIS/DSP/Source/TransformFunctions/arm_cfft_radix2_init_f32.c **** #include "arm_math.h"
  30:Drivers/CMSIS/DSP/Source/TransformFunctions/arm_cfft_radix2_init_f32.c **** #include "arm_common_tables.h"
  31:Drivers/CMSIS/DSP/Source/TransformFunctions/arm_cfft_radix2_init_f32.c **** 
  32:Drivers/CMSIS/DSP/Source/TransformFunctions/arm_cfft_radix2_init_f32.c **** /**
  33:Drivers/CMSIS/DSP/Source/TransformFunctions/arm_cfft_radix2_init_f32.c ****   @ingroup groupTransforms
  34:Drivers/CMSIS/DSP/Source/TransformFunctions/arm_cfft_radix2_init_f32.c ****  */
  35:Drivers/CMSIS/DSP/Source/TransformFunctions/arm_cfft_radix2_init_f32.c **** 
  36:Drivers/CMSIS/DSP/Source/TransformFunctions/arm_cfft_radix2_init_f32.c **** /**
  37:Drivers/CMSIS/DSP/Source/TransformFunctions/arm_cfft_radix2_init_f32.c ****   @addtogroup ComplexFFT
  38:Drivers/CMSIS/DSP/Source/TransformFunctions/arm_cfft_radix2_init_f32.c ****   @{
  39:Drivers/CMSIS/DSP/Source/TransformFunctions/arm_cfft_radix2_init_f32.c ****  */
  40:Drivers/CMSIS/DSP/Source/TransformFunctions/arm_cfft_radix2_init_f32.c **** 
  41:Drivers/CMSIS/DSP/Source/TransformFunctions/arm_cfft_radix2_init_f32.c **** /**
  42:Drivers/CMSIS/DSP/Source/TransformFunctions/arm_cfft_radix2_init_f32.c ****   @brief         Initialization function for the floating-point CFFT/CIFFT.
  43:Drivers/CMSIS/DSP/Source/TransformFunctions/arm_cfft_radix2_init_f32.c ****   @deprecated    Do not use this function. It has been superseded by \ref arm_cfft_f32 and will be 
  44:Drivers/CMSIS/DSP/Source/TransformFunctions/arm_cfft_radix2_init_f32.c ****   @param[in,out] S              points to an instance of the floating-point CFFT/CIFFT structure
  45:Drivers/CMSIS/DSP/Source/TransformFunctions/arm_cfft_radix2_init_f32.c ****   @param[in]     fftLen         length of the FFT
ARM GAS  C:\Users\JustE\AppData\Local\Temp\ccF78sEd.s 			page 58


  46:Drivers/CMSIS/DSP/Source/TransformFunctions/arm_cfft_radix2_init_f32.c ****   @param[in]     ifftFlag       flag that selects transform direction
  47:Drivers/CMSIS/DSP/Source/TransformFunctions/arm_cfft_radix2_init_f32.c ****                    - value = 0: forward transform
  48:Drivers/CMSIS/DSP/Source/TransformFunctions/arm_cfft_radix2_init_f32.c ****                    - value = 1: inverse transform
  49:Drivers/CMSIS/DSP/Source/TransformFunctions/arm_cfft_radix2_init_f32.c ****   @param[in]     bitReverseFlag flag that enables / disables bit reversal of output
  50:Drivers/CMSIS/DSP/Source/TransformFunctions/arm_cfft_radix2_init_f32.c ****                    - value = 0: disables bit reversal of output
  51:Drivers/CMSIS/DSP/Source/TransformFunctions/arm_cfft_radix2_init_f32.c ****                    - value = 1: enables bit reversal of output
  52:Drivers/CMSIS/DSP/Source/TransformFunctions/arm_cfft_radix2_init_f32.c ****   @return        execution status
  53:Drivers/CMSIS/DSP/Source/TransformFunctions/arm_cfft_radix2_init_f32.c ****                    - \ref ARM_MATH_SUCCESS        : Operation successful
  54:Drivers/CMSIS/DSP/Source/TransformFunctions/arm_cfft_radix2_init_f32.c ****                    - \ref ARM_MATH_ARGUMENT_ERROR : <code>fftLen</code> is not a supported length
  55:Drivers/CMSIS/DSP/Source/TransformFunctions/arm_cfft_radix2_init_f32.c **** 
  56:Drivers/CMSIS/DSP/Source/TransformFunctions/arm_cfft_radix2_init_f32.c ****   @par           Details
  57:Drivers/CMSIS/DSP/Source/TransformFunctions/arm_cfft_radix2_init_f32.c ****                    The parameter <code>ifftFlag</code> controls whether a forward or inverse transf
  58:Drivers/CMSIS/DSP/Source/TransformFunctions/arm_cfft_radix2_init_f32.c ****                    Set(=1) ifftFlag for calculation of CIFFT otherwise  CFFT is calculated
  59:Drivers/CMSIS/DSP/Source/TransformFunctions/arm_cfft_radix2_init_f32.c ****   @par
  60:Drivers/CMSIS/DSP/Source/TransformFunctions/arm_cfft_radix2_init_f32.c ****                    The parameter <code>bitReverseFlag</code> controls whether output is in normal o
  61:Drivers/CMSIS/DSP/Source/TransformFunctions/arm_cfft_radix2_init_f32.c ****                    Set(=1) bitReverseFlag for output to be in normal order otherwise output is in b
  62:Drivers/CMSIS/DSP/Source/TransformFunctions/arm_cfft_radix2_init_f32.c ****   @par
  63:Drivers/CMSIS/DSP/Source/TransformFunctions/arm_cfft_radix2_init_f32.c ****                    The parameter <code>fftLen</code> Specifies length of CFFT/CIFFT process. Suppor
  64:Drivers/CMSIS/DSP/Source/TransformFunctions/arm_cfft_radix2_init_f32.c ****   @par
  65:Drivers/CMSIS/DSP/Source/TransformFunctions/arm_cfft_radix2_init_f32.c ****                    This Function also initializes Twiddle factor table pointer and Bit reversal tab
  66:Drivers/CMSIS/DSP/Source/TransformFunctions/arm_cfft_radix2_init_f32.c **** */
  67:Drivers/CMSIS/DSP/Source/TransformFunctions/arm_cfft_radix2_init_f32.c **** 
  68:Drivers/CMSIS/DSP/Source/TransformFunctions/arm_cfft_radix2_init_f32.c **** arm_status arm_cfft_radix2_init_f32(
  69:Drivers/CMSIS/DSP/Source/TransformFunctions/arm_cfft_radix2_init_f32.c ****   arm_cfft_radix2_instance_f32 * S,
  70:Drivers/CMSIS/DSP/Source/TransformFunctions/arm_cfft_radix2_init_f32.c ****   uint16_t fftLen,
  71:Drivers/CMSIS/DSP/Source/TransformFunctions/arm_cfft_radix2_init_f32.c ****   uint8_t ifftFlag,
  72:Drivers/CMSIS/DSP/Source/TransformFunctions/arm_cfft_radix2_init_f32.c ****   uint8_t bitReverseFlag)
  73:Drivers/CMSIS/DSP/Source/TransformFunctions/arm_cfft_radix2_init_f32.c **** {
 2019              		.loc 6 73 1 is_stmt 1 view -0
 2020              		.cfi_startproc
 2021              		@ args = 0, pretend = 0, frame = 0
 2022              		@ frame_needed = 0, uses_anonymous_args = 0
 2023              		@ link register save eliminated.
 2024              		.loc 6 73 1 is_stmt 0 view .LVU756
 2025 0000 10B4     		push	{r4}
 2026              	.LCFI10:
 2027              		.cfi_def_cfa_offset 4
 2028              		.cfi_offset 4, -4
  74:Drivers/CMSIS/DSP/Source/TransformFunctions/arm_cfft_radix2_init_f32.c ****   /*  Initialise the default arm status */
  75:Drivers/CMSIS/DSP/Source/TransformFunctions/arm_cfft_radix2_init_f32.c ****   arm_status status = ARM_MATH_SUCCESS;
 2029              		.loc 6 75 3 is_stmt 1 view .LVU757
 2030              	.LVL228:
  76:Drivers/CMSIS/DSP/Source/TransformFunctions/arm_cfft_radix2_init_f32.c **** 
  77:Drivers/CMSIS/DSP/Source/TransformFunctions/arm_cfft_radix2_init_f32.c ****   /*  Initialise the FFT length */
  78:Drivers/CMSIS/DSP/Source/TransformFunctions/arm_cfft_radix2_init_f32.c ****   S->fftLen = fftLen;
 2031              		.loc 6 78 3 view .LVU758
 2032              		.loc 6 78 13 is_stmt 0 view .LVU759
 2033 0002 0180     		strh	r1, [r0]	@ movhi
  79:Drivers/CMSIS/DSP/Source/TransformFunctions/arm_cfft_radix2_init_f32.c **** 
  80:Drivers/CMSIS/DSP/Source/TransformFunctions/arm_cfft_radix2_init_f32.c ****   /*  Initialise the Twiddle coefficient pointer */
  81:Drivers/CMSIS/DSP/Source/TransformFunctions/arm_cfft_radix2_init_f32.c ****   S->pTwiddle = (float32_t *) twiddleCoef;
 2034              		.loc 6 81 3 is_stmt 1 view .LVU760
 2035              		.loc 6 81 15 is_stmt 0 view .LVU761
 2036 0004 434C     		ldr	r4, .L110
 2037 0006 4460     		str	r4, [r0, #4]
  82:Drivers/CMSIS/DSP/Source/TransformFunctions/arm_cfft_radix2_init_f32.c **** 
  83:Drivers/CMSIS/DSP/Source/TransformFunctions/arm_cfft_radix2_init_f32.c ****   /*  Initialise the Flag for selection of CFFT or CIFFT */
ARM GAS  C:\Users\JustE\AppData\Local\Temp\ccF78sEd.s 			page 59


  84:Drivers/CMSIS/DSP/Source/TransformFunctions/arm_cfft_radix2_init_f32.c ****   S->ifftFlag = ifftFlag;
 2038              		.loc 6 84 3 is_stmt 1 view .LVU762
 2039              		.loc 6 84 15 is_stmt 0 view .LVU763
 2040 0008 8270     		strb	r2, [r0, #2]
  85:Drivers/CMSIS/DSP/Source/TransformFunctions/arm_cfft_radix2_init_f32.c **** 
  86:Drivers/CMSIS/DSP/Source/TransformFunctions/arm_cfft_radix2_init_f32.c ****   /*  Initialise the Flag for calculation Bit reversal or not */
  87:Drivers/CMSIS/DSP/Source/TransformFunctions/arm_cfft_radix2_init_f32.c ****   S->bitReverseFlag = bitReverseFlag;
 2041              		.loc 6 87 3 is_stmt 1 view .LVU764
 2042              		.loc 6 87 21 is_stmt 0 view .LVU765
 2043 000a C370     		strb	r3, [r0, #3]
  88:Drivers/CMSIS/DSP/Source/TransformFunctions/arm_cfft_radix2_init_f32.c **** 
  89:Drivers/CMSIS/DSP/Source/TransformFunctions/arm_cfft_radix2_init_f32.c ****   /*  Initializations of structure parameters depending on the FFT length */
  90:Drivers/CMSIS/DSP/Source/TransformFunctions/arm_cfft_radix2_init_f32.c ****   switch (S->fftLen)
 2044              		.loc 6 90 3 is_stmt 1 view .LVU766
 2045 000c B1F5807F 		cmp	r1, #256
 2046 0010 5DD0     		beq	.L90
 2047 0012 10D9     		bls	.L104
 2048 0014 B1F5006F 		cmp	r1, #2048
 2049 0018 45D0     		beq	.L98
 2050 001a 31D9     		bls	.L105
 2051 001c B1F5805F 		cmp	r1, #4096
 2052 0020 74D1     		bne	.L102
  91:Drivers/CMSIS/DSP/Source/TransformFunctions/arm_cfft_radix2_init_f32.c ****   {
  92:Drivers/CMSIS/DSP/Source/TransformFunctions/arm_cfft_radix2_init_f32.c **** 
  93:Drivers/CMSIS/DSP/Source/TransformFunctions/arm_cfft_radix2_init_f32.c ****   case 4096U:
  94:Drivers/CMSIS/DSP/Source/TransformFunctions/arm_cfft_radix2_init_f32.c ****     /*  Initializations of structure parameters for 4096 point FFT */
  95:Drivers/CMSIS/DSP/Source/TransformFunctions/arm_cfft_radix2_init_f32.c **** 
  96:Drivers/CMSIS/DSP/Source/TransformFunctions/arm_cfft_radix2_init_f32.c ****     /*  Initialise the twiddle coef modifier value */
  97:Drivers/CMSIS/DSP/Source/TransformFunctions/arm_cfft_radix2_init_f32.c ****     S->twidCoefModifier = 1U;
 2053              		.loc 6 97 5 view .LVU767
 2054              		.loc 6 97 25 is_stmt 0 view .LVU768
 2055 0022 0123     		movs	r3, #1
 2056              	.LVL229:
 2057              		.loc 6 97 25 view .LVU769
 2058 0024 8381     		strh	r3, [r0, #12]	@ movhi
  98:Drivers/CMSIS/DSP/Source/TransformFunctions/arm_cfft_radix2_init_f32.c ****     /*  Initialise the bit reversal table modifier */
  99:Drivers/CMSIS/DSP/Source/TransformFunctions/arm_cfft_radix2_init_f32.c ****     S->bitRevFactor = 1U;
 2059              		.loc 6 99 5 is_stmt 1 view .LVU770
 2060              		.loc 6 99 21 is_stmt 0 view .LVU771
 2061 0026 C381     		strh	r3, [r0, #14]	@ movhi
 100:Drivers/CMSIS/DSP/Source/TransformFunctions/arm_cfft_radix2_init_f32.c ****     /*  Initialise the bit reversal table pointer */
 101:Drivers/CMSIS/DSP/Source/TransformFunctions/arm_cfft_radix2_init_f32.c ****     S->pBitRevTable = (uint16_t *) armBitRevTable;
 2062              		.loc 6 101 5 is_stmt 1 view .LVU772
 2063              		.loc 6 101 21 is_stmt 0 view .LVU773
 2064 0028 3B4B     		ldr	r3, .L110+4
 2065 002a 8360     		str	r3, [r0, #8]
 102:Drivers/CMSIS/DSP/Source/TransformFunctions/arm_cfft_radix2_init_f32.c ****     /*  Initialise the 1/fftLen Value */
 103:Drivers/CMSIS/DSP/Source/TransformFunctions/arm_cfft_radix2_init_f32.c ****     S->onebyfftLen = 0.000244140625;
 2066              		.loc 6 103 5 is_stmt 1 view .LVU774
 2067              		.loc 6 103 20 is_stmt 0 view .LVU775
 2068 002c 4FF06653 		mov	r3, #964689920
 2069 0030 0361     		str	r3, [r0, #16]	@ float
 104:Drivers/CMSIS/DSP/Source/TransformFunctions/arm_cfft_radix2_init_f32.c ****     break;
 2070              		.loc 6 104 5 is_stmt 1 view .LVU776
  75:Drivers/CMSIS/DSP/Source/TransformFunctions/arm_cfft_radix2_init_f32.c **** 
 2071              		.loc 6 75 14 is_stmt 0 view .LVU777
 2072 0032 0020     		movs	r0, #0
ARM GAS  C:\Users\JustE\AppData\Local\Temp\ccF78sEd.s 			page 60


 2073              	.LVL230:
 2074              		.loc 6 104 5 view .LVU778
 2075 0034 21E0     		b	.L96
 2076              	.LVL231:
 2077              	.L104:
  90:Drivers/CMSIS/DSP/Source/TransformFunctions/arm_cfft_radix2_init_f32.c ****   {
 2078              		.loc 6 90 3 view .LVU779
 2079 0036 4029     		cmp	r1, #64
 2080 0038 53D0     		beq	.L92
 2081 003a 0BD9     		bls	.L106
 2082 003c 8029     		cmp	r1, #128
 2083 003e 1AD1     		bne	.L107
 105:Drivers/CMSIS/DSP/Source/TransformFunctions/arm_cfft_radix2_init_f32.c **** 
 106:Drivers/CMSIS/DSP/Source/TransformFunctions/arm_cfft_radix2_init_f32.c ****   case 2048U:
 107:Drivers/CMSIS/DSP/Source/TransformFunctions/arm_cfft_radix2_init_f32.c ****     /*  Initializations of structure parameters for 2048 point FFT */
 108:Drivers/CMSIS/DSP/Source/TransformFunctions/arm_cfft_radix2_init_f32.c **** 
 109:Drivers/CMSIS/DSP/Source/TransformFunctions/arm_cfft_radix2_init_f32.c ****     /*  Initialise the twiddle coef modifier value */
 110:Drivers/CMSIS/DSP/Source/TransformFunctions/arm_cfft_radix2_init_f32.c ****     S->twidCoefModifier = 2U;
 111:Drivers/CMSIS/DSP/Source/TransformFunctions/arm_cfft_radix2_init_f32.c ****     /*  Initialise the bit reversal table modifier */
 112:Drivers/CMSIS/DSP/Source/TransformFunctions/arm_cfft_radix2_init_f32.c ****     S->bitRevFactor = 2U;
 113:Drivers/CMSIS/DSP/Source/TransformFunctions/arm_cfft_radix2_init_f32.c ****     /*  Initialise the bit reversal table pointer */
 114:Drivers/CMSIS/DSP/Source/TransformFunctions/arm_cfft_radix2_init_f32.c ****     S->pBitRevTable = (uint16_t *) & armBitRevTable[1];
 115:Drivers/CMSIS/DSP/Source/TransformFunctions/arm_cfft_radix2_init_f32.c ****     /*  Initialise the 1/fftLen Value */
 116:Drivers/CMSIS/DSP/Source/TransformFunctions/arm_cfft_radix2_init_f32.c ****     S->onebyfftLen = 0.00048828125;
 117:Drivers/CMSIS/DSP/Source/TransformFunctions/arm_cfft_radix2_init_f32.c ****     break;
 118:Drivers/CMSIS/DSP/Source/TransformFunctions/arm_cfft_radix2_init_f32.c **** 
 119:Drivers/CMSIS/DSP/Source/TransformFunctions/arm_cfft_radix2_init_f32.c ****   case 1024U:
 120:Drivers/CMSIS/DSP/Source/TransformFunctions/arm_cfft_radix2_init_f32.c ****     /*  Initializations of structure parameters for 1024 point FFT */
 121:Drivers/CMSIS/DSP/Source/TransformFunctions/arm_cfft_radix2_init_f32.c **** 
 122:Drivers/CMSIS/DSP/Source/TransformFunctions/arm_cfft_radix2_init_f32.c ****     /*  Initialise the twiddle coef modifier value */
 123:Drivers/CMSIS/DSP/Source/TransformFunctions/arm_cfft_radix2_init_f32.c ****     S->twidCoefModifier = 4U;
 124:Drivers/CMSIS/DSP/Source/TransformFunctions/arm_cfft_radix2_init_f32.c ****     /*  Initialise the bit reversal table modifier */
 125:Drivers/CMSIS/DSP/Source/TransformFunctions/arm_cfft_radix2_init_f32.c ****     S->bitRevFactor = 4U;
 126:Drivers/CMSIS/DSP/Source/TransformFunctions/arm_cfft_radix2_init_f32.c ****     /*  Initialise the bit reversal table pointer */
 127:Drivers/CMSIS/DSP/Source/TransformFunctions/arm_cfft_radix2_init_f32.c ****     S->pBitRevTable = (uint16_t *) & armBitRevTable[3];
 128:Drivers/CMSIS/DSP/Source/TransformFunctions/arm_cfft_radix2_init_f32.c ****     /*  Initialise the 1/fftLen Value */
 129:Drivers/CMSIS/DSP/Source/TransformFunctions/arm_cfft_radix2_init_f32.c ****     S->onebyfftLen = 0.0009765625f;
 130:Drivers/CMSIS/DSP/Source/TransformFunctions/arm_cfft_radix2_init_f32.c ****     break;
 131:Drivers/CMSIS/DSP/Source/TransformFunctions/arm_cfft_radix2_init_f32.c **** 
 132:Drivers/CMSIS/DSP/Source/TransformFunctions/arm_cfft_radix2_init_f32.c ****   case 512U:
 133:Drivers/CMSIS/DSP/Source/TransformFunctions/arm_cfft_radix2_init_f32.c ****     /*  Initializations of structure parameters for 512 point FFT */
 134:Drivers/CMSIS/DSP/Source/TransformFunctions/arm_cfft_radix2_init_f32.c **** 
 135:Drivers/CMSIS/DSP/Source/TransformFunctions/arm_cfft_radix2_init_f32.c ****     /*  Initialise the twiddle coef modifier value */
 136:Drivers/CMSIS/DSP/Source/TransformFunctions/arm_cfft_radix2_init_f32.c ****     S->twidCoefModifier = 8U;
 137:Drivers/CMSIS/DSP/Source/TransformFunctions/arm_cfft_radix2_init_f32.c ****     /*  Initialise the bit reversal table modifier */
 138:Drivers/CMSIS/DSP/Source/TransformFunctions/arm_cfft_radix2_init_f32.c ****     S->bitRevFactor = 8U;
 139:Drivers/CMSIS/DSP/Source/TransformFunctions/arm_cfft_radix2_init_f32.c ****     /*  Initialise the bit reversal table pointer */
 140:Drivers/CMSIS/DSP/Source/TransformFunctions/arm_cfft_radix2_init_f32.c ****     S->pBitRevTable = (uint16_t *) & armBitRevTable[7];
 141:Drivers/CMSIS/DSP/Source/TransformFunctions/arm_cfft_radix2_init_f32.c ****     /*  Initialise the 1/fftLen Value */
 142:Drivers/CMSIS/DSP/Source/TransformFunctions/arm_cfft_radix2_init_f32.c ****     S->onebyfftLen = 0.001953125;
 143:Drivers/CMSIS/DSP/Source/TransformFunctions/arm_cfft_radix2_init_f32.c ****     break;
 144:Drivers/CMSIS/DSP/Source/TransformFunctions/arm_cfft_radix2_init_f32.c **** 
 145:Drivers/CMSIS/DSP/Source/TransformFunctions/arm_cfft_radix2_init_f32.c ****   case 256U:
 146:Drivers/CMSIS/DSP/Source/TransformFunctions/arm_cfft_radix2_init_f32.c ****     /*  Initializations of structure parameters for 256 point FFT */
 147:Drivers/CMSIS/DSP/Source/TransformFunctions/arm_cfft_radix2_init_f32.c ****     S->twidCoefModifier = 16U;
 148:Drivers/CMSIS/DSP/Source/TransformFunctions/arm_cfft_radix2_init_f32.c ****     S->bitRevFactor = 16U;
 149:Drivers/CMSIS/DSP/Source/TransformFunctions/arm_cfft_radix2_init_f32.c ****     S->pBitRevTable = (uint16_t *) & armBitRevTable[15];
ARM GAS  C:\Users\JustE\AppData\Local\Temp\ccF78sEd.s 			page 61


 150:Drivers/CMSIS/DSP/Source/TransformFunctions/arm_cfft_radix2_init_f32.c ****     S->onebyfftLen = 0.00390625f;
 151:Drivers/CMSIS/DSP/Source/TransformFunctions/arm_cfft_radix2_init_f32.c ****     break;
 152:Drivers/CMSIS/DSP/Source/TransformFunctions/arm_cfft_radix2_init_f32.c **** 
 153:Drivers/CMSIS/DSP/Source/TransformFunctions/arm_cfft_radix2_init_f32.c ****   case 128U:
 154:Drivers/CMSIS/DSP/Source/TransformFunctions/arm_cfft_radix2_init_f32.c ****     /*  Initializations of structure parameters for 128 point FFT */
 155:Drivers/CMSIS/DSP/Source/TransformFunctions/arm_cfft_radix2_init_f32.c ****     S->twidCoefModifier = 32U;
 2084              		.loc 6 155 5 is_stmt 1 view .LVU780
 2085              		.loc 6 155 25 is_stmt 0 view .LVU781
 2086 0040 2023     		movs	r3, #32
 2087              	.LVL232:
 2088              		.loc 6 155 25 view .LVU782
 2089 0042 8381     		strh	r3, [r0, #12]	@ movhi
 156:Drivers/CMSIS/DSP/Source/TransformFunctions/arm_cfft_radix2_init_f32.c ****     S->bitRevFactor = 32U;
 2090              		.loc 6 156 5 is_stmt 1 view .LVU783
 2091              		.loc 6 156 21 is_stmt 0 view .LVU784
 2092 0044 C381     		strh	r3, [r0, #14]	@ movhi
 157:Drivers/CMSIS/DSP/Source/TransformFunctions/arm_cfft_radix2_init_f32.c ****     S->pBitRevTable = (uint16_t *) & armBitRevTable[31];
 2093              		.loc 6 157 5 is_stmt 1 view .LVU785
 2094              		.loc 6 157 21 is_stmt 0 view .LVU786
 2095 0046 354B     		ldr	r3, .L110+8
 2096 0048 8360     		str	r3, [r0, #8]
 158:Drivers/CMSIS/DSP/Source/TransformFunctions/arm_cfft_radix2_init_f32.c ****     S->onebyfftLen = 0.0078125;
 2097              		.loc 6 158 5 is_stmt 1 view .LVU787
 2098              		.loc 6 158 20 is_stmt 0 view .LVU788
 2099 004a 4FF07053 		mov	r3, #1006632960
 2100 004e 0361     		str	r3, [r0, #16]	@ float
 159:Drivers/CMSIS/DSP/Source/TransformFunctions/arm_cfft_radix2_init_f32.c ****     break;
 2101              		.loc 6 159 5 is_stmt 1 view .LVU789
  75:Drivers/CMSIS/DSP/Source/TransformFunctions/arm_cfft_radix2_init_f32.c **** 
 2102              		.loc 6 75 14 is_stmt 0 view .LVU790
 2103 0050 0020     		movs	r0, #0
 2104              	.LVL233:
 2105              		.loc 6 159 5 view .LVU791
 2106 0052 12E0     		b	.L96
 2107              	.LVL234:
 2108              	.L106:
  90:Drivers/CMSIS/DSP/Source/TransformFunctions/arm_cfft_radix2_init_f32.c ****   {
 2109              		.loc 6 90 3 view .LVU792
 2110 0054 1029     		cmp	r1, #16
 2111 0056 4ED0     		beq	.L94
 2112 0058 2029     		cmp	r1, #32
 2113 005a 09D1     		bne	.L108
 160:Drivers/CMSIS/DSP/Source/TransformFunctions/arm_cfft_radix2_init_f32.c **** 
 161:Drivers/CMSIS/DSP/Source/TransformFunctions/arm_cfft_radix2_init_f32.c ****   case 64U:
 162:Drivers/CMSIS/DSP/Source/TransformFunctions/arm_cfft_radix2_init_f32.c ****     /*  Initializations of structure parameters for 64 point FFT */
 163:Drivers/CMSIS/DSP/Source/TransformFunctions/arm_cfft_radix2_init_f32.c ****     S->twidCoefModifier = 64U;
 164:Drivers/CMSIS/DSP/Source/TransformFunctions/arm_cfft_radix2_init_f32.c ****     S->bitRevFactor = 64U;
 165:Drivers/CMSIS/DSP/Source/TransformFunctions/arm_cfft_radix2_init_f32.c ****     S->pBitRevTable = (uint16_t *) & armBitRevTable[63];
 166:Drivers/CMSIS/DSP/Source/TransformFunctions/arm_cfft_radix2_init_f32.c ****     S->onebyfftLen = 0.015625f;
 167:Drivers/CMSIS/DSP/Source/TransformFunctions/arm_cfft_radix2_init_f32.c ****     break;
 168:Drivers/CMSIS/DSP/Source/TransformFunctions/arm_cfft_radix2_init_f32.c **** 
 169:Drivers/CMSIS/DSP/Source/TransformFunctions/arm_cfft_radix2_init_f32.c ****   case 32U:
 170:Drivers/CMSIS/DSP/Source/TransformFunctions/arm_cfft_radix2_init_f32.c ****     /*  Initializations of structure parameters for 64 point FFT */
 171:Drivers/CMSIS/DSP/Source/TransformFunctions/arm_cfft_radix2_init_f32.c ****     S->twidCoefModifier = 128U;
 2114              		.loc 6 171 5 is_stmt 1 view .LVU793
 2115              		.loc 6 171 25 is_stmt 0 view .LVU794
 2116 005c 8023     		movs	r3, #128
ARM GAS  C:\Users\JustE\AppData\Local\Temp\ccF78sEd.s 			page 62


 2117              	.LVL235:
 2118              		.loc 6 171 25 view .LVU795
 2119 005e 8381     		strh	r3, [r0, #12]	@ movhi
 172:Drivers/CMSIS/DSP/Source/TransformFunctions/arm_cfft_radix2_init_f32.c ****     S->bitRevFactor = 128U;
 2120              		.loc 6 172 5 is_stmt 1 view .LVU796
 2121              		.loc 6 172 21 is_stmt 0 view .LVU797
 2122 0060 C381     		strh	r3, [r0, #14]	@ movhi
 173:Drivers/CMSIS/DSP/Source/TransformFunctions/arm_cfft_radix2_init_f32.c ****     S->pBitRevTable = (uint16_t *) & armBitRevTable[127];
 2123              		.loc 6 173 5 is_stmt 1 view .LVU798
 2124              		.loc 6 173 21 is_stmt 0 view .LVU799
 2125 0062 2F4B     		ldr	r3, .L110+12
 2126 0064 8360     		str	r3, [r0, #8]
 174:Drivers/CMSIS/DSP/Source/TransformFunctions/arm_cfft_radix2_init_f32.c ****     S->onebyfftLen = 0.03125;
 2127              		.loc 6 174 5 is_stmt 1 view .LVU800
 2128              		.loc 6 174 20 is_stmt 0 view .LVU801
 2129 0066 4FF07453 		mov	r3, #1023410176
 2130 006a 0361     		str	r3, [r0, #16]	@ float
 175:Drivers/CMSIS/DSP/Source/TransformFunctions/arm_cfft_radix2_init_f32.c ****     break;
 2131              		.loc 6 175 5 is_stmt 1 view .LVU802
  75:Drivers/CMSIS/DSP/Source/TransformFunctions/arm_cfft_radix2_init_f32.c **** 
 2132              		.loc 6 75 14 is_stmt 0 view .LVU803
 2133 006c 0020     		movs	r0, #0
 2134              	.LVL236:
 2135              		.loc 6 175 5 view .LVU804
 2136 006e 04E0     		b	.L96
 2137              	.LVL237:
 2138              	.L108:
  90:Drivers/CMSIS/DSP/Source/TransformFunctions/arm_cfft_radix2_init_f32.c ****   {
 2139              		.loc 6 90 3 view .LVU805
 2140 0070 4FF0FF30 		mov	r0, #-1
 2141              	.LVL238:
  90:Drivers/CMSIS/DSP/Source/TransformFunctions/arm_cfft_radix2_init_f32.c ****   {
 2142              		.loc 6 90 3 view .LVU806
 2143 0074 01E0     		b	.L96
 2144              	.LVL239:
 2145              	.L107:
  90:Drivers/CMSIS/DSP/Source/TransformFunctions/arm_cfft_radix2_init_f32.c ****   {
 2146              		.loc 6 90 3 view .LVU807
 2147 0076 4FF0FF30 		mov	r0, #-1
 2148              	.LVL240:
 2149              	.L96:
 176:Drivers/CMSIS/DSP/Source/TransformFunctions/arm_cfft_radix2_init_f32.c **** 
 177:Drivers/CMSIS/DSP/Source/TransformFunctions/arm_cfft_radix2_init_f32.c ****   case 16U:
 178:Drivers/CMSIS/DSP/Source/TransformFunctions/arm_cfft_radix2_init_f32.c ****     /*  Initializations of structure parameters for 16 point FFT */
 179:Drivers/CMSIS/DSP/Source/TransformFunctions/arm_cfft_radix2_init_f32.c ****     S->twidCoefModifier = 256U;
 180:Drivers/CMSIS/DSP/Source/TransformFunctions/arm_cfft_radix2_init_f32.c ****     S->bitRevFactor = 256U;
 181:Drivers/CMSIS/DSP/Source/TransformFunctions/arm_cfft_radix2_init_f32.c ****     S->pBitRevTable = (uint16_t *) & armBitRevTable[255];
 182:Drivers/CMSIS/DSP/Source/TransformFunctions/arm_cfft_radix2_init_f32.c ****     S->onebyfftLen = 0.0625f;
 183:Drivers/CMSIS/DSP/Source/TransformFunctions/arm_cfft_radix2_init_f32.c ****     break;
 184:Drivers/CMSIS/DSP/Source/TransformFunctions/arm_cfft_radix2_init_f32.c **** 
 185:Drivers/CMSIS/DSP/Source/TransformFunctions/arm_cfft_radix2_init_f32.c **** 
 186:Drivers/CMSIS/DSP/Source/TransformFunctions/arm_cfft_radix2_init_f32.c ****   default:
 187:Drivers/CMSIS/DSP/Source/TransformFunctions/arm_cfft_radix2_init_f32.c ****     /*  Reporting argument error if fftSize is not valid value */
 188:Drivers/CMSIS/DSP/Source/TransformFunctions/arm_cfft_radix2_init_f32.c ****     status = ARM_MATH_ARGUMENT_ERROR;
 189:Drivers/CMSIS/DSP/Source/TransformFunctions/arm_cfft_radix2_init_f32.c ****     break;
 190:Drivers/CMSIS/DSP/Source/TransformFunctions/arm_cfft_radix2_init_f32.c ****   }
 191:Drivers/CMSIS/DSP/Source/TransformFunctions/arm_cfft_radix2_init_f32.c **** 
ARM GAS  C:\Users\JustE\AppData\Local\Temp\ccF78sEd.s 			page 63


 192:Drivers/CMSIS/DSP/Source/TransformFunctions/arm_cfft_radix2_init_f32.c ****   return (status);
 2150              		.loc 6 192 3 is_stmt 1 view .LVU808
 193:Drivers/CMSIS/DSP/Source/TransformFunctions/arm_cfft_radix2_init_f32.c **** }
 2151              		.loc 6 193 1 is_stmt 0 view .LVU809
 2152 007a 5DF8044B 		ldr	r4, [sp], #4
 2153              	.LCFI11:
 2154              		.cfi_remember_state
 2155              		.cfi_restore 4
 2156              		.cfi_def_cfa_offset 0
 2157 007e 7047     		bx	lr
 2158              	.LVL241:
 2159              	.L105:
 2160              	.LCFI12:
 2161              		.cfi_restore_state
  90:Drivers/CMSIS/DSP/Source/TransformFunctions/arm_cfft_radix2_init_f32.c ****   {
 2162              		.loc 6 90 3 view .LVU810
 2163 0080 B1F5007F 		cmp	r1, #512
 2164 0084 19D0     		beq	.L100
 2165 0086 B1F5806F 		cmp	r1, #1024
 2166 008a 09D1     		bne	.L109
 123:Drivers/CMSIS/DSP/Source/TransformFunctions/arm_cfft_radix2_init_f32.c ****     /*  Initialise the bit reversal table modifier */
 2167              		.loc 6 123 5 is_stmt 1 view .LVU811
 123:Drivers/CMSIS/DSP/Source/TransformFunctions/arm_cfft_radix2_init_f32.c ****     /*  Initialise the bit reversal table modifier */
 2168              		.loc 6 123 25 is_stmt 0 view .LVU812
 2169 008c 0423     		movs	r3, #4
 2170              	.LVL242:
